(dp0
S'b4109cd96fe5bda6.jpg'
p1
(I-2
I-2
I-1
I1
I2
I-1
I0
I1
I-2
I0
I-1
I-1
I-2
I0
I-2
I-1
I-2
I1
I2
I1
I-1
I2
I2
I-1
I1
I2
I2
I-1
I-1
I-1
I1
I-2
I1
I1
I0
I-1
I1
I0
I0
I1
I0
I2
I1
I2
I1
I2
I1
I0
I1
I-2
I1
I-1
I2
I-1
I-1
I1
I1
I-1
I-2
I1
I-2
I1
I2
I2
I1
I2
I2
I-1
I2
I2
I-1
I-2
I-2
I-2
I1
I-1
I1
I-2
I-2
I-2
I-1
I-1
I-2
I1
I-2
I-1
I1
I2
I1
I2
I2
I1
I2
I1
I-1
I-1
I-1
I-2
I-1
I1
I-1
I-1
I0
I0
I1
I1
I1
I-1
I1
I2
I2
I2
I-2
I-2
I-1
I-2
I-2
I-1
I-1
I-1
I1
I2
I1
I2
I2
I2
I2
I2
I-1
I-2
I1
I-2
I2
I-1
I2
I-1
I-2
I-1
I-1
I-2
I-2
I1
I-2
I-2
I2
I2
I-1
I2
I2
I1
I1
I2
I1
I-2
I-1
I-2
I-1
I-1
I1
I-2
I-1
I1
I-1
I1
I-1
I2
I-2
I1
I1
I-1
I1
I-2
I1
I-2
I1
I-1
I-2
I-2
I-2
I1
I-2
I1
I1
I-2
I-1
I1
I1
I-2
I1
I-1
I2
I-2
I0
I-1
I-2
I-2
I-1
I-2
I-2
I-2
I-2
I-2
I1
I2
I-1
I2
I-1
I-1
I-2
I-1
I2
I-1
I1
I1
I2
I-2
I0
I0
I-2
I-1
I-2
I-2
I-2
I-2
I-2
I-2
I2
I2
I2
I2
I2
I1
I2
I1
I-1
I-1
I-2
I-1
I-2
I2
I2
I1
I-1
I1
I2
I1
I2
I-1
I2
I-1
I1
I1
I-1
I0
I2
I-2
I-1
I-1
I-1
I-1
I1
I2
I1
I1
I-2
I-1
I-1
I2
I2
I2
I2
I2
I2
I1
I2
I2
I1
I0
I2
I-2
I0
I2
I1
I-1
I0
I2
I-1
I0
I1
I1
I-1
I1
I2
I-2
I1
I-1
I-2
I-2
I1
I-1
I-1
I2
I2
I2
I1
I1
I1
I1
I1
I2
I-1
I-1
I1
I-1
I0
I0
I1
I-2
I-1
I1
I1
I0
I0
I1
I-2
I2
I1
I1
I-1
I0
I2
I-2
I2
I2
I-2
I-2
I-2
I-2
I-1
I1
I-1
I-2
I-2
I-1
I-1
I1
I-2
I1
I-2
I1
I1
I1
I2
I2
I2
I0
I2
I1
I-1
I-1
I-2
I-2
I-1
I1
I-2
I1
I1
I-1
I1
I-1
I2
I-1
I0
I1
I1
I0
I-2
I-1
I-1
I-1
I-2
I-1
I-1
I0
I2
I2
I2
I2
I2
I2
I2
I2
I-2
I-2
I-1
I-2
I-2
I-2
I-2
I-2
I-2
I1
I-1
I2
I-2
I-1
I-2
I-2
I2
I2
I0
I2
I2
I1
I1
I2
I-1
I-2
I-1
I-2
I-2
I-2
I-1
I-2
I-1
I2
I1
I2
I2
I2
I-1
I1
I-1
I-2
I-2
I-2
I-2
I-1
I1
I-1
I-2
I-2
I0
I1
I-2
I1
I1
I-2
I-1
I1
I0
I-2
I2
I-1
I1
I-2
I0
I-2
I-2
I2
I1
I-1
I-1
I-1
I-2
I-2
I2
I2
I-1
I1
I0
I-2
I-1
I1
I2
I-1
I2
I0
I2
I-1
I1
I-1
I-2
I1
I-2
I-2
I-2
I-1
I-2
I-1
I2
I1
I2
I2
I2
I1
I2
I1
I-1
I2
I-2
I1
I-1
I2
I2
I1
I2
I1
I2
I-1
I2
I-1
I0
I1
I-2
I-2
I2
I2
I2
I2
I2
I2
I1
I1
I-2
I2
I-1
I-1
I1
I-2
I-2
I1
I2
I-1
I2
I2
I1
I-2
I-1
I-2
I-2
I-1
I1
I2
tp2
sS'6eac781c434bd2b1.jpg'
p3
(I-2
I0
I-2
I2
I0
I2
I-1
I0
I0
I2
I0
I0
I2
I-2
I2
I-2
I1
I2
I-2
I-1
I-2
I0
I-1
I1
I-2
I1
I0
I-2
I2
I2
I2
I0
I2
I-2
I1
I-2
I1
I1
I-1
I-1
I-1
I0
I-2
I-2
I0
I-1
I2
I1
I0
I2
I1
I2
I1
I0
I0
I0
I2
I-1
I2
I1
I-1
I2
I-2
I-1
I2
I-2
I2
I-2
I-1
I2
I-2
I0
I-1
I-2
I-1
I-2
I0
I-2
I1
I0
I-2
I1
I-2
I1
I-1
I-2
I2
I0
I2
I2
I2
I2
I1
I2
I-2
I-1
I1
I-2
I1
I-2
I-1
I1
I-1
I1
I-1
I-1
I0
I0
I-2
I-1
I1
I-2
I1
I-1
I-1
I1
I-1
I2
I-1
I-1
I0
I1
I2
I1
I2
I1
I1
I2
I-2
I1
I2
I-2
I2
I-2
I-1
I2
I-2
I0
I-1
I-2
I-1
I-2
I1
I-2
I1
I1
I-2
I1
I-2
I2
I-1
I-2
I2
I-1
I2
I2
I2
I2
I-1
I2
I-2
I1
I1
I-2
I1
I-2
I0
I1
I-1
I0
I-1
I-1
I1
I-1
I-2
I-2
I-1
I-2
I2
I1
I-1
I2
I0
I1
I0
I-1
I1
I-1
I2
I0
I2
I0
I-1
I2
I-2
I1
I2
I-2
I2
I-2
I1
I2
I-2
I-1
I-2
I-2
I-2
I-2
I0
I-1
I2
I1
I-2
I2
I-2
I2
I1
I-2
I2
I1
I2
I2
I2
I2
I1
I2
I-2
I0
I1
I-2
I1
I-2
I0
I1
I-1
I-1
I-1
I-1
I-1
I1
I-1
I-1
I1
I-1
I2
I0
I0
I1
I-1
I1
I0
I-1
I1
I1
I2
I1
I2
I1
I1
I2
I-2
I-1
I2
I-2
I2
I-2
I-1
I2
I-2
I0
I-2
I-2
I-1
I-2
I0
I-2
I1
I-1
I-2
I1
I-2
I1
I-1
I-2
I2
I-1
I2
I2
I2
I1
I-1
I2
I-2
I0
I1
I-2
I1
I-2
I0
I1
I-1
I1
I-1
I-1
I1
I-1
I-1
I-2
I-1
I-2
I1
I0
I-1
I2
I-1
I1
I-1
I0
I1
I-1
I2
I1
I2
I0
I0
I2
I-2
I1
I2
I-2
I2
I-2
I1
I2
I-2
I0
I-1
I-2
I-2
I-2
I-1
I-1
I2
I1
I-1
I2
I-2
I1
I1
I-1
I2
I1
I2
I2
I2
I2
I1
I2
I-2
I0
I1
I-2
I1
I-2
I1
I1
I-1
I-1
I-1
I-1
I-1
I1
I-1
I-2
I1
I-2
I2
I1
I0
I2
I1
I2
I1
I-1
I0
I0
I2
I-1
I2
I0
I-1
I2
I-2
I-1
I2
I-2
I1
I-2
I0
I2
I-2
I1
I-1
I-1
I-1
I-1
I1
I-1
I1
I-1
I-2
I1
I-2
I2
I-1
I-2
I1
I-1
I2
I2
I2
I2
I-1
I1
I-2
I-1
I1
I-2
I1
I-2
I-1
I1
I-1
I1
I-1
I-2
I1
I-1
I-2
I-2
I-1
I-2
I1
I-1
I0
I2
I-1
I1
I0
I0
I1
I1
I2
I1
I2
I1
I1
I2
I-2
I0
I1
I-2
I2
I-2
I1
I1
I-2
I-1
I-2
I-2
I-2
I-2
I-1
I-2
I1
I1
I-2
I2
I-2
I1
I-1
I-2
I2
I1
I2
I2
I2
I2
I0
I2
I-1
I1
I2
I-2
I2
I-2
I2
I1
I-1
I-1
I-2
I-1
I-1
I1
I-1
I-1
I2
I0
I-1
I1
I0
I0
I-1
I2
I0
I2
I-2
I-1
I2
I-2
I1
I-1
I1
I-1
I-1
I-1
I2
I1
I-2
I1
I-2
I2
I0
I2
I2
I2
I-2
I-2
I1
I-2
I-1
I-1
I1
I1
tp4
s.