(dp0
S'159a8e9d57996755.jpg'
p1
(I2
I2
I2
I-2
I2
I-1
I-1
I-2
I-2
I1
I-2
I-2
I-1
I-2
I-1
I-2
I-2
I-1
I1
I-1
I-2
I1
I-2
I1
I-1
I2
I-1
I-1
I1
I-2
I1
I0
I-1
I2
I-1
I2
I1
I-1
I1
I2
I0
I-2
I1
I-1
I-2
I1
I-2
I1
I2
I1
I-1
I-2
I1
I-1
I2
I2
I2
I1
I2
I2
I-1
I-1
I1
I2
I2
I-2
I2
I-2
I-2
I2
I1
I-1
I-2
I-2
I-2
I-2
I0
I-1
I2
I1
I-1
I2
I-1
I2
I1
I0
I1
I0
I-2
I1
I-1
I1
I1
I-2
I1
I-1
I-2
I1
I-2
I1
I-2
I2
I1
I0
I2
I-1
I2
I2
I2
I2
I2
I2
I-1
I-1
I-2
I-2
I-2
I-2
I1
I1
I1
I1
I2
I2
I0
I2
I2
I2
I1
I2
I2
I0
I2
I2
I2
I2
I-2
I0
I-2
I-2
I-1
I1
I0
I-1
I1
I-1
I-1
I1
I-1
I1
I-1
I-1
I0
I-1
I-1
I1
I-2
I1
I-1
I-2
I2
I2
I1
I2
I2
I2
I2
I1
I-2
I-2
I-2
I-2
I-2
I-2
I2
I2
I1
I2
I-2
I-1
I-2
I-2
I1
I-2
I-1
I-1
I-1
I-2
I-2
I-1
I2
I-2
I-2
I1
I-2
I-2
I-1
I-2
I-1
I-2
I-1
I0
I-2
I0
I-1
I1
I-1
I-1
I1
I-2
I1
I1
I-1
I1
I-1
I2
I-1
I-2
I1
I1
I-2
I1
I-1
I1
I-1
I-1
I2
I-2
I2
I1
I-2
I1
I1
I1
I-1
I2
I2
I2
I2
I-1
I2
I1
I-2
I2
I-2
I1
I2
I-1
I1
I-2
I1
I-1
I1
I2
I2
I-1
I2
I1
I-1
I-1
I-1
I1
I1
I-2
I1
I-2
I-2
I1
I0
I-1
I-2
I-1
I-2
I-2
I-1
I-2
I2
I1
I-1
I2
I-1
I2
I1
I-1
I2
I1
I-1
I1
I0
I2
I1
I-2
I1
I-1
I-2
I0
I1
I1
I-2
I1
I-1
I-2
I-1
I-2
I1
I2
I2
I2
I2
I2
I-2
I-1
I-1
I-2
I-2
I-2
I1
I1
I1
I1
I2
I2
I1
I2
I2
I2
I1
I2
I2
I-1
I2
I1
I2
I2
I-1
I1
I-2
I-2
I-1
I0
I1
I-1
I2
I-1
I-2
I1
I-1
I1
I0
I-2
I1
I-1
I-1
I1
I-2
I1
I-1
I-1
I2
I2
I2
I2
I2
I2
I1
I-1
I-1
I-1
I-2
I-1
I-2
I-2
I2
I2
I-2
I2
I-2
I-1
I-2
I-2
I1
I-2
I0
I-1
I-1
I-2
I-1
I-1
I2
I-1
I-1
I2
I-2
I-2
I0
I-2
I1
I-2
I2
I1
I-2
I-1
I-1
I-1
I-1
I1
I1
I-2
I1
I0
I-1
I1
I-2
I2
I-1
I-2
I2
I1
I-2
I2
I-1
I1
I-1
I-1
I1
I-1
I1
I1
I-2
I-1
I-1
I2
I1
I2
I2
I2
I2
I2
I2
I2
I1
I2
I-2
I0
I1
I-2
I0
I-2
I-1
I-1
I1
I1
I2
I0
I2
I-1
I-1
I1
I-2
I-2
I-1
I-2
I-1
I-2
I-2
I-2
I-1
I-1
I-2
I1
I-2
I-2
I-1
I-2
I2
I1
I-1
I2
I-2
I2
I1
I-1
I2
I1
I1
I2
I-1
I2
I1
I0
I1
I1
I-2
I1
I2
I2
I1
I0
I-2
I-2
I-2
I-2
I-2
I-1
I2
I2
I-2
I1
I1
I-2
I0
I1
I1
I2
I0
I1
I-1
I2
I2
I-1
I1
I2
I1
I-2
I-1
I-2
I2
I-1
I-2
I2
I-1
I1
I-1
I-2
I1
I-1
I0
I-1
I2
I1
I-1
I0
I2
I1
tp2
sS'1eb84eb3767a7800.jpg'
p3
(I-1
I-1
I2
I1
I2
I-1
I2
I2
I-2
I1
I2
I2
I1
I-1
I1
I1
I0
I-1
I-1
I1
I-1
I-2
I-1
I-1
I-1
I-2
I-2
I-2
I1
I1
I-1
I-2
I-1
I-1
I0
I-2
I-1
I-2
I0
I-1
I-2
I1
I1
I2
I2
I2
I-2
I-2
I-2
I-2
I1
I1
I2
I2
I-2
I-2
I-1
I-1
I-1
I1
I1
I-2
I-1
I0
I1
I1
I-1
I2
I-1
I-1
I1
I2
I2
I1
I1
I-1
I-1
I-1
I1
I2
I1
I-1
I-1
I-1
I-2
I-2
I2
I2
I2
I1
I1
I-1
I0
I1
I1
I1
I1
I-1
I-1
I-2
I-1
I-1
I2
I2
I1
I1
I1
I-2
I-1
I1
I-2
I-2
I-2
I-2
I-1
I-1
I0
I-2
I-2
I-2
I-2
I-1
I-2
I0
I-2
I-2
I-2
I-2
I2
I1
I1
I2
I0
I-1
I-1
I1
I1
I1
I1
I0
I-1
I0
I2
I2
I1
I2
I1
I1
I1
I2
I2
I2
I2
I0
I1
I-1
I1
I2
I2
I2
I-1
I1
I-1
I-1
I-1
I2
I2
I-2
I1
I-1
I1
I2
I-2
I2
I2
I-2
I-1
I-1
I2
I2
I2
I2
I2
I1
I2
I2
I2
I2
I1
I-2
I1
I-1
I2
I2
I2
I1
I0
I-1
I2
I2
I2
I2
I-1
I-2
I-2
I-2
I2
I1
I0
I-1
I-2
I-2
I-2
I-2
I1
I-2
I-2
I-2
I-2
I-2
I-2
I-1
I-2
I-2
I-2
I-2
I-2
I-2
I-2
I2
I-2
I-1
I-1
I-1
I2
I2
I2
I2
I2
I1
I-1
I1
I1
I2
I1
I-2
I1
I-1
I2
I0
I2
I2
I-2
I-2
I-2
I-2
I1
I1
I1
I1
I-2
I-2
I-1
I-1
I-1
I0
I0
I-1
I-2
I0
I2
I1
I-1
I1
I-1
I0
I1
I2
I2
I1
I0
I-1
I1
I-1
I2
I2
I1
I0
I1
I1
I-1
I0
I2
I1
I-2
I-1
I1
I-2
I-1
I-2
I1
I-2
I-1
I-1
I-2
I-1
I0
I2
I2
I2
I-2
I-2
I-1
I-2
I0
I1
I-1
I1
I-2
I-1
I0
I0
I0
I-1
I1
I-2
I-1
I0
I-1
I0
I-2
I1
I-2
I-1
I1
I1
I1
I2
I1
I-1
I0
I-1
I0
I-1
I-1
I-1
I-2
I-1
I-1
I-1
I1
I1
I2
I2
I1
I1
I1
I0
I0
I1
I1
I-1
I-2
I0
I-1
I-2
I2
I2
I2
I1
I-1
I-2
I-1
I-2
I-2
I-2
I-2
I1
I1
I2
I2
I-2
I-2
I-2
I-1
I-1
I-1
I-2
I-2
I-2
I-2
I-2
I2
I2
I1
I2
I1
I-1
I1
I2
I1
I0
I1
I-1
I-1
I0
I2
I2
I1
I1
I-1
I1
I1
I2
I2
I2
I1
I-1
I0
I-1
I-1
I2
I2
I1
I0
I1
I-1
I1
I-1
I2
I2
I1
I2
I1
I1
I2
I2
I2
I2
I0
I-1
I2
I2
I2
I2
I0
I2
I-1
I2
I2
I2
I2
I1
I-2
I1
I1
I2
I2
I2
I-1
I0
I-1
I2
I2
I1
I0
I-2
I-2
I-2
I-2
I2
I-1
I-2
I-1
I-2
I-2
I-2
I-2
I-2
I-2
I-2
I-2
I-2
I-2
I-2
I2
I-1
I-1
I-2
I-1
I-1
I-2
I-2
I1
I-1
I-2
I1
I-1
I-1
I-2
I1
I2
I1
I1
I1
I2
I-2
I-2
I-1
I-2
I2
I-2
I-2
I-2
I-2
I-1
I-2
I-1
I1
I1
I-1
I0
I2
I2
I1
I1
I1
I2
I1
I-1
I-1
I2
I2
I2
I1
I2
I1
I-1
I-2
I-2
I-1
I1
I-1
I1
tp4
sS'64707f1bb126d22b.jpg'
p5
(I-2
I-2
I-1
I2
I-1
I1
I2
I-1
I1
I-1
I2
I1
I0
I1
I2
I1
I0
I1
I-2
I-2
I-2
I-1
I-2
I2
I1
I2
I1
I2
I-1
I1
I-1
I2
I0
I-1
I1
I1
I-1
I-1
I-1
I-2
I-2
I2
I-1
I1
I1
I1
I1
I-2
I-2
I-1
I-2
I1
I-1
I-2
I1
I-1
I-1
I2
I-1
I1
I-1
I1
I0
I0
I2
I1
I1
I-1
I1
I2
I-1
I1
I-2
I-1
I-2
I-1
I1
I-2
I2
I-1
I1
I2
I2
I2
I-2
I-1
I-2
I-2
I-1
I-2
I-2
I-2
I-2
I-2
I0
I1
I2
I2
I1
I-1
I-1
I2
I1
I2
I-1
I-1
I2
I-2
I-1
I-1
I-1
I-1
I-1
I1
I-1
I1
I-2
I1
I-1
I-2
I2
I1
I1
I2
I1
I2
I1
I1
I-1
I-1
I1
I-1
I1
I-1
I-1
I1
I-2
I-1
I-2
I-1
I-2
I-2
I0
I-2
I2
I2
I2
I2
I1
I2
I2
I2
I1
I2
I1
I-1
I1
I1
I2
I2
I2
I1
I1
I-1
I2
I1
I2
I2
I-2
I-2
I-2
I-2
I-1
I1
I-1
I-1
I-1
I1
I1
I1
I-2
I1
I-1
I1
I2
I-1
I2
I-1
I1
I1
I0
I2
I1
I1
I-1
I1
I2
I0
I2
I1
I2
I1
I-1
I0
I-2
I-2
I-2
I-1
I-2
I-2
I2
I-2
I-1
I2
I1
I1
I-1
I2
I-2
I-2
I-1
I-1
I1
I-2
I2
I-1
I-2
I-2
I2
I-1
I1
I2
I-1
I0
I-2
I1
I-1
I-2
I-1
I1
I-1
I1
I2
I-1
I-1
I-2
I-2
I-1
I-2
I0
I-2
I-2
I1
I-1
I-1
I2
I1
I1
I-1
I-1
I-1
I-2
I1
I-1
I-1
I-2
I-1
I1
I-1
I2
I-1
I1
I-2
I0
I2
I-2
I2
I1
I2
I2
I2
I2
I-1
I-1
I-2
I-2
I-2
I-2
I-2
I-2
I-2
I-2
I1
I1
I2
I2
I1
I-1
I0
I2
I0
I1
I-1
I-1
I2
I-2
I0
I-2
I-1
I-1
I1
I2
I-1
I2
I-1
I1
I1
I-1
I2
I1
I2
I1
I1
I2
I1
I1
I1
I1
I0
I-1
I2
I0
I0
I2
I-1
I-2
I-2
I-2
I-2
I-2
I0
I-2
I2
I1
I2
I2
I0
I2
I2
I2
I1
I2
I1
I0
I2
I2
I2
I2
I2
I0
I1
I-2
I2
I1
I0
I1
I-2
I-2
I-2
I-2
I-2
I1
I-1
I-1
I0
I1
I1
I-1
I-2
I1
I-2
I0
I1
I-1
I1
I-1
I0
I2
I0
I2
I1
I2
I-1
I0
I2
I0
I2
I1
I2
I0
I-2
I0
I-2
I-2
I-2
I1
I-2
I-2
I2
I-2
I-2
I2
I1
I1
I-2
I2
I-2
I-2
I-1
I-1
I-1
I-2
I2
I-1
I-2
I0
I2
I1
I1
I2
I-1
I2
I-1
I2
I-1
I-2
I1
I0
I0
I1
I1
I-1
I-1
I-1
I-2
I-1
I-2
I-1
I-2
I-2
I1
I-1
I-1
I2
I2
I-1
I-1
I-2
I-2
I-2
I-1
I-2
I-2
I-2
I-2
I-1
I0
I2
I-1
I2
I-2
I-1
I2
I-2
I2
I2
I2
I2
I2
I2
I0
I1
I-2
I-2
I-2
I-2
I-2
I-2
I-2
I-2
I1
I1
I2
I2
I2
I-1
I1
I2
I-2
I-1
I-2
I-1
I1
I-1
I1
I-2
I1
I2
I1
I2
I-1
I2
I1
I2
I1
I-1
I2
I2
I1
I1
I2
I1
I-2
I-2
I-2
I-2
I2
I0
I2
I2
I1
I-1
I2
I1
I-1
I2
I2
I-1
I1
I-2
I2
I-2
I-1
I-2
tp6
sS'cc6c62698e6db265.jpg'
p7
(I-1
I-1
I-1
I1
I-1
I-1
I-1
I-2
I1
I-1
I0
I-2
I2
I1
I-2
I-1
I2
I1
I2
I2
I2
I2
I2
I-2
I1
I-1
I1
I1
I-1
I-2
I0
I0
I1
I2
I1
I2
I2
I0
I-1
I2
I-1
I1
I1
I0
I2
I1
I1
I1
I0
I0
I-2
I2
I1
I-1
I2
I2
I1
I2
I2
I2
I1
I1
I-2
I-2
I-2
I-2
I-2
I-2
I-2
I-1
I-1
I-2
I1
I2
I2
I-1
I1
I2
I-2
I-1
I0
I-2
I0
I-1
I2
I-2
I-1
I0
I-2
I0
I1
I2
I-1
I-1
I-1
I-2
I-2
I-1
I-2
I-2
I-2
I-1
I0
I1
I2
I1
I2
I-2
I-2
I-1
I-2
I-1
I-1
I-1
I-2
I1
I-2
I-1
I-1
I0
I1
I-1
I2
I2
I1
I2
I2
I2
I-1
I2
I1
I-1
I2
I2
I1
I-1
I1
I-1
I1
I-2
I2
I-1
I-2
I-2
I-2
I-2
I-2
I-2
I-2
I-2
I-2
I-2
I2
I1
I2
I2
I1
I-1
I1
I-1
I1
I2
I-1
I-1
I1
I1
I-1
I-1
I1
I-2
I-1
I-2
I-1
I2
I1
I1
I1
I1
I1
I1
I-2
I-1
I1
I1
I1
I-2
I0
I-2
I-2
I-1
I-1
I-1
I-2
I1
I-2
I-1
I1
I1
I-2
I-2
I1
I0
I1
I2
I2
I2
I2
I2
I2
I2
I2
I2
I1
I-2
I2
I1
I2
I0
I2
I-1
I-1
I-2
I-2
I1
I-2
I-1
I1
I1
I2
I2
I1
I1
I2
I1
I1
I1
I-1
I1
I0
I-1
I-1
I-1
I1
I-1
I-1
I-1
I1
I1
I-2
I1
I1
I-1
I2
I2
I2
I2
I2
I2
I2
I2
I-1
I-2
I-2
I-2
I-2
I-2
I-2
I-1
I0
I-2
I-1
I2
I2
I-1
I1
I2
I-2
I-2
I-1
I-2
I-2
I-2
I1
I-2
I0
I2
I-1
I2
I2
I2
I1
I1
I1
I-2
I-1
I-2
I-1
I-1
I-1
I1
I-1
I0
I1
I1
I2
I-1
I-1
I-1
I-2
I-1
I1
I-1
I-2
I1
I-2
I-1
I0
I1
I1
I-2
I2
I2
I1
I2
I2
I2
I-2
I2
I1
I-1
I1
I2
I2
I-1
I1
I-1
I2
I-1
I2
I1
I-2
I-1
I-2
I-1
I-2
I-2
I-2
I-2
I-2
I-2
I2
I-1
I1
I2
I-1
I-1
I2
I0
I-1
I1
I-1
I1
I1
I2
I1
I-1
I-1
I-2
I-1
I-1
I-2
I2
I1
I1
I2
I2
I1
I0
I-2
I-1
I1
I2
I1
I-2
I-1
I-2
I-2
I-1
I1
I1
I-2
I-1
I-2
I-2
I-1
I-1
I-2
I-2
I-2
I-2
I1
I2
I2
I2
I1
I2
I2
I2
I1
I2
I1
I-1
I2
I1
I2
I0
I2
I-2
I-2
I-2
I-2
I1
I-2
I-1
I0
I-1
I1
I2
I-1
I-1
I1
I1
I1
I2
I1
I2
I1
I-2
I-2
I-1
I-2
I-2
I-2
I-1
I-1
I1
I-2
I-1
I-1
I-2
I2
I2
I2
I2
I2
I2
I2
I2
I1
I2
I-2
I-2
I1
I-1
I-1
I-1
I2
I-2
I-1
I-1
I2
I-1
I-2
I2
I-2
I-2
I-1
I-2
I-2
I-2
I-1
I-1
I0
I2
I1
I2
I2
I2
I2
I1
I1
I-1
I-2
I-2
I-1
I0
I-2
I0
I-1
I-1
I1
I-1
I1
I2
I1
I0
I2
I1
I-2
I0
I-1
I2
I-2
I1
I1
I0
I-2
I1
I1
I0
I-1
I1
I2
I2
I1
I2
I-2
I1
I-2
I-2
I-1
I1
I-2
I0
I1
I-2
I-1
I2
I1
I2
I2
I0
I-1
I-2
tp8
s.