(dp0
S'7d1e62d392a0ef24.jpg'
p1
(I1
I1
I2
I-1
I0
I-1
I2
I2
I0
I1
I2
I2
I2
I-1
I1
I2
I1
I1
I-1
I-1
I0
I-1
I2
I1
I-2
I1
I2
I2
I2
I1
I2
I2
I-1
I-1
I1
I2
I-1
I-1
I-1
I-1
I-1
I-1
I1
I2
I2
I2
I-2
I-2
I-2
I-2
I1
I-1
I-1
I-2
I-2
I-2
I-2
I-1
I-2
I-1
I-2
I-2
I-2
I-1
I0
I2
I-1
I-1
I-2
I-2
I-1
I1
I-1
I1
I2
I-2
I-2
I-1
I-2
I-2
I-2
I-2
I-1
I-2
I-2
I-1
I-2
I-2
I-2
I1
I-2
I-2
I1
I-1
I1
I1
I1
I2
I0
I2
I2
I-1
I1
I1
I0
I2
I-1
I-2
I1
I1
I2
I-2
I-2
I1
I1
I-1
I-2
I1
I-2
I-2
I2
I2
I1
I2
I-1
I-2
I-2
I-1
I2
I2
I2
I1
I0
I-1
I1
I1
I2
I2
I2
I0
I2
I1
I1
I1
I1
I2
I2
I-2
I2
I-1
I-1
I1
I1
I-1
I-2
I-2
I-1
I-2
I-1
I1
I1
I-2
I-2
I1
I-2
I1
I1
I-2
I1
I1
I2
I2
I1
I-2
I-1
I-2
I1
I-2
I2
I2
I2
I2
I-1
I2
I1
I-1
I2
I2
I1
I1
I2
I1
I1
I2
I1
I-1
I-1
I-2
I-1
I-1
I0
I1
I-1
I-1
I1
I1
I1
I1
I1
I1
I-1
I1
I2
I-1
I2
I1
I1
I1
I-1
I1
I-1
I-2
I1
I-1
I-1
I1
I-1
I-1
I-2
I-1
I-2
I-2
I-1
I-2
I2
I-1
I2
I2
I0
I-1
I-2
I-2
I1
I-2
I2
I-1
I-1
I2
I-1
I2
I1
I-2
I1
I-1
I1
I1
I1
I1
I-1
I2
I-2
I0
I-1
I-1
I1
I-2
I1
I2
I-1
I-1
I-1
I-1
I-1
I-1
I1
I-1
I-1
I-1
I1
I1
I1
I2
I-1
I-1
I-1
I1
I2
I-1
I2
I-1
I-1
I2
I-1
I1
I-2
I-2
I-2
I-2
I1
I-2
I2
I0
I2
I2
I-1
I-1
I-2
I-2
I-1
I-2
I2
I-1
I-1
I2
I-2
I2
I-1
I-1
I2
I1
I2
I2
I2
I1
I2
I2
I-2
I-1
I1
I-2
I2
I-1
I-1
I-1
I-2
I-2
I-2
I-2
I-2
I-2
I-2
I-1
I1
I1
I1
I2
I-1
I1
I1
I2
I1
I1
I2
I1
I2
I1
I2
I2
I-2
I-1
I-2
I-2
I-2
I-2
I0
I-2
I2
I1
I2
I2
I0
I1
I-2
I-2
I-2
I1
I2
I1
I-1
I2
I1
I-1
I2
I2
I1
I-2
I1
I-1
I1
I2
I2
I2
I-2
I1
I2
I-1
I0
I2
I2
I2
I1
I2
I-1
I0
I1
I2
I2
I2
I1
I-1
I-1
I-1
I1
I1
I1
I2
I-2
I-2
I2
I-1
I2
I1
I2
I-2
I-2
I0
I-2
I-2
I-2
I1
I-2
I-2
I2
I0
I2
I-1
I-1
I2
I1
I2
I-1
I-1
I-1
I-2
I-2
I-2
I-2
I-2
I-2
I-2
I-2
I-2
I-2
I2
I1
I-2
I-1
I2
I-2
I-2
I-2
I-1
I-1
I-1
I2
I2
I-2
I-2
I-1
I1
I1
I2
I2
I0
I-2
I-1
I-1
I-1
I1
I1
I-1
I-2
I-2
I-2
I-1
I-1
I-2
I-2
I-2
I-2
I2
I2
I1
I2
I-1
I-1
I-1
I-1
I2
I1
I1
I-1
I-1
I1
I2
I0
I1
I2
I2
I0
I2
I2
I1
I1
I-2
I2
I-2
I-2
I-2
I-2
I0
I-2
I-2
I-1
I0
I-2
I0
I1
I2
I2
I-2
I2
I2
I1
I2
I0
I2
I1
I1
I0
I1
I1
I1
I-1
tp2
sS'7d8df2c2df01b9ef.jpg'
p3
(I1
I-2
I-2
I-1
I0
I-2
I-2
I-1
I0
I0
I-2
I-1
I-2
I0
I-1
I-1
I-2
I-2
I1
I-1
I-1
I-2
I-1
I1
I-1
I-2
I-1
I1
I1
I-2
I1
I2
I2
I2
I2
I2
I2
I2
I-2
I2
I2
I2
I2
I1
I-1
I-1
I2
I2
I2
I-1
I2
I-2
I-2
I1
I1
I1
I1
I-2
I-1
I-2
I-2
I-2
I2
I2
I1
I1
I-1
I-2
I-2
I-2
I2
I2
I2
I1
I1
I-2
I-2
I1
I1
I1
I-1
I-1
I1
I-2
I-1
I1
I-1
I-2
I-2
I-1
I-1
I-2
I-1
I-2
I-2
I-2
I-2
I1
I-1
I-1
I-2
I-1
I-2
I-2
I1
I-1
I-1
I1
I2
I0
I2
I2
I1
I2
I2
I0
I2
I2
I2
I1
I-1
I2
I2
I-2
I-1
I-2
I-2
I-2
I2
I2
I2
I1
I-2
I-2
I-2
I-2
I2
I2
I2
I2
I2
I1
I0
I2
I-1
I1
I2
I-2
I1
I-2
I-1
I1
I-1
I1
I1
I-1
I-1
I-2
I1
I-1
I2
I2
I1
I1
I1
I1
I1
I2
I1
I1
I-1
I1
I1
I-2
I-2
I-2
I-2
I-2
I-2
I-2
I2
I2
I-1
I-1
I1
I1
I-1
I2
I2
I1
I0
I2
I2
I1
I2
I2
I-1
I0
I-1
I2
I1
I-1
I2
I0
I2
I1
I2
I2
I1
I1
I-2
I1
I2
I-2
I2
I-2
I-2
I-2
I-1
I-1
I-1
I-2
I-1
I-2
I-2
I-2
I1
I-1
I-1
I1
I1
I-2
I-2
I-2
I-2
I-1
I-1
I-2
I-2
I2
I1
I1
I2
I1
I2
I-1
I-2
I-1
I1
I2
I0
I2
I-1
I-2
I-2
I-1
I-1
I-1
I2
I-1
I-1
I-1
I-2
I1
I-2
I2
I-1
I1
I1
I-1
I2
I2
I0
I1
I2
I2
I-1
I2
I2
I0
I2
I2
I2
I2
I2
I2
I2
I-2
I1
I-1
I1
I1
I2
I2
I2
I-1
I-1
I-1
I1
I1
I2
I2
I1
I1
I1
I-2
I-2
I-2
I1
I1
I-1
I0
I1
I2
I2
I2
I2
I2
I-2
I-2
I-2
I-2
I-2
I2
I2
I2
I1
I1
I-1
I2
I2
I2
I2
I2
I-1
I-2
I-2
I-2
I-1
I2
I2
I1
I-2
I-2
I1
I1
I2
I2
I2
I1
I-2
I-1
I1
I-2
I1
I1
I-1
I1
I-1
I-1
I-1
I-1
I1
I-1
I-1
I1
I-1
I-1
I-1
I-1
I1
I-1
I-2
I-1
I-2
I-2
I-1
I-2
I-2
I1
I1
I-2
I-2
I-2
I-2
I-2
I-2
I-1
I-1
I-2
I-2
I-2
I-2
I-2
I-2
I1
I-1
I-2
I-2
I-1
I-2
I-2
I-2
I1
I-2
I-2
I-1
I1
I-1
I-2
I-1
I2
I-1
I2
I2
I1
I-1
I1
I1
I1
I1
I2
I2
I2
I-1
I1
I1
I-1
I2
I2
I1
I1
I-1
I-1
I-2
I-1
I-1
I2
I2
I-1
I-1
I-2
I2
I2
I2
I1
I1
I1
I-1
I1
I2
I2
I2
I-1
I1
I-1
I0
I1
I2
I2
I2
I-1
I2
I-1
I0
I1
I1
I1
I-2
I-2
I1
I-2
I-1
I1
I-1
I-2
I-2
I-1
I-2
I-1
I1
I1
I-1
I-2
I-2
I2
I-1
I2
I2
I2
I-2
I-1
I1
I1
I1
I2
I2
I1
I-1
I1
I-1
I2
I1
I1
I-1
I-1
I2
I1
I1
I1
I1
I-1
I0
I1
I-1
I1
I-1
I0
I2
I-1
I1
I-1
I1
I1
I-2
I1
I-1
I-1
I-2
I-1
I1
I-1
I-2
I-2
I-1
I1
I-2
I-2
I-2
I-1
I-2
I-1
I-1
I2
tp4
sS'2fedb1180463d893.jpg'
p5
(I-1
I-1
I-1
I1
I-1
I-1
I-1
I-1
I1
I-1
I0
I0
I1
I1
I-1
I1
I2
I1
I1
I2
I2
I2
I2
I-2
I-1
I-1
I0
I-1
I1
I1
I1
I-1
I-1
I-1
I2
I-1
I-1
I1
I-2
I-2
I-2
I1
I1
I-1
I-1
I1
I1
I1
I0
I1
I0
I-1
I1
I2
I1
I0
I-1
I0
I1
I1
I2
I2
I-1
I-2
I-2
I-1
I-1
I1
I2
I1
I-1
I-2
I1
I1
I1
I2
I1
I2
I-2
I0
I-1
I-1
I-1
I-1
I2
I1
I1
I1
I1
I1
I0
I2
I2
I0
I1
I1
I2
I0
I1
I2
I0
I1
I-1
I2
I-1
I-1
I-1
I1
I1
I2
I-1
I2
I-1
I-1
I-1
I-2
I1
I-2
I0
I2
I-2
I-2
I-2
I-1
I1
I-1
I2
I1
I-2
I-2
I-2
I-1
I-2
I2
I-1
I-1
I-1
I-1
I1
I2
I2
I1
I2
I2
I-2
I-2
I-2
I-2
I-2
I-2
I-2
I-2
I-1
I-2
I-2
I2
I-2
I1
I-2
I-2
I0
I0
I1
I2
I1
I-1
I-2
I-2
I-1
I1
I-1
I-2
I-2
I1
I2
I2
I1
I2
I-2
I0
I1
I-2
I2
I-1
I1
I2
I-2
I-2
I-2
I-2
I-2
I-2
I-2
I-1
I-1
I1
I-1
I2
I1
I1
I2
I2
I1
I-2
I2
I-1
I1
I2
I2
I2
I-2
I2
I-1
I-1
I-2
I1
I1
I-1
I2
I2
I1
I2
I-1
I2
I2
I1
I2
I2
I2
I1
I-1
I2
I2
I-1
I2
I2
I1
I2
I1
I-1
I1
I1
I-1
I2
I-2
I-1
I2
I-1
I2
I-1
I1
I2
I-2
I2
I-1
I-2
I2
I-1
I0
I-1
I1
I-2
I-2
I-2
I0
I-2
I-2
I-1
I-2
I-2
I-1
I0
I1
I-2
I-1
I0
I-2
I-1
I-2
I-1
I-2
I-2
I-1
I-1
I1
I-2
I-2
I2
I-2
I2
I1
I-2
I-1
I-2
I-2
I2
I-2
I2
I0
I-2
I1
I-1
I2
I2
I0
I1
I1
I2
I-1
I2
I-2
I-1
I1
I-2
I1
I-2
I0
I2
I-2
I0
I2
I-1
I-1
I-1
I2
I1
I1
I2
I2
I1
I1
I2
I1
I2
I1
I1
I2
I-1
I1
I1
I1
I2
I0
I1
I-2
I-1
I-1
I-1
I1
I-1
I1
I-1
I-2
I1
I-2
I1
I1
I-2
I2
I0
I-2
I2
I-2
I2
I-1
I-2
I2
I0
I2
I1
I0
I1
I2
I2
I0
I1
I-2
I0
I1
I-2
I2
I-2
I-2
I2
I-2
I-2
I-2
I-2
I-1
I-2
I-1
I-2
I-1
I-1
I-1
I1
I1
I1
I-1
I-1
I-2
I-1
I1
I-1
I2
I-2
I-1
I-1
I-2
I-1
I-2
I-2
I-1
I-2
I-2
I-2
I1
I-1
I-2
I1
I-2
I-1
I-2
I-2
I2
I1
I-1
I2
I-1
I2
I-1
I-1
I2
I0
I1
I1
I1
I0
I2
I1
I0
I0
I-1
I2
I2
I-1
I2
I-1
I-1
I-1
I-2
I1
I-1
I-2
I-2
I-2
I-2
I-2
I2
I1
I2
I2
I1
I-2
I-2
I-2
I1
I1
I2
I-1
I1
I-2
I-2
I-2
I1
I2
I1
I-1
I-2
I-2
I-2
I-2
I2
I2
I-2
I2
I-2
I-2
I-2
I-2
I2
I1
I-1
I2
I-1
I-1
I1
I2
I1
I-1
I1
I1
I2
I0
I1
I0
I0
I1
I2
I0
I0
I1
I2
I2
I0
I1
I2
I2
I2
I-1
I1
I2
I2
I2
I-1
I-2
I2
I2
I2
I2
I-1
I2
I2
I1
I1
I1
I2
I-1
I-1
I-1
I2
I-2
I-2
I-2
tp6
sS'ce1b37dffe926318.jpg'
p7
(I2
I-1
I0
I-2
I-2
I-2
I-2
I-2
I2
I-1
I1
I-2
I-2
I1
I2
I-1
I-2
I-1
I-2
I1
I-2
I-2
I-2
I-1
I-1
I-2
I-2
I-2
I1
I-1
I-2
I-2
I-2
I1
I-1
I-1
I-1
I-1
I1
I1
I0
I1
I2
I1
I2
I-1
I0
I2
I-1
I-1
I-2
I2
I-1
I-2
I2
I2
I1
I2
I-1
I1
I-1
I1
I2
I2
I2
I1
I1
I0
I2
I2
I1
I2
I2
I-1
I-1
I1
I1
I-2
I2
I2
I2
I1
I1
I1
I-1
I2
I2
I2
I1
I-1
I1
I-2
I2
I-1
I2
I1
I-1
I-1
I-1
I1
I-1
I-2
I1
I0
I1
I0
I-1
I-2
I-2
I-2
I-2
I-1
I1
I1
I-1
I2
I-2
I1
I2
I1
I2
I1
I0
I2
I2
I2
I2
I2
I-1
I-2
I-1
I-2
I1
I1
I1
I2
I-2
I-1
I-1
I-1
I-2
I0
I2
I2
I2
I1
I2
I2
I2
I2
I2
I2
I-2
I-2
I-1
I-2
I-2
I1
I1
I1
I1
I1
I0
I2
I-1
I2
I2
I1
I2
I1
I1
I2
I1
I2
I-1
I1
I-1
I-1
I1
I-2
I-2
I-1
I-1
I-1
I-2
I-2
I-1
I-2
I-1
I1
I-1
I-1
I-2
I-2
I-2
I-1
I0
I1
I1
I-2
I-2
I-1
I-2
I-2
I-2
I-2
I1
I-2
I-2
I-2
I-2
I-2
I-1
I-1
I-1
I-2
I-2
I-2
I-2
I-1
I-2
I1
I1
I-2
I-2
I-2
I-1
I-2
I-2
I-1
I-2
I-2
I-2
I-2
I-1
I-1
I2
I-1
I-1
I1
I1
I-1
I2
I1
I1
I2
I1
I1
I-2
I2
I2
I0
I2
I2
I2
I2
I1
I2
I2
I2
I2
I2
I2
I-1
I1
I1
I2
I1
I1
I2
I2
I-1
I-1
I1
I0
I-1
I2
I2
I2
I1
I1
I1
I0
I2
I2
I2
I2
I-1
I-1
I-1
I2
I0
I2
I2
I1
I1
I-1
I2
I1
I-1
I2
I1
I1
I1
I0
I-2
I-2
I-1
I-2
I-2
I-1
I-2
I-2
I1
I-2
I-1
I-1
I-2
I0
I-2
I-1
I2
I1
I1
I1
I-1
I-2
I-2
I-1
I-1
I-1
I-1
I-1
I1
I-1
I0
I-1
I1
I-1
I-1
I2
I2
I1
I0
I1
I1
I2
I2
I2
I2
I-2
I-2
I-2
I-2
I-2
I1
I-1
I1
I0
I-1
I-1
I2
I-1
I1
I2
I1
I1
I0
I1
I2
I1
I2
I1
I0
I0
I-2
I2
I1
I-1
I0
I-1
I0
I-2
I-2
I2
I-1
I1
I1
I-1
I-1
I-2
I-1
I1
I1
I1
I1
I2
I-1
I1
I1
I-1
I-2
I-2
I-2
I1
I-2
I-1
I-2
I-2
I-2
I-1
I-1
I-1
I-2
I-2
I-2
I-2
I1
I-1
I1
I2
I-2
I-1
I-2
I-1
I-2
I-2
I-2
I-2
I-2
I-2
I-2
I-1
I-1
I2
I-1
I-2
I0
I0
I-2
I2
I2
I2
I2
I1
I2
I-1
I2
I2
I2
I2
I2
I1
I1
I2
I2
I2
I2
I1
I-1
I2
I-2
I1
I2
I1
I1
I-1
I1
I2
I-1
I-1
I1
I1
I-1
I2
I2
I2
I1
I1
I2
I1
I2
I2
I1
I2
I-1
I-1
I-1
I2
I-1
I2
I2
I1
I1
I-1
I2
I1
I1
I2
I2
I1
I2
I1
I-2
I-2
I1
I-2
I-2
I-2
I-1
I-2
I-2
I-2
I-2
I2
I-1
I-2
I-1
I-1
I1
I1
I-1
I-1
I-2
I-1
I-1
I1
I-1
I1
I1
I2
I-2
I-2
I-2
I-2
I-2
I1
I-1
I-2
I2
I-1
I-1
I-1
I1
tp8
sS'9894cd9dcdc40cc5.jpg'
p9
(I1
I-1
I-2
I-1
I-2
I-2
I-2
I-2
I2
I1
I-1
I-1
I-1
I-1
I1
I-2
I-1
I-2
I-1
I1
I-2
I-2
I-2
I-1
I-2
I-2
I-2
I-2
I2
I2
I-2
I-1
I-1
I-2
I-2
I-2
I-2
I-2
I2
I2
I1
I1
I2
I-1
I2
I2
I2
I2
I1
I1
I-1
I2
I2
I1
I2
I1
I2
I1
I1
I2
I1
I2
I1
I1
I2
I-1
I-1
I0
I1
I-1
I2
I2
I2
I1
I1
I2
I1
I0
I2
I2
I2
I-1
I1
I0
I-1
I1
I2
I1
I2
I-1
I1
I-1
I1
I-1
I1
I2
I-2
I-1
I-1
I0
I-2
I-2
I2
I-1
I1
I-1
I-2
I-2
I-2
I-1
I-2
I-2
I-2
I-2
I-2
I1
I-2
I-1
I-2
I-2
I-1
I-1
I0
I2
I2
I2
I1
I1
I-2
I-1
I-2
I-2
I-2
I-1
I-1
I1
I1
I-1
I0
I2
I-1
I1
I2
I2
I0
I1
I1
I1
I2
I2
I2
I2
I-1
I-1
I0
I-2
I-2
I2
I1
I2
I1
I2
I1
I2
I-1
I2
I2
I1
I2
I2
I1
I2
I2
I2
I1
I-1
I-1
I-2
I2
I2
I-2
I1
I-1
I-1
I-2
I-2
I2
I-1
I1
I1
I0
I-1
I-2
I-1
I-1
I1
I-1
I0
I1
I-2
I-1
I-1
I-1
I-2
I-2
I-1
I1
I-1
I-2
I-2
I-2
I-2
I-2
I-1
I-1
I-2
I-2
I-2
I-2
I-1
I-2
I1
I2
I-2
I-2
I-2
I-2
I-2
I-2
I-2
I-2
I-2
I-2
I-2
I-1
I-2
I2
I-1
I-1
I1
I1
I-2
I2
I2
I2
I2
I1
I2
I-1
I2
I2
I1
I2
I2
I2
I1
I2
I2
I2
I2
I1
I1
I1
I-2
I-1
I0
I1
I0
I1
I2
I2
I1
I-1
I2
I1
I1
I2
I2
I2
I1
I1
I1
I1
I1
I2
I2
I2
I-1
I-1
I1
I-1
I-1
I2
I2
I1
I1
I-1
I1
I-1
I-1
I2
I1
I1
I1
I0
I-2
I-2
I0
I-1
I-2
I-2
I-2
I-2
I0
I-2
I-1
I-2
I-2
I-1
I-2
I0
I2
I1
I1
I0
I-1
I-2
I-1
I-2
I-1
I-1
I-1
I-1
I-1
I0
I-1
I-1
I1
I0
I-1
I1
I2
I-1
I-1
I-1
I0
I-1
I1
I2
I1
I-1
I1
I-1
I1
I-1
I2
I1
I2
I1
I1
I-1
I1
I-1
I2
I2
I2
I1
I0
I1
I2
I2
I1
I1
I-1
I-1
I-2
I2
I2
I-1
I1
I-1
I1
I-2
I-2
I2
I0
I1
I1
I-1
I-1
I-2
I0
I1
I1
I1
I1
I1
I-1
I1
I1
I1
I-1
I-1
I-1
I2
I-1
I1
I-1
I-2
I-2
I-2
I-2
I-2
I-2
I-2
I-2
I-1
I-1
I-2
I2
I2
I-1
I0
I-2
I-2
I-2
I-2
I-2
I-2
I-2
I-2
I-2
I-2
I-2
I2
I-2
I-2
I1
I-1
I-2
I1
I2
I2
I2
I1
I2
I-1
I2
I2
I1
I2
I2
I1
I1
I2
I2
I1
I2
I0
I-1
I1
I-2
I1
I-1
I1
I2
I-1
I-1
I2
I-1
I-2
I1
I2
I1
I1
I2
I1
I1
I1
I2
I2
I1
I2
I0
I2
I-1
I-2
I1
I-1
I1
I2
I2
I2
I2
I-1
I2
I2
I1
I2
I2
I1
I2
I1
I-1
I-2
I1
I-2
I-2
I-2
I-1
I-2
I-1
I-1
I1
I2
I2
I-2
I-1
I-1
I-2
I1
I-2
I-2
I-2
I-1
I-1
I-1
I-2
I-1
I1
I-2
I-1
I1
I-2
I2
I1
I-1
I-2
I-2
I-1
I-2
I-1
I-1
I2
tp10
sS'95cce4f8986303d3.jpg'
p11
(I0
I0
I-1
I0
I-1
I0
I-1
I1
I1
I0
I0
I1
I1
I0
I-1
I1
I1
I2
I1
I2
I1
I2
I2
I-2
I-1
I-1
I2
I-1
I1
I1
I2
I-1
I-2
I-1
I1
I-1
I-2
I-2
I-1
I-2
I-2
I0
I0
I-1
I-1
I1
I1
I1
I0
I1
I1
I0
I1
I2
I-1
I-1
I-1
I-1
I0
I0
I2
I2
I-1
I-1
I-2
I0
I1
I2
I2
I1
I-2
I-2
I1
I-1
I2
I2
I1
I2
I-2
I-2
I-2
I-2
I-2
I-2
I-2
I-2
I1
I1
I1
I2
I-1
I2
I1
I-1
I2
I2
I2
I1
I1
I1
I1
I0
I2
I2
I-1
I1
I-1
I1
I0
I1
I-1
I1
I-1
I-1
I0
I-1
I2
I-1
I1
I2
I-2
I-2
I-2
I-2
I0
I-2
I2
I-1
I-2
I-2
I-2
I0
I-1
I2
I-1
I-1
I-1
I-1
I2
I1
I2
I0
I1
I2
I-2
I2
I-2
I-2
I-2
I-1
I1
I-1
I2
I-1
I-1
I2
I-1
I2
I2
I2
I1
I-1
I-1
I1
I-1
I2
I2
I-1
I0
I1
I1
I2
I0
I1
I1
I2
I0
I1
I-1
I-1
I2
I-2
I2
I-2
I-1
I2
I-2
I-2
I-2
I-2
I-2
I-2
I-2
I-2
I1
I1
I0
I2
I1
I1
I1
I2
I1
I-1
I1
I-1
I2
I-1
I2
I2
I-2
I-1
I-2
I-2
I-1
I1
I2
I-2
I1
I-2
I-2
I1
I-1
I2
I-1
I1
I-2
I-2
I-2
I1
I-2
I1
I2
I-2
I1
I0
I2
I2
I1
I0
I2
I1
I0
I2
I-1
I1
I2
I-1
I2
I-1
I1
I2
I-2
I2
I-1
I-2
I-1
I-2
I1
I0
I2
I-1
I1
I1
I2
I1
I1
I2
I-2
I-2
I-1
I-2
I1
I-1
I-1
I2
I-2
I-2
I-2
I-1
I-2
I-2
I1
I-2
I2
I1
I-1
I2
I1
I2
I2
I-1
I-1
I-2
I-2
I-1
I-2
I1
I-2
I-2
I2
I-1
I2
I2
I0
I0
I1
I2
I0
I1
I-2
I-1
I2
I-2
I2
I-2
I-1
I2
I-2
I-1
I-1
I-2
I-1
I-2
I0
I1
I0
I-1
I1
I1
I1
I1
I1
I0
I-2
I1
I2
I-1
I2
I0
I-1
I-1
I-2
I-1
I-2
I-2
I-2
I-2
I-2
I-2
I2
I-2
I-1
I2
I-2
I-2
I-1
I-2
I1
I2
I-2
I2
I-2
I2
I-2
I-2
I2
I0
I2
I1
I0
I0
I2
I1
I0
I0
I-1
I1
I2
I-1
I2
I-1
I-1
I-1
I-2
I0
I-1
I-2
I1
I-2
I-2
I-1
I-1
I-1
I0
I-1
I-1
I-2
I-1
I1
I0
I1
I2
I1
I0
I-1
I1
I-2
I1
I2
I2
I0
I1
I1
I-2
I-2
I2
I1
I-2
I-1
I-2
I-2
I-2
I-2
I2
I2
I-1
I2
I-1
I0
I-1
I-1
I2
I0
I1
I0
I0
I0
I1
I-1
I2
I0
I0
I1
I2
I1
I1
I2
I0
I0
I1
I2
I2
I-1
I2
I-1
I-1
I-1
I1
I1
I1
I-2
I2
I-2
I-2
I-2
I-1
I-1
I-1
I-2
I-2
I-2
I-2
I-2
I2
I2
I2
I2
I-1
I-1
I-1
I-2
I2
I2
I0
I1
I-1
I-1
I-2
I-1
I2
I1
I0
I1
I0
I-1
I0
I2
I1
I0
I0
I0
I2
I-2
I-2
I-2
I0
I0
I1
I2
I-1
I0
I1
I2
I1
I0
I1
I2
I2
I0
I0
I2
I2
I1
I0
I-1
I2
I1
I1
I1
I-1
I2
I2
I1
I1
I1
I1
I0
I0
I-1
I2
I-2
I-2
I-2
tp12
sS'60aed6e4cfc86aae.jpg'
p13
(I-1
I-2
I1
I1
I2
I-1
I2
I2
I-2
I2
I-1
I1
I2
I-2
I1
I-1
I1
I1
I-1
I-1
I-1
I1
I1
I1
I-1
I2
I1
I2
I1
I-2
I2
I2
I2
I2
I-1
I2
I2
I-1
I1
I2
I1
I2
I1
I2
I1
I2
I-1
I-2
I1
I-2
I2
I-1
I0
I1
I-2
I-1
I1
I-2
I1
I-2
I-1
I1
I-2
I-1
I1
I-1
I1
I-2
I-1
I1
I-1
I-1
I-2
I-1
I-1
I-2
I-1
I0
I-1
I-1
I-2
I1
I1
I-1
I0
I1
I-2
I-2
I-2
I-1
I-1
I-1
I1
I-1
I-2
I-2
I-2
I1
I-2
I1
I-1
I-2
I1
I-1
I2
I2
I1
I-1
I1
I1
I1
I2
I-2
I0
I2
I-1
I1
I-1
I1
I1
I-1
I1
I2
I-1
I1
I-1
I1
I-1
I-1
I1
I2
I-1
I1
I-1
I-1
I-1
I-1
I1
I1
I-1
I1
I-2
I-2
I-2
I0
I0
I1
I-1
I1
I-2
I-2
I-2
I-1
I-1
I-1
I-1
I-1
I-2
I-2
I-2
I1
I1
I-2
I1
I-2
I-1
I-2
I-2
I2
I-1
I2
I2
I1
I-1
I1
I2
I1
I2
I-2
I-1
I1
I-2
I1
I-1
I1
I2
I-1
I-1
I1
I-1
I-1
I0
I1
I-1
I1
I1
I2
I1
I1
I2
I-1
I0
I1
I2
I2
I-1
I-1
I-1
I-1
I2
I2
I2
I2
I1
I2
I-1
I2
I2
I2
I2
I1
I-2
I-1
I2
I1
I-2
I2
I2
I-2
I1
I-2
I2
I-1
I-2
I2
I-1
I2
I2
I-1
I-1
I1
I2
I-2
I2
I-2
I-1
I0
I-2
I1
I-2
I1
I-2
I-2
I-1
I-2
I-1
I-2
I-1
I-2
I-2
I1
I1
I1
I2
I1
I-1
I-1
I1
I0
I1
I1
I-1
I2
I-2
I1
I2
I-2
I-2
I-2
I-2
I-1
I-2
I1
I-1
I-2
I-1
I-2
I1
I-2
I1
I-1
I-2
I2
I1
I-2
I2
I-2
I2
I-1
I-2
I2
I1
I2
I1
I-1
I2
I2
I2
I-1
I1
I-2
I-1
I1
I-2
I-2
I-2
I-2
I-1
I2
I2
I1
I2
I-1
I-1
I2
I1
I2
I1
I2
I1
I2
I2
I1
I1
I-1
I-1
I2
I-2
I2
I-1
I-1
I2
I-2
I-1
I-1
I-2
I-1
I-2
I-1
I-2
I1
I1
I-2
I1
I-2
I1
I-2
I-2
I2
I1
I-1
I2
I-2
I1
I-1
I-2
I2
I1
I2
I1
I-1
I1
I2
I2
I2
I0
I-1
I2
I1
I-2
I2
I2
I-2
I-1
I1
I-2
I-2
I-2
I-1
I-2
I-2
I-1
I-1
I-1
I1
I1
I-1
I-2
I1
I-1
I-1
I1
I2
I1
I2
I2
I-1
I-1
I-2
I1
I-1
I-2
I-2
I-2
I-2
I-2
I2
I2
I-1
I2
I-2
I-2
I-2
I-2
I2
I1
I-1
I2
I-2
I-2
I-2
I0
I2
I1
I2
I-1
I2
I-2
I-2
I-2
I2
I1
I0
I2
I2
I2
I1
I2
I2
I-1
I1
I2
I2
I-1
I2
I2
I-1
I2
I1
I-1
I-2
I-2
I-2
I-2
I-2
I-2
I1
I1
I2
I2
I-1
I1
I-1
I-1
I1
I2
I2
I1
I-2
I-1
I-1
I-2
I2
I2
I2
I2
I-1
I1
I-2
I2
I2
I2
I1
I1
I2
I-1
I2
I2
I0
I-2
I-2
I2
I2
I-2
I-2
I-1
I-1
I-2
I-2
I1
I-2
I1
I1
I2
I2
I2
I-2
I2
I-1
I-2
I-2
I2
I1
I1
I2
I1
I1
I1
I-1
I-1
I-2
I2
I1
I1
I2
I2
I-2
I-2
I-2
I-2
I2
I-2
I-2
I-2
tp14
sS'c53c6bde97d2c9c8.jpg'
p15
(I1
I-1
I-2
I-1
I-2
I-2
I-2
I-2
I2
I1
I-1
I-1
I-1
I-1
I2
I-2
I-2
I-2
I-2
I-1
I-2
I-2
I-2
I1
I-2
I-2
I-2
I-2
I2
I2
I-1
I-1
I1
I-2
I-2
I-2
I-2
I-2
I2
I2
I2
I1
I2
I-1
I2
I2
I2
I2
I1
I1
I-1
I2
I2
I-1
I2
I1
I2
I1
I1
I2
I0
I2
I1
I1
I2
I-1
I-1
I-1
I1
I-1
I2
I2
I2
I1
I1
I2
I1
I1
I2
I2
I1
I-1
I1
I0
I0
I1
I2
I1
I2
I-1
I2
I-1
I1
I-1
I-1
I2
I-2
I-2
I-1
I-1
I-2
I-2
I2
I-2
I1
I-2
I-2
I-2
I-2
I-1
I-2
I-2
I-2
I-2
I-2
I1
I-2
I-1
I-1
I-2
I1
I0
I1
I2
I2
I2
I1
I2
I-2
I-1
I-2
I-2
I-2
I-1
I-1
I1
I1
I-1
I0
I2
I0
I1
I2
I2
I-1
I0
I1
I0
I2
I2
I2
I2
I-1
I-1
I1
I-2
I-2
I2
I1
I2
I1
I2
I2
I2
I-1
I2
I2
I1
I2
I2
I1
I2
I1
I2
I1
I-1
I-1
I-2
I2
I1
I-2
I1
I-1
I-1
I-2
I-2
I2
I-1
I1
I1
I1
I-1
I-2
I-1
I-2
I1
I-1
I-1
I1
I-2
I-1
I-1
I-1
I-2
I-2
I-1
I1
I-2
I-2
I-2
I-2
I-2
I-2
I-1
I-1
I-2
I-2
I-2
I-2
I-1
I-2
I1
I2
I-2
I-2
I-2
I-2
I-2
I-2
I-2
I-2
I-2
I-2
I-2
I-1
I-1
I2
I1
I-1
I1
I1
I-2
I2
I2
I2
I2
I1
I2
I-1
I2
I2
I1
I2
I2
I2
I1
I1
I2
I1
I2
I1
I1
I2
I-1
I-1
I1
I1
I-1
I1
I2
I2
I1
I0
I2
I1
I1
I2
I2
I2
I0
I1
I1
I1
I1
I2
I2
I2
I-1
I-1
I1
I1
I-1
I2
I2
I-1
I1
I-1
I1
I-1
I-1
I2
I1
I1
I-1
I-1
I-2
I-2
I-1
I-2
I-2
I-2
I-2
I-2
I1
I-2
I-1
I-2
I-2
I-1
I-1
I-1
I2
I1
I1
I1
I1
I-2
I-1
I-2
I-1
I-1
I-1
I-1
I0
I1
I-1
I-1
I1
I1
I1
I1
I2
I-1
I-1
I-1
I-1
I-1
I1
I2
I1
I-1
I-1
I-1
I1
I-2
I2
I1
I2
I1
I1
I1
I2
I-1
I2
I2
I2
I1
I1
I1
I2
I2
I2
I1
I-1
I-1
I-2
I2
I2
I-1
I1
I-1
I0
I-2
I-2
I2
I-1
I1
I1
I1
I-1
I-2
I-1
I-1
I1
I-1
I-1
I1
I-2
I-1
I1
I0
I-1
I-1
I-1
I2
I-1
I-1
I-1
I-2
I-2
I-2
I-2
I-1
I-2
I-2
I-2
I-1
I-1
I-2
I1
I2
I-2
I-1
I-2
I-2
I-2
I-2
I-2
I-2
I-2
I-2
I-2
I-2
I-2
I2
I-2
I-2
I1
I0
I-2
I2
I2
I2
I2
I1
I2
I-1
I2
I2
I1
I2
I2
I2
I1
I1
I2
I1
I2
I1
I1
I1
I-1
I1
I0
I2
I2
I-1
I1
I2
I-1
I-1
I1
I1
I1
I1
I2
I2
I1
I1
I2
I2
I1
I2
I1
I2
I-1
I-2
I1
I-1
I-1
I2
I2
I2
I2
I-1
I2
I2
I1
I2
I2
I1
I2
I1
I-2
I-2
I1
I-2
I-2
I-2
I-1
I-2
I-1
I-1
I0
I2
I2
I-2
I-2
I-1
I-2
I1
I-2
I-1
I-2
I-1
I-1
I-1
I-2
I-1
I1
I-2
I-1
I1
I-2
I1
I-1
I1
I-2
I-2
I1
I-1
I-1
I-1
I1
tp16
sS'fa81398bab8d1a7a.jpg'
p17
(I2
I1
I1
I-2
I0
I-1
I-1
I-2
I0
I-1
I-1
I-2
I-1
I1
I-1
I-2
I-1
I1
I1
I-2
I0
I1
I1
I2
I-2
I2
I2
I-1
I2
I-1
I2
I2
I2
I1
I2
I2
I2
I2
I-2
I-2
I-2
I-1
I1
I1
I-1
I-2
I-1
I1
I1
I-1
I-2
I-1
I-2
I-2
I2
I2
I2
I2
I2
I-1
I-2
I1
I1
I1
I0
I-2
I1
I-2
I-1
I-1
I-1
I-1
I-2
I-1
I-1
I-2
I-2
I-2
I-1
I-2
I-2
I1
I-2
I-1
I-1
I1
I1
I-2
I-2
I2
I1
I2
I2
I2
I-2
I-2
I2
I-1
I1
I2
I2
I2
I-2
I2
I-1
I1
I1
I1
I1
I-2
I-2
I-2
I2
I2
I1
I2
I-2
I-2
I-2
I-2
I2
I2
I2
I2
I2
I1
I-1
I2
I-1
I1
I1
I-2
I-1
I-2
I-2
I-1
I1
I2
I1
I1
I1
I-2
I-1
I1
I2
I1
I-2
I-1
I2
I-1
I1
I1
I-1
I-2
I-2
I-2
I-1
I-1
I-1
I-2
I-2
I-2
I-1
I1
I-1
I-1
I-1
I1
I-2
I-1
I1
I-1
I1
I2
I2
I1
I1
I1
I2
I2
I-1
I-1
I-2
I-1
I1
I-1
I2
I1
I2
I2
I2
I2
I1
I2
I-2
I2
I2
I-2
I2
I-2
I-2
I2
I1
I1
I1
I-2
I1
I-2
I2
I2
I-1
I-1
I1
I-1
I1
I1
I1
I1
I-1
I1
I1
I-1
I-1
I1
I1
I1
I2
I1
I1
I1
I2
I1
I2
I1
I-1
I-1
I-2
I-1
I-1
I-1
I1
I1
I1
I0
I-1
I-1
I-2
I-1
I-1
I1
I-1
I-1
I1
I-1
I2
I1
I2
I1
I0
I-1
I-2
I2
I2
I-2
I2
I-2
I-2
I0
I-2
I-2
I-1
I-2
I-1
I-2
I-2
I-2
I-2
I-1
I-1
I1
I-1
I-2
I-2
I-2
I-1
I-1
I-1
I1
I1
I-2
I-2
I-2
I-1
I-2
I1
I-1
I-1
I-2
I-2
I-2
I-1
I1
I1
I-2
I-2
I-1
I-1
I-1
I-1
I-1
I0
I1
I-1
I1
I-1
I1
I1
I2
I1
I0
I2
I1
I-1
I1
I2
I2
I1
I2
I2
I1
I2
I2
I2
I2
I0
I2
I2
I-2
I2
I-1
I1
I1
I2
I2
I2
I-2
I1
I-2
I-1
I1
I2
I2
I2
I-1
I0
I-1
I-1
I-1
I2
I2
I2
I0
I1
I-1
I-1
I-2
I2
I2
I-1
I-2
I-2
I1
I-1
I-1
I2
I2
I1
I-1
I-1
I1
I2
I2
I2
I2
I-2
I-2
I-2
I-2
I-1
I2
I2
I2
I-2
I-2
I1
I1
I1
I2
I2
I2
I-2
I-1
I1
I-1
I1
I2
I2
I2
I-1
I1
I1
I-1
I1
I1
I2
I2
I-1
I1
I1
I-1
I-1
I2
I2
I-1
I1
I1
I2
I1
I-2
I2
I-1
I-2
I2
I2
I2
I1
I-1
I-2
I-2
I-1
I-2
I1
I-2
I-2
I-2
I1
I-1
I-2
I1
I-1
I-2
I-2
I-2
I1
I-1
I1
I-1
I-2
I-2
I-2
I-2
I1
I-1
I1
I-2
I-2
I-2
I-2
I-1
I1
I1
I-1
I-2
I-2
I-2
I-2
I-2
I-1
I1
I-2
I-2
I-2
I-2
I-2
I-2
I-1
I-2
I-2
I-2
I-2
I1
I1
I-1
I2
I-2
I-1
I-2
I1
I2
I1
I2
I-1
I2
I2
I2
I2
I-1
I-1
I-1
I-2
I-1
I1
I1
I-1
I1
I-2
I2
I2
I1
I2
I-1
I2
I2
I2
I1
I-1
I2
I2
I2
I1
I1
I2
I2
I1
I-1
I-2
I2
I2
I1
I2
I2
I-1
I-2
I-2
tp18
sS'd9d24b03c233b5ad.jpg'
p19
(I-1
I-2
I-1
I1
I-2
I-1
I-1
I-1
I2
I-2
I1
I1
I-1
I2
I-1
I2
I1
I1
I1
I1
I2
I2
I2
I-1
I2
I2
I1
I2
I-2
I1
I-1
I1
I-2
I-1
I-2
I1
I-2
I-1
I2
I-2
I1
I2
I1
I0
I-2
I-2
I1
I1
I-2
I0
I-1
I-2
I-2
I-2
I1
I-1
I-2
I1
I-1
I-2
I-2
I-2
I1
I-1
I-2
I1
I1
I-2
I-2
I-2
I-1
I-2
I-2
I-1
I-1
I-2
I-2
I-2
I-2
I-1
I1
I1
I2
I-1
I-1
I-1
I-2
I-1
I-1
I-2
I-2
I-2
I-2
I-2
I2
I2
I2
I2
I2
I2
I2
I2
I1
I-1
I-2
I-1
I1
I2
I2
I-1
I2
I2
I2
I2
I2
I1
I-1
I2
I2
I2
I2
I2
I2
I1
I1
I2
I2
I2
I2
I2
I2
I-1
I-1
I2
I1
I-2
I2
I2
I1
I1
I-1
I1
I-1
I-1
I2
I1
I2
I1
I1
I-1
I-1
I2
I1
I2
I-2
I-1
I1
I-2
I2
I1
I2
I-2
I1
I-1
I1
I2
I1
I1
I-2
I-1
I-1
I-1
I0
I-2
I-2
I-1
I-2
I-2
I-2
I-2
I-2
I1
I-2
I-2
I-2
I-2
I-2
I-2
I-2
I2
I-2
I0
I-2
I-2
I-2
I-1
I-1
I2
I-2
I1
I-1
I-1
I2
I1
I1
I2
I1
I2
I2
I2
I1
I1
I2
I-1
I2
I1
I2
I2
I-2
I-2
I-2
I-2
I-1
I-2
I0
I-2
I-1
I-1
I1
I1
I1
I1
I-2
I1
I-1
I0
I-1
I-2
I1
I2
I2
I-1
I-2
I-2
I2
I2
I0
I1
I-2
I-2
I-2
I-2
I2
I2
I-1
I2
I-1
I-1
I-2
I-1
I2
I1
I-2
I1
I-1
I-2
I-1
I-1
I1
I-2
I-1
I1
I1
I0
I-1
I-1
I-2
I-2
I2
I-1
I2
I-1
I-1
I-1
I-2
I0
I-1
I-2
I-2
I-2
I-2
I-1
I2
I2
I2
I2
I2
I1
I2
I2
I-1
I-1
I-2
I-1
I-1
I2
I2
I-1
I2
I2
I2
I2
I1
I1
I-2
I2
I2
I2
I2
I2
I2
I2
I2
I2
I2
I2
I1
I1
I0
I-2
I-1
I2
I1
I-2
I1
I1
I1
I1
I0
I1
I-1
I-1
I1
I1
I2
I0
I1
I-1
I-1
I2
I1
I2
I-1
I-1
I1
I-1
I2
I-1
I1
I-2
I1
I-1
I-1
I1
I-1
I-1
I-2
I1
I1
I-1
I1
I-2
I-2
I-1
I-2
I-2
I-2
I-2
I-2
I1
I-2
I-2
I-2
I-2
I-2
I-2
I-2
I2
I-2
I-1
I-2
I-2
I-2
I-1
I-1
I2
I-2
I1
I-1
I-1
I2
I1
I1
I2
I1
I1
I1
I2
I1
I1
I1
I-1
I2
I0
I1
I2
I-2
I-2
I-1
I-2
I-2
I-2
I-1
I-2
I1
I1
I1
I2
I1
I1
I-1
I2
I1
I-1
I-1
I-2
I2
I2
I2
I-1
I1
I-2
I2
I2
I1
I1
I-2
I1
I-2
I-2
I2
I2
I-1
I2
I-2
I-1
I-1
I-1
I2
I1
I-1
I2
I-1
I1
I1
I1
I1
I-1
I0
I1
I1
I1
I1
I2
I-2
I-1
I2
I-1
I1
I0
I1
I1
I-2
I1
I-1
I-1
I-2
I-1
I-1
I1
I2
I1
I2
I2
I2
I2
I2
I1
I-2
I-2
I-2
I-1
I-2
I-1
I-1
I-2
I2
I2
I1
I2
I-1
I2
I1
I-1
I1
I1
I1
I-1
I-1
I-1
I1
I-1
I-1
I0
I-1
I1
I-2
I-1
I1
I-1
I0
I-1
I1
I-2
I0
I1
I-1
I-2
I1
I-1
I-1
I-1
I2
I1
tp20
s.