(dp0
S'6c57d120aa8c334c.jpg'
p1
(I-1
I-1
I0
I1
I1
I1
I1
I-1
I-1
I2
I-1
I-2
I2
I-2
I2
I-2
I2
I2
I-2
I-1
I1
I-1
I1
I1
I0
I0
I1
I2
I0
I-2
I1
I2
I1
I2
I-2
I2
I2
I2
I2
I2
I2
I1
I-1
I0
I1
I2
I0
I-1
I1
I0
I-2
I0
I2
I-2
I1
I2
I2
I2
I2
I2
I-2
I2
I-2
I-2
I-1
I-2
I-1
I-2
I-1
I-1
I-2
I1
I0
I1
I1
I0
I-1
I-1
I-1
I-1
I-1
I-1
I1
I-2
I-2
I1
I-2
I-2
I-2
I-1
I-1
I-2
I0
I-2
I-1
I-2
I-2
I1
I-2
I0
I-1
I-1
I-2
I-2
I2
I2
I2
I-1
I0
I2
I-1
I-2
I-2
I-2
I-2
I-2
I-2
I-2
I-2
I-2
I2
I2
I2
I2
I2
I-1
I1
I2
I-2
I1
I0
I-2
I-1
I-2
I2
I1
I1
I1
I2
I1
I-1
I2
I1
I1
I1
I2
I2
I1
I2
I1
I2
I2
I-1
I0
I0
I-2
I-1
I-1
I-1
I-1
I1
I1
I-2
I1
I1
I1
I1
I2
I1
I-2
I-1
I1
I2
I1
I2
I-2
I-2
I-2
I2
I2
I1
I2
I2
I0
I1
I2
I2
I-1
I2
I-2
I2
I-1
I2
I2
I-2
I-2
I-2
I-2
I-1
I-2
I-2
I-1
I-1
I-1
I-1
I1
I1
I-2
I1
I-1
I-1
I-2
I1
I-1
I0
I1
I-1
I1
I-2
I1
I-1
I0
I0
I-1
I1
I-1
I1
I-1
I-1
I0
I1
I1
I-1
I1
I-2
I-2
I-1
I-2
I-1
I2
I0
I1
I-1
I2
I2
I-1
I1
I-1
I2
I-2
I2
I2
I-2
I-2
I2
I-2
I2
I1
I2
I2
I-2
I2
I2
I-2
I2
I-2
I-1
I2
I1
I-1
I-1
I-2
I-1
I-2
I-1
I-2
I1
I1
I1
I1
I1
I1
I-1
I1
I-1
I-1
I-1
I-1
I-1
I-2
I-1
I0
I1
I1
I2
I1
I1
I-1
I1
I-1
I-1
I1
I-1
I-1
I-2
I1
I1
I2
I2
I1
I-2
I-2
I-1
I-2
I1
I0
I-2
I1
I-2
I-2
I2
I-1
I2
I-2
I0
I-1
I-2
I1
I2
I-2
I2
I-2
I-2
I2
I-2
I1
I-1
I-2
I-1
I-2
I-2
I1
I2
I1
I2
I1
I1
I-1
I2
I2
I-1
I1
I1
I-1
I1
I1
I1
I1
I0
I-1
I1
I-1
I-1
I-1
I-1
I-1
I1
I2
I1
I1
I1
I-2
I0
I-2
I-2
I-1
I-1
I2
I2
I2
I2
I2
I2
I2
I-1
I0
I2
I-2
I-1
I-2
I-2
I-1
I1
I2
I2
I1
I2
I-2
I-1
I1
I-2
I2
I1
I-2
I2
I-2
I-2
I2
I-1
I-2
I-1
I-2
I0
I-2
I-1
I1
I-2
I-1
I1
I0
I1
I-1
I1
I-2
I-1
I1
I-1
I-1
I-1
I1
I-2
I-2
I1
I-1
I1
I-2
I-2
I2
I-2
I1
I0
I-1
I1
I-2
I2
I-1
I0
I-1
I-1
I-1
I-2
I2
I2
I0
I1
I-1
I-1
I-2
I1
I1
I2
I-1
I1
I-2
I-2
I-2
I-1
I2
I2
I-1
I2
I-2
I-2
I-1
I-2
I1
I1
I-2
I1
I-2
I-2
I-2
I-1
I-1
I-1
I-1
I-2
I-2
I-2
I-2
I2
I2
I2
I2
I-2
I-2
I-2
I-2
I2
I2
I2
I1
I-1
I0
I1
I-1
I1
I1
I1
I1
I-1
I1
I1
I2
I1
I-1
I2
I2
I2
I1
I0
I2
I2
I2
I0
I2
I1
I2
I2
I-2
I-2
I2
I2
I2
I2
I1
I2
I2
I-1
I-1
I-1
I2
I1
I1
tp2
sS'cecfe396ffff34fe.jpg'
p3
(I2
I1
I2
I-2
I1
I-1
I2
I1
I-1
I2
I1
I0
I-1
I-2
I1
I-2
I-2
I-1
I-1
I-2
I-2
I-1
I-2
I2
I2
I1
I-1
I1
I-2
I1
I-2
I-2
I1
I-1
I1
I-2
I1
I1
I-1
I0
I0
I-1
I1
I2
I2
I2
I-2
I-2
I-1
I-2
I-1
I-1
I0
I2
I-1
I0
I2
I1
I-1
I2
I2
I2
I1
I2
I2
I1
I2
I2
I2
I2
I1
I1
I-1
I-2
I-1
I2
I1
I1
I2
I1
I2
I1
I1
I2
I2
I2
I-1
I2
I2
I-1
I2
I1
I1
I2
I-1
I-1
I0
I-2
I-1
I-2
I-2
I0
I-1
I0
I1
I-2
I1
I-2
I1
I2
I2
I2
I-2
I0
I-2
I-2
I2
I1
I1
I1
I-2
I-2
I-2
I-2
I0
I-2
I-1
I-1
I-2
I-2
I-2
I0
I-1
I-1
I-1
I2
I-2
I-1
I-2
I1
I-1
I1
I2
I-2
I-1
I-2
I-1
I1
I-1
I2
I-2
I0
I-2
I-1
I2
I1
I1
I-2
I0
I-2
I-2
I2
I2
I-1
I2
I-1
I-2
I2
I0
I-1
I-2
I-2
I-1
I-2
I-1
I1
I2
I2
I-2
I-1
I2
I-1
I1
I2
I2
I2
I-1
I1
I1
I-1
I1
I2
I2
I2
I1
I1
I-1
I-1
I2
I2
I2
I2
I-2
I-2
I-2
I-2
I-2
I2
I2
I2
I2
I2
I2
I2
I2
I2
I2
I2
I0
I0
I1
I-2
I-2
I2
I2
I2
I2
I2
I2
I2
I2
I2
I2
I2
I-2
I1
I-2
I1
I1
I-2
I-2
I2
I-1
I2
I-2
I-2
I-2
I-2
I-1
I-2
I1
I0
I-2
I-2
I-2
I1
I-2
I1
I1
I-1
I-2
I-2
I-2
I2
I1
I2
I1
I2
I-2
I-2
I-2
I-1
I1
I-1
I1
I-1
I-2
I-2
I-2
I-1
I1
I-1
I-1
I0
I-2
I-2
I-2
I-1
I-2
I-1
I-1
I-1
I-2
I-2
I-1
I2
I1
I2
I2
I2
I-2
I-1
I-1
I2
I2
I1
I2
I2
I-2
I2
I-2
I-1
I-1
I-2
I-1
I-2
I-1
I-2
I0
I-1
I-2
I1
I-1
I-1
I-1
I-1
I1
I-1
I1
I1
I1
I-1
I1
I1
I-2
I-1
I1
I-1
I-1
I0
I0
I-1
I1
I1
I1
I1
I1
I1
I0
I1
I0
I1
I-2
I-1
I-1
I-1
I0
I-2
I1
I-2
I-2
I1
I0
I1
I-1
I-2
I-2
I-2
I0
I-1
I-2
I2
I2
I2
I-2
I2
I-2
I1
I1
I-2
I-1
I-2
I0
I1
I2
I1
I1
I1
I1
I1
I1
I1
I1
I-1
I0
I-1
I1
I1
I1
I-1
I-1
I0
I-1
I-1
I-1
I0
I-1
I-1
I1
I0
I1
I1
I1
I-1
I0
I-1
I-1
I0
I-1
I-1
I-2
I-1
I-1
I-1
I1
I1
I1
I2
I-1
I1
I1
I-2
I2
I2
I1
I1
I-2
I2
I2
I2
I-1
I-2
I-2
I0
I-1
I-2
I0
I-2
I-2
I-2
I-1
I-1
I-1
I0
I0
I-2
I-2
I-1
I-1
I-1
I0
I0
I-1
I-2
I-1
I-1
I1
I1
I1
I1
I1
I1
I0
I-1
I1
I0
I1
I-1
I-1
I-1
I-1
I-2
I1
I1
I-1
I1
I0
I-1
I-2
I-2
I1
I-1
I-1
I0
I-2
I-2
I-2
I-2
I2
I2
I2
I-2
I-2
I1
I2
I-2
I2
I2
I2
I2
I2
I2
I2
I2
I-2
I1
I1
I1
I-1
I-1
I-1
I1
I0
I1
I1
I0
I1
I1
I1
I0
I-2
I2
I2
I2
I2
I-2
I2
I2
I2
I2
I1
I2
I2
I-1
tp4
s.