(dp0
S'bd41a9be91eb5d42.jpg'
p1
(I-2
I-1
I1
I2
I1
I1
I2
I1
I-1
I-1
I1
I-1
I2
I1
I2
I0
I2
I2
I-2
I1
I1
I-1
I-2
I-1
I-1
I-1
I-2
I-2
I1
I-1
I-2
I-2
I-1
I1
I1
I-2
I-1
I2
I-1
I-1
I2
I1
I-1
I1
I2
I-1
I-1
I-2
I-1
I-1
I-2
I1
I-2
I-1
I-1
I1
I0
I1
I2
I0
I1
I2
I-2
I-2
I-1
I-2
I-1
I-1
I-1
I1
I-2
I1
I1
I1
I-2
I1
I2
I2
I2
I2
I2
I2
I1
I2
I2
I2
I2
I2
I2
I-1
I2
I2
I2
I1
I1
I1
I1
I-2
I2
I2
I-1
I-1
I-2
I-2
I-2
I-2
I-2
I-2
I-1
I-2
I-2
I-2
I1
I2
I0
I2
I1
I1
I1
I1
I1
I-1
I1
I-1
I1
I-1
I-1
I-1
I-2
I1
I-1
I-1
I1
I-1
I-1
I0
I-1
I-2
I-2
I-1
I2
I-2
I-1
I-1
I-2
I-2
I-2
I-2
I1
I-2
I-2
I-2
I-2
I-2
I-2
I-1
I-2
I-2
I-2
I-2
I-1
I1
I2
I2
I0
I0
I2
I2
I1
I2
I0
I2
I2
I2
I-1
I0
I-1
I1
I2
I-1
I1
I0
I-1
I-1
I1
I1
I-1
I1
I1
I1
I0
I1
I1
I2
I1
I1
I2
I0
I1
I1
I2
I1
I0
I1
I2
I-1
I1
I2
I0
I-1
I1
I2
I2
I-1
I-1
I-1
I-2
I-1
I2
I2
I0
I1
I2
I-1
I1
I1
I2
I-2
I-2
I-2
I1
I-2
I-1
I1
I-2
I-2
I-1
I-2
I1
I1
I1
I2
I2
I1
I-1
I-1
I-1
I-2
I0
I1
I-1
I-1
I-1
I-1
I-1
I0
I2
I-1
I-1
I-2
I-2
I-2
I-2
I-2
I-2
I-2
I-2
I1
I-1
I0
I1
I2
I-1
I-2
I2
I2
I1
I2
I1
I1
I1
I2
I2
I2
I1
I-1
I1
I-1
I1
I2
I2
I-1
I-1
I1
I2
I-1
I2
I2
I-2
I-1
I-1
I-1
I-2
I-2
I-2
I-2
I-1
I-2
I-2
I-1
I-1
I1
I1
I2
I0
I0
I1
I-1
I1
I1
I2
I0
I-1
I1
I-1
I0
I2
I2
I2
I1
I2
I1
I1
I2
I-1
I-2
I-2
I-2
I2
I-2
I-2
I-2
I-2
I-2
I-2
I-2
I-1
I-2
I-2
I-2
I-2
I-2
I-2
I1
I-2
I-2
I-2
I-1
I1
I2
I2
I2
I1
I1
I2
I2
I1
I2
I-1
I2
I2
I2
I0
I1
I-2
I2
I1
I-1
I-1
I-1
I-1
I-2
I1
I2
I1
I1
I-1
I1
I1
I2
I2
I2
I0
I-1
I2
I-1
I1
I2
I2
I1
I-2
I2
I2
I-1
I1
I2
I0
I-1
I2
I2
I2
I-1
I-2
I-1
I-1
I-1
I2
I2
I-1
I2
I2
I1
I1
I1
I1
I-2
I-2
I-2
I2
I-2
I-1
I-1
I-2
I-2
I-2
I-2
I-2
I2
I2
I2
I2
I2
I-2
I-1
I-2
I-2
I1
I1
I-2
I-2
I-2
I-2
I-2
I-1
I1
I-2
I-2
I-2
I-2
I-2
I-2
I-1
I-2
I-2
I-2
I-2
I-1
I0
I1
I2
I-1
I-2
I1
I1
I1
I1
I-1
I1
I-1
I1
I2
I1
I1
I-1
I2
I1
I1
I2
I1
I-1
I-1
I1
I2
I-1
I1
I0
I-2
I-1
I1
I2
I-1
I-2
I-2
I-2
I-1
I-2
I-2
I2
I2
I2
I-1
I2
I2
I2
I1
I-1
I2
I2
I2
I1
I2
I2
I-1
I-1
I-2
I1
I-1
I-2
I-2
I-1
I-1
I-1
I-1
I0
I1
I-2
I1
I2
I2
I2
I1
I1
I2
I-1
tp2
sS'48894f822ef0ad40.jpg'
p3
(I-2
I-2
I-2
I2
I1
I0
I-1
I0
I-1
I1
I-2
I-1
I-1
I-1
I1
I-2
I-2
I-2
I-1
I-1
I-2
I-2
I-2
I1
I-2
I-2
I-2
I-2
I2
I-2
I0
I-2
I-2
I2
I-1
I-1
I-1
I-2
I1
I1
I-1
I2
I0
I-1
I2
I2
I2
I1
I2
I1
I1
I2
I2
I2
I0
I1
I2
I-1
I1
I2
I2
I-1
I1
I2
I2
I-1
I-1
I2
I-2
I-1
I2
I2
I2
I1
I-1
I-1
I-1
I1
I2
I2
I0
I1
I-2
I0
I2
I0
I2
I2
I1
I2
I-1
I2
I2
I2
I2
I1
I-1
I1
I-1
I2
I2
I1
I2
I1
I1
I2
I1
I-2
I-2
I-1
I1
I2
I-2
I-2
I-2
I1
I1
I2
I2
I1
I-2
I-2
I-2
I-1
I-2
I2
I0
I-2
I1
I2
I1
I2
I1
I2
I1
I1
I1
I1
I0
I-1
I1
I-1
I0
I1
I-1
I-2
I-2
I-1
I-2
I-2
I-1
I-1
I0
I-2
I-2
I1
I0
I1
I1
I-1
I-2
I-2
I-2
I0
I-2
I1
I-1
I-1
I-1
I-1
I2
I1
I1
I-1
I-2
I1
I-1
I-2
I-2
I-2
I-2
I-1
I-2
I-1
I-2
I-2
I-1
I0
I-2
I2
I-2
I-2
I-2
I-1
I2
I-1
I1
I2
I1
I1
I2
I2
I-1
I0
I2
I-1
I1
I2
I2
I2
I-1
I1
I-1
I-1
I0
I2
I1
I-1
I1
I-1
I-1
I0
I-2
I1
I-1
I-2
I1
I1
I-1
I2
I-1
I1
I-2
I-2
I1
I-1
I1
I-1
I-2
I1
I1
I-2
I-2
I-2
I2
I2
I2
I2
I2
I2
I1
I2
I2
I2
I-1
I-2
I2
I-1
I0
I-1
I1
I-2
I-2
I-2
I1
I-2
I-2
I-2
I-2
I-2
I-2
I-1
I-2
I-2
I-2
I-2
I-2
I-1
I-1
I2
I-1
I-1
I-2
I-2
I1
I1
I-1
I1
I-2
I-1
I-2
I-2
I2
I2
I1
I2
I-1
I1
I1
I-1
I2
I2
I1
I2
I-1
I2
I-2
I-1
I2
I2
I2
I-1
I1
I1
I1
I2
I2
I2
I-2
I0
I2
I-1
I-1
I2
I2
I1
I1
I2
I2
I1
I1
I2
I1
I1
I2
I2
I1
I-1
I-1
I1
I1
I1
I2
I2
I1
I1
I-1
I2
I2
I1
I2
I2
I-1
I1
I0
I2
I2
I2
I2
I-1
I-2
I0
I-2
I2
I2
I2
I1
I1
I2
I2
I2
I-2
I-2
I-1
I-1
I-1
I-2
I-2
I-2
I1
I1
I0
I1
I-2
I-2
I-2
I-2
I-1
I-2
I-1
I-2
I-2
I-1
I-1
I-1
I2
I1
I1
I-1
I0
I-1
I-1
I-2
I-1
I1
I-1
I-1
I1
I-1
I-2
I-2
I-1
I-1
I-1
I0
I-1
I-2
I-2
I-2
I1
I1
I1
I-1
I-2
I-2
I-2
I-2
I-1
I-2
I-1
I-2
I-2
I-2
I-2
I2
I-1
I-2
I1
I0
I1
I-2
I-2
I1
I-1
I1
I-1
I-2
I-2
I-2
I-2
I2
I2
I-1
I2
I-1
I-2
I-1
I1
I2
I1
I1
I1
I1
I-1
I1
I1
I0
I1
I1
I-1
I1
I1
I1
I-1
I-1
I0
I-1
I-1
I-1
I0
I-2
I-2
I1
I1
I1
I1
I-2
I-1
I-2
I-2
I2
I2
I1
I2
I-1
I1
I-1
I-2
I2
I2
I1
I-1
I-1
I2
I2
I-2
I2
I2
I2
I2
I1
I2
I1
I1
I-1
I2
I-1
I-1
I-1
I-2
I0
I-1
I-1
I0
I0
I-2
I1
I2
I1
I2
I-1
I2
I2
I-1
I1
I-2
I2
I1
I1
I2
I-1
I2
I1
I1
tp4
sS'70dff47879a1dc5c.jpg'
p5
(I2
I0
I2
I-2
I0
I-2
I1
I1
I0
I1
I1
I1
I2
I-1
I-1
I0
I1
I2
I1
I1
I2
I2
I2
I-1
I0
I2
I1
I-1
I0
I-1
I1
I-1
I-1
I1
I-2
I1
I0
I-2
I2
I2
I1
I0
I2
I2
I-1
I1
I-2
I-1
I-1
I-2
I1
I-2
I-2
I2
I-1
I-1
I0
I-1
I1
I-2
I2
I2
I-2
I-1
I-2
I-1
I2
I1
I1
I2
I-2
I-2
I-2
I-2
I-2
I-1
I-1
I-1
I-2
I-1
I-1
I2
I-2
I2
I1
I-1
I1
I1
I-1
I2
I-1
I2
I1
I-2
I1
I0
I-2
I1
I-2
I2
I-1
I-2
I2
I-1
I2
I1
I-1
I1
I2
I2
I1
I2
I-1
I2
I2
I-2
I2
I-1
I1
I1
I-2
I-2
I-1
I-2
I0
I-2
I-2
I-2
I-2
I-1
I1
I0
I1
I-2
I-2
I-2
I-2
I1
I-2
I-1
I-1
I-2
I-2
I-2
I1
I-1
I-2
I1
I-1
I-2
I-2
I-2
I1
I-1
I-2
I1
I-2
I-1
I-2
I-2
I2
I1
I-1
I2
I-2
I1
I1
I-2
I2
I1
I2
I2
I1
I-1
I1
I2
I1
I2
I-2
I-1
I2
I-2
I1
I-1
I0
I1
I-1
I2
I2
I-1
I-1
I-1
I0
I1
I2
I2
I2
I1
I0
I0
I1
I1
I2
I2
I2
I0
I1
I2
I2
I2
I2
I2
I1
I-1
I-1
I1
I1
I-1
I2
I2
I-1
I1
I-1
I2
I1
I2
I2
I-1
I-2
I1
I-2
I1
I2
I-2
I2
I-1
I2
I2
I-1
I-1
I1
I1
I-1
I1
I-2
I0
I1
I-1
I1
I-2
I1
I2
I-1
I0
I0
I-1
I1
I0
I2
I2
I-1
I-2
I-2
I-1
I0
I1
I1
I2
I-1
I-2
I-1
I0
I0
I1
I2
I2
I-2
I-1
I-2
I0
I-2
I2
I2
I-1
I1
I-1
I-1
I2
I1
I2
I1
I0
I-2
I-2
I-2
I-1
I-2
I-1
I-1
I-2
I2
I1
I2
I2
I2
I1
I2
I2
I0
I0
I-1
I-1
I0
I-2
I2
I-2
I-2
I2
I-2
I-2
I-1
I-2
I-1
I-2
I1
I0
I-2
I-1
I-1
I1
I2
I1
I1
I1
I-2
I-2
I-2
I-2
I0
I-1
I-1
I0
I-2
I-2
I-2
I0
I-2
I-1
I0
I-2
I1
I-1
I1
I2
I-1
I2
I-1
I-1
I0
I1
I-2
I1
I-2
I0
I-1
I-2
I2
I-2
I2
I1
I-2
I0
I2
I0
I1
I2
I0
I2
I2
I0
I2
I1
I2
I2
I-2
I-1
I-1
I-2
I0
I-2
I-2
I-2
I0
I-1
I1
I0
I0
I-2
I-2
I-2
I-1
I1
I1
I0
I1
I-2
I-2
I-2
I0
I0
I-2
I-1
I-2
I-2
I-2
I-2
I2
I1
I0
I2
I-1
I1
I0
I-1
I1
I1
I-1
I1
I-2
I1
I1
I-1
I2
I2
I2
I2
I2
I-1
I-1
I1
I1
I1
I-2
I-2
I2
I-1
I0
I0
I-1
I1
I-2
I2
I2
I0
I1
I-1
I1
I2
I2
I2
I2
I-1
I-1
I0
I2
I2
I2
I2
I2
I1
I1
I2
I2
I2
I2
I2
I-1
I-1
I-1
I2
I1
I-1
I2
I0
I-1
I1
I-1
I1
I-1
I1
I1
I-1
I-2
I1
I-2
I1
I1
I-2
I1
I-2
I2
I2
I-1
I-1
I0
I-1
I-1
I1
I1
I1
I1
I-1
I-1
I0
I-1
I1
I-2
I-2
I-2
I-1
I1
I-2
I-2
I-2
I-1
I-1
I-2
I-1
I-2
I1
I-2
I1
I1
I-1
I2
I1
I-1
I-1
I-2
I-1
I-2
I2
I1
I2
tp6
sS'9e33fc7725cd225f.jpg'
p7
(I2
I-1
I1
I-2
I-1
I-2
I-2
I-2
I1
I-1
I-2
I-2
I-2
I1
I1
I-2
I-1
I-1
I-1
I1
I-2
I-1
I-1
I-1
I-1
I-2
I-2
I-2
I1
I-2
I-1
I-2
I-2
I2
I1
I2
I-1
I-1
I-1
I-1
I-1
I1
I2
I2
I1
I1
I-1
I2
I2
I-2
I-1
I-1
I-1
I-2
I2
I2
I2
I1
I1
I0
I-1
I-1
I2
I1
I2
I-1
I1
I-2
I-2
I1
I1
I1
I2
I-1
I1
I-2
I-1
I-1
I1
I2
I1
I-1
I-1
I-1
I-1
I-2
I2
I2
I-2
I1
I-2
I-1
I-2
I-2
I2
I1
I1
I2
I-1
I2
I-2
I1
I1
I1
I1
I-2
I1
I-1
I1
I-1
I0
I2
I-1
I1
I0
I1
I-1
I1
I2
I2
I2
I1
I2
I1
I1
I2
I2
I2
I1
I2
I2
I-1
I2
I2
I2
I2
I-1
I1
I1
I-2
I-1
I1
I2
I2
I1
I1
I1
I1
I-1
I2
I2
I2
I2
I2
I-2
I1
I-2
I2
I2
I1
I2
I2
I2
I2
I2
I2
I2
I2
I-1
I-1
I-2
I2
I1
I0
I-1
I2
I-2
I1
I-2
I-2
I-2
I-2
I-1
I-2
I-1
I0
I-2
I-2
I-2
I1
I1
I-1
I1
I-1
I-2
I-2
I-1
I-1
I2
I1
I-1
I0
I-2
I-2
I-2
I-2
I-2
I-2
I-2
I-1
I-2
I-2
I-2
I2
I1
I-1
I1
I1
I-2
I-2
I-2
I-1
I-2
I-1
I-1
I-2
I-1
I-2
I-2
I2
I-1
I2
I-2
I-2
I-2
I-1
I1
I-1
I-1
I2
I2
I2
I1
I2
I-1
I1
I1
I-2
I1
I-2
I-2
I-2
I0
I-1
I-1
I-1
I-1
I-2
I-2
I-2
I1
I1
I2
I1
I1
I-2
I-2
I-1
I0
I2
I1
I-1
I2
I-2
I-1
I-1
I1
I-1
I1
I-2
I-1
I-2
I-2
I-2
I-1
I1
I-2
I1
I-2
I-2
I-2
I-2
I2
I2
I1
I2
I0
I1
I-2
I-1
I2
I1
I0
I-2
I-1
I-2
I2
I1
I2
I0
I-2
I2
I2
I-1
I-1
I1
I-1
I1
I2
I2
I2
I1
I1
I0
I1
I2
I2
I2
I2
I-1
I1
I1
I1
I1
I1
I1
I2
I-1
I0
I1
I1
I1
I1
I2
I2
I0
I-1
I0
I1
I-1
I2
I2
I-1
I1
I-2
I1
I1
I-2
I2
I2
I2
I2
I1
I2
I-1
I2
I1
I1
I-1
I-1
I2
I-2
I-1
I-2
I0
I2
I0
I1
I0
I2
I1
I1
I2
I2
I-1
I-1
I-1
I-1
I1
I2
I2
I2
I-2
I-1
I-1
I-1
I0
I1
I1
I2
I-1
I-1
I0
I0
I1
I1
I2
I2
I-1
I-1
I-1
I-1
I-1
I2
I2
I2
I1
I-1
I-2
I1
I-2
I2
I2
I1
I2
I1
I1
I2
I2
I2
I2
I2
I-2
I-2
I-2
I-1
I-2
I0
I-1
I2
I-2
I1
I-2
I-2
I-2
I-2
I-1
I-2
I-2
I-2
I-2
I-2
I-1
I1
I0
I-1
I-1
I-1
I-2
I-1
I-1
I0
I2
I-1
I-1
I1
I-2
I-2
I-2
I-2
I0
I-2
I-1
I-1
I-2
I-2
I-2
I0
I1
I-1
I0
I-1
I-2
I-2
I-2
I-1
I-2
I-1
I-2
I-2
I-1
I-2
I1
I2
I-2
I2
I-2
I-2
I-2
I2
I1
I-1
I-2
I2
I2
I2
I-1
I2
I1
I-2
I1
I2
I1
I1
I-1
I-1
I1
I1
I2
I1
I1
I-1
I1
I1
I-1
I1
I1
I0
I1
I-1
I-1
I1
I2
I-2
I1
I-2
I2
I2
I1
I2
I-1
I2
I2
I1
tp8
sS'6bc183d727a7657d.jpg'
p9
(I1
I1
I1
I-1
I-1
I1
I-1
I-1
I1
I2
I0
I1
I2
I-2
I0
I-2
I2
I-2
I0
I-2
I2
I-2
I-1
I2
I0
I-2
I1
I1
I0
I-1
I1
I1
I-2
I1
I1
I1
I-1
I-1
I-1
I-2
I-1
I-2
I-1
I-1
I1
I2
I-1
I1
I0
I1
I1
I2
I2
I2
I1
I-1
I2
I-1
I2
I2
I2
I2
I-2
I-2
I-2
I-2
I-2
I-1
I-2
I-2
I2
I2
I2
I2
I2
I2
I2
I2
I1
I-1
I-1
I-2
I-1
I1
I0
I1
I-1
I-1
I-1
I1
I-2
I1
I2
I1
I2
I1
I2
I2
I1
I2
I2
I2
I1
I1
I-1
I2
I2
I-1
I-2
I1
I-2
I-2
I-2
I-2
I-2
I-1
I0
I-2
I-2
I-2
I-2
I-2
I1
I0
I-2
I-2
I-2
I-2
I-2
I2
I-2
I2
I1
I-2
I0
I-1
I2
I-2
I-1
I-1
I-1
I-1
I-1
I-2
I-2
I0
I-1
I1
I1
I-1
I-2
I-1
I-1
I-2
I-2
I-1
I-1
I-2
I-2
I-1
I-1
I-2
I-2
I1
I2
I-1
I-1
I-1
I-2
I-2
I-2
I-2
I-2
I2
I2
I1
I2
I1
I2
I2
I2
I-1
I-1
I2
I1
I1
I2
I2
I2
I1
I2
I1
I1
I2
I2
I0
I1
I-2
I-1
I-1
I2
I-2
I1
I1
I1
I1
I-2
I2
I-2
I0
I2
I2
I2
I2
I2
I0
I2
I2
I1
I2
I1
I-2
I1
I1
I2
I-1
I1
I1
I2
I-1
I-1
I1
I-1
I-1
I1
I2
I1
I-1
I0
I-2
I-2
I-2
I-2
I-2
I-1
I-1
I-1
I2
I-1
I-1
I1
I1
I-1
I-1
I1
I1
I2
I1
I1
I2
I-2
I-2
I-2
I-2
I-2
I-2
I-2
I-2
I2
I2
I0
I2
I2
I2
I2
I2
I0
I-2
I-1
I-2
I1
I1
I1
I1
I-2
I-2
I-1
I-1
I-2
I0
I-1
I-2
I1
I1
I1
I2
I1
I1
I-1
I2
I1
I0
I-1
I-1
I2
I2
I1
I1
I1
I1
I2
I-1
I-1
I-1
I1
I-1
I-1
I-1
I-1
I-1
I2
I-1
I1
I-1
I-2
I1
I-2
I2
I-2
I-1
I-1
I-2
I0
I-1
I2
I-2
I-1
I1
I1
I1
I1
I-2
I-2
I-1
I0
I-1
I-1
I-1
I-2
I-2
I-1
I1
I-1
I1
I-1
I-2
I-1
I0
I2
I1
I1
I1
I2
I1
I1
I1
I-2
I-2
I-2
I-1
I-1
I-1
I1
I1
I2
I2
I-1
I1
I1
I-1
I-1
I2
I2
I2
I1
I2
I2
I1
I2
I2
I2
I2
I-1
I0
I-1
I-2
I-1
I1
I1
I-2
I1
I-1
I1
I1
I-2
I1
I-2
I-1
I2
I2
I2
I2
I1
I1
I2
I2
I2
I1
I-1
I-1
I1
I1
I2
I2
I0
I-1
I1
I-1
I0
I2
I1
I1
I-1
I1
I0
I1
I1
I-2
I-2
I-2
I-2
I-2
I-2
I-2
I-2
I2
I1
I-2
I-1
I-2
I-2
I-2
I-1
I-1
I-1
I-2
I-2
I-2
I-2
I-1
I-1
I1
I-2
I-2
I-1
I-1
I2
I2
I-1
I2
I1
I2
I2
I2
I1
I-2
I-1
I-1
I2
I1
I2
I-1
I-2
I-2
I-2
I-2
I-1
I0
I-2
I-2
I-2
I-1
I-1
I1
I-1
I-2
I-2
I-1
I-1
I-1
I1
I-2
I1
I2
I2
I2
I2
I1
I2
I-2
I-1
I2
I2
I2
I1
I1
I2
I1
I-2
I-1
I0
I1
I-2
I-1
I0
I2
I-2
I-2
I0
I-2
I-2
I1
I2
I2
I2
I1
I2
I2
I2
I-1
I2
I1
I-1
I-2
tp10
sS'eaa8fcddef7dafc5.jpg'
p11
(I-1
I-1
I1
I1
I2
I0
I2
I2
I-2
I1
I-1
I1
I0
I-1
I1
I1
I-1
I-1
I-1
I-1
I-1
I-1
I0
I1
I-2
I-1
I1
I1
I2
I1
I2
I2
I1
I-1
I2
I2
I-1
I2
I-2
I-2
I-2
I1
I0
I2
I-1
I0
I-1
I-2
I1
I-2
I2
I-2
I-2
I1
I-2
I-1
I-1
I-2
I-1
I-2
I-1
I0
I0
I1
I1
I1
I-1
I0
I1
I2
I1
I1
I1
I1
I1
I1
I2
I2
I0
I-1
I-2
I-1
I1
I1
I1
I1
I-1
I-2
I-2
I-1
I-2
I-1
I-1
I1
I-1
I1
I2
I2
I2
I2
I2
I2
I-2
I2
I-2
I1
I0
I1
I2
I1
I-2
I2
I0
I2
I2
I-1
I2
I-2
I2
I1
I-1
I1
I0
I-2
I1
I-1
I-1
I-2
I0
I-1
I-1
I-1
I2
I-2
I-2
I-2
I-2
I-2
I-1
I-2
I-1
I-2
I-2
I-2
I-2
I-1
I1
I1
I0
I-2
I-2
I-2
I-1
I1
I-2
I0
I1
I-2
I-2
I1
I-1
I-2
I-1
I-1
I-1
I-2
I1
I2
I-2
I0
I1
I1
I2
I2
I2
I2
I2
I2
I-2
I-2
I1
I-2
I-1
I-1
I-2
I1
I-1
I1
I2
I1
I0
I-1
I1
I2
I2
I2
I2
I0
I1
I1
I2
I2
I2
I2
I2
I-1
I-1
I1
I2
I1
I2
I2
I2
I1
I-1
I2
I2
I1
I2
I2
I2
I1
I2
I2
I2
I1
I-1
I-1
I-1
I-2
I2
I-2
I-2
I1
I-2
I-2
I-2
I-2
I-2
I-2
I1
I-1
I-1
I1
I-2
I2
I1
I1
I2
I0
I1
I2
I-1
I-1
I-1
I-2
I1
I-1
I1
I1
I-2
I-2
I-1
I-1
I1
I1
I0
I-1
I-2
I-2
I-2
I-1
I-1
I-1
I-1
I1
I-1
I-2
I-2
I1
I-1
I0
I2
I2
I-1
I-2
I2
I1
I-2
I2
I2
I2
I-1
I2
I2
I2
I2
I2
I2
I2
I-1
I2
I-2
I-2
I-2
I1
I0
I1
I-2
I2
I-1
I-1
I1
I-1
I2
I-2
I1
I2
I-2
I-1
I-1
I-2
I-1
I-2
I1
I0
I-1
I0
I1
I1
I-1
I1
I1
I1
I1
I1
I0
I1
I2
I1
I1
I1
I-1
I-2
I-2
I-2
I1
I-1
I-1
I-1
I-2
I-2
I-2
I-1
I-1
I-2
I-2
I0
I-2
I-2
I2
I1
I0
I-1
I1
I2
I-2
I2
I0
I1
I2
I2
I2
I2
I1
I2
I-2
I-1
I2
I-2
I2
I-2
I-1
I-1
I-2
I-1
I-1
I-2
I0
I-2
I-2
I-2
I0
I-1
I-1
I0
I1
I-2
I-2
I-2
I-1
I-2
I1
I-1
I-1
I-2
I-2
I-2
I-1
I1
I2
I1
I-1
I-2
I-1
I-2
I1
I2
I1
I1
I2
I-1
I-2
I1
I0
I-1
I-1
I-2
I1
I-2
I-2
I2
I-2
I-2
I-1
I-2
I2
I-1
I2
I2
I2
I2
I-2
I1
I2
I-2
I0
I0
I-1
I1
I1
I2
I2
I0
I1
I-1
I1
I2
I2
I2
I2
I-1
I-1
I0
I1
I1
I2
I2
I2
I1
I1
I1
I1
I1
I2
I1
I1
I-1
I-2
I1
I0
I1
I2
I2
I2
I2
I2
I2
I2
I-1
I-1
I2
I2
I-2
I2
I-1
I-2
I2
I-2
I-2
I-2
I-2
I-2
I-2
I0
I-1
I-2
I1
I1
I1
I1
I-1
I-1
I0
I-1
I1
I-2
I-1
I-1
I-1
I0
I-1
I-1
I-1
I0
I-1
I-1
I0
I-2
I1
I1
I-1
I-2
I1
I-1
I-2
I1
I2
I2
I2
I2
I-2
I2
I-2
tp12
sS'135f019d183da37c.jpg'
p13
(I1
I1
I2
I-1
I-1
I1
I2
I2
I1
I-1
I2
I2
I-2
I1
I1
I2
I-1
I-2
I-1
I1
I-2
I-2
I0
I-1
I2
I-2
I-1
I1
I-2
I0
I-2
I-1
I1
I0
I1
I-1
I1
I-1
I-1
I1
I-1
I-1
I-1
I1
I0
I1
I-2
I-2
I-2
I-1
I-1
I-1
I1
I1
I-2
I-2
I-2
I1
I-2
I1
I1
I-2
I2
I1
I2
I2
I-1
I2
I2
I-1
I2
I2
I2
I1
I2
I2
I1
I2
I0
I1
I2
I-2
I1
I-2
I1
I1
I-1
I1
I1
I-1
I2
I-1
I1
I-1
I-1
I-1
I-1
I-2
I-2
I-2
I-2
I-2
I1
I1
I2
I-1
I-2
I0
I1
I1
I-1
I-1
I-1
I-1
I-1
I-1
I1
I-2
I-2
I-2
I-1
I-1
I-2
I-1
I-2
I-2
I-2
I-2
I2
I-2
I-2
I2
I-2
I-1
I-2
I1
I1
I-1
I2
I2
I2
I1
I2
I2
I-2
I-1
I1
I-2
I1
I1
I2
I2
I-1
I-1
I2
I-1
I-1
I1
I2
I2
I1
I2
I1
I1
I-2
I2
I2
I2
I2
I2
I2
I2
I2
I1
I2
I-1
I1
I1
I1
I2
I2
I1
I-1
I1
I2
I1
I2
I2
I1
I1
I-1
I2
I2
I1
I2
I2
I-1
I1
I2
I2
I1
I-2
I-1
I-2
I-1
I-2
I1
I-2
I-2
I-2
I-2
I-2
I-1
I-1
I2
I-2
I-2
I-2
I-2
I-2
I-2
I-2
I1
I-2
I-2
I-1
I-2
I-2
I-2
I-1
I-1
I-2
I-1
I-2
I-2
I-2
I1
I1
I-1
I-1
I-1
I1
I-1
I1
I-1
I-2
I-2
I-1
I-1
I-1
I-1
I1
I-1
I-2
I-2
I1
I-2
I1
I1
I-1
I-1
I-1
I2
I2
I-2
I2
I1
I-1
I2
I2
I2
I2
I2
I2
I2
I2
I2
I2
I2
I-2
I1
I-1
I1
I2
I2
I2
I2
I-1
I2
I1
I2
I1
I1
I1
I-1
I-2
I-1
I-2
I-2
I-2
I2
I1
I1
I-2
I-2
I1
I1
I1
I-1
I-1
I-1
I1
I-1
I-1
I1
I-1
I-2
I-2
I-1
I-1
I-2
I-1
I-2
I-2
I-2
I-2
I1
I-1
I-2
I2
I-2
I-1
I-2
I1
I1
I-2
I1
I2
I1
I-1
I2
I2
I-2
I-1
I-1
I-1
I2
I2
I2
I2
I-2
I-2
I2
I-2
I-2
I1
I2
I2
I-1
I2
I2
I2
I-1
I2
I2
I2
I2
I2
I1
I2
I2
I1
I1
I-1
I-1
I1
I1
I2
I2
I1
I-1
I1
I1
I1
I2
I2
I1
I1
I-1
I2
I2
I2
I2
I2
I1
I1
I2
I2
I2
I-2
I-1
I-2
I-2
I-2
I1
I-1
I-2
I-2
I-2
I-2
I-1
I-1
I1
I-2
I-2
I-2
I-2
I-2
I-2
I-1
I1
I-2
I-2
I-1
I-2
I-2
I-2
I-1
I-1
I-2
I-2
I-2
I-2
I-2
I1
I-1
I-2
I1
I-1
I1
I1
I1
I-1
I-1
I-2
I-1
I-1
I-1
I1
I1
I-1
I-2
I-2
I1
I-1
I1
I1
I-2
I-2
I-2
I1
I1
I-2
I1
I-1
I-2
I2
I2
I2
I2
I2
I2
I2
I2
I2
I2
I2
I-2
I1
I-1
I1
I2
I2
I2
I2
I-1
I2
I1
I1
I-1
I1
I1
I1
I-2
I-1
I-1
I-2
I-1
I2
I2
I1
I-2
I1
I-1
I1
I1
I-1
I-1
I-1
I-1
I0
I-1
I-1
I-1
I0
I-2
I1
I1
I-2
I2
I-1
I2
I-2
I1
I1
I1
I-2
I-1
I-1
I-1
I1
I-2
I-1
I1
I-1
I-2
I1
I2
I2
I2
I2
I1
I-1
I-2
tp14
sS'579edb29929135cd.jpg'
p15
(I-2
I-2
I-2
I2
I-1
I-1
I0
I-2
I1
I1
I1
I-2
I0
I-1
I1
I-2
I-1
I-2
I-1
I-1
I-2
I-2
I-2
I1
I-1
I-1
I-2
I-2
I1
I0
I-1
I-2
I-2
I0
I-1
I-2
I-2
I-1
I1
I-1
I1
I2
I1
I1
I0
I-1
I2
I0
I-1
I-1
I-2
I-1
I-1
I-2
I2
I2
I2
I2
I2
I1
I-1
I-2
I0
I1
I2
I-2
I-1
I-2
I-2
I-2
I1
I2
I1
I1
I-1
I-2
I-2
I-2
I2
I2
I1
I1
I-1
I-1
I-2
I-1
I2
I2
I2
I1
I1
I-2
I1
I2
I2
I2
I1
I-1
I1
I-1
I1
I1
I1
I-1
I-1
I0
I-1
I0
I1
I0
I2
I1
I1
I1
I-1
I0
I-2
I2
I1
I-1
I2
I1
I2
I2
I0
I2
I2
I0
I1
I2
I2
I0
I1
I2
I0
I2
I2
I2
I1
I-1
I-2
I-1
I2
I2
I2
I2
I2
I2
I2
I2
I2
I2
I1
I-1
I1
I-2
I2
I2
I1
I2
I-2
I-1
I0
I-2
I-1
I-1
I1
I2
I-1
I1
I1
I2
I2
I-2
I-2
I-2
I1
I-2
I-1
I-1
I-2
I2
I-2
I2
I1
I1
I1
I-2
I-2
I2
I-2
I2
I2
I2
I0
I0
I1
I2
I2
I2
I2
I2
I-2
I-2
I-2
I-2
I-1
I-1
I-2
I-1
I-2
I-2
I-2
I1
I-1
I-1
I0
I1
I-2
I-1
I1
I1
I2
I1
I1
I1
I-2
I-1
I-2
I-2
I1
I-1
I-1
I-1
I-2
I-2
I-1
I-2
I-2
I-1
I-2
I-2
I-2
I-2
I2
I-1
I-2
I2
I0
I-1
I-2
I-2
I-1
I-2
I-2
I0
I0
I-2
I-2
I-2
I-2
I-2
I1
I0
I-2
I-2
I-2
I-1
I-2
I2
I1
I2
I1
I-1
I1
I-1
I1
I0
I-1
I-1
I1
I0
I-1
I-2
I-1
I-1
I1
I-1
I-1
I-1
I-2
I-1
I-1
I1
I2
I1
I0
I-2
I-1
I0
I1
I2
I0
I-1
I0
I2
I1
I-2
I1
I1
I2
I2
I2
I2
I-1
I2
I2
I-1
I2
I2
I2
I1
I1
I2
I-1
I-1
I2
I2
I1
I-1
I2
I-1
I-2
I-1
I1
I-1
I0
I-2
I-1
I-2
I-2
I-2
I1
I1
I1
I1
I-1
I-1
I-1
I2
I2
I2
I2
I1
I1
I0
I2
I2
I1
I1
I1
I-1
I1
I2
I2
I1
I0
I0
I-1
I2
I1
I-1
I-2
I0
I2
I-1
I-1
I-2
I-2
I0
I-2
I2
I-1
I-2
I1
I1
I1
I2
I-1
I2
I2
I1
I1
I2
I2
I1
I1
I2
I1
I2
I1
I2
I1
I-1
I0
I-1
I2
I2
I2
I1
I0
I0
I2
I2
I2
I1
I-2
I-2
I-2
I-2
I1
I-1
I-2
I-1
I-2
I-2
I-2
I-1
I-2
I-2
I-2
I-1
I-1
I-1
I2
I0
I1
I-2
I-2
I-2
I-2
I-2
I1
I1
I-2
I2
I-1
I2
I2
I-1
I2
I-2
I-2
I1
I-1
I2
I1
I1
I-1
I-1
I1
I1
I2
I1
I2
I1
I-2
I-2
I-2
I-2
I-2
I-2
I-2
I-2
I-2
I-2
I1
I2
I-1
I-1
I0
I-1
I-1
I2
I2
I1
I1
I1
I0
I-1
I1
I2
I0
I-1
I1
I-1
I-2
I-1
I1
I-1
I-1
I-2
I-1
I2
I-2
I-1
I2
I-2
I-2
I1
I-2
I1
I-1
I-1
I2
I1
I-1
I-2
I2
I-1
I-1
I-1
I2
I1
I1
I1
I2
I0
I-1
I-1
I-1
I1
I0
I1
I1
I-1
I1
I2
I2
I1
I1
I1
I1
I-1
tp16
sS'31ee48505dbbe0e2.jpg'
p17
(I-2
I1
I-1
I2
I-1
I2
I2
I-1
I1
I0
I2
I-1
I-1
I0
I1
I-1
I-1
I1
I-1
I1
I-1
I0
I0
I-1
I1
I-1
I-1
I2
I-1
I2
I-2
I1
I1
I-2
I2
I-2
I-2
I-2
I-2
I-2
I-2
I-1
I-2
I-2
I0
I-1
I1
I-2
I-2
I2
I-2
I2
I1
I1
I1
I1
I1
I2
I0
I2
I2
I1
I1
I1
I1
I0
I1
I2
I1
I1
I-1
I0
I1
I-1
I0
I1
I1
I1
I0
I1
I2
I0
I2
I1
I1
I1
I-2
I-1
I2
I-2
I-1
I-2
I-2
I-1
I-1
I2
I2
I1
I0
I-1
I1
I1
I2
I2
I0
I0
I1
I0
I-2
I-1
I2
I0
I1
I-1
I-2
I1
I-1
I2
I1
I1
I-1
I-2
I-2
I1
I-1
I1
I1
I1
I-1
I-1
I-1
I1
I0
I2
I2
I2
I-1
I-1
I-1
I0
I-1
I2
I2
I2
I-1
I-1
I2
I1
I1
I2
I2
I2
I-1
I2
I1
I-1
I1
I2
I2
I2
I1
I-1
I0
I-1
I1
I1
I1
I2
I-1
I-1
I-1
I1
I2
I-2
I-2
I-2
I-2
I-2
I0
I-1
I-1
I2
I0
I-1
I-2
I-2
I-1
I-1
I-2
I0
I1
I-2
I-2
I-2
I-1
I-2
I-2
I-1
I1
I-2
I-2
I-2
I-2
I-2
I-2
I-1
I-1
I-2
I-2
I-2
I-2
I-2
I-2
I1
I-1
I-2
I-2
I-2
I-2
I-2
I-1
I1
I1
I-2
I-2
I2
I-2
I-1
I-1
I-1
I2
I-2
I1
I2
I-2
I-2
I-2
I-2
I-2
I2
I1
I-2
I0
I-1
I2
I2
I2
I2
I-1
I2
I2
I1
I2
I2
I2
I1
I-1
I2
I2
I1
I2
I2
I2
I1
I1
I2
I2
I2
I2
I2
I2
I-1
I-1
I1
I1
I2
I2
I2
I2
I1
I1
I2
I2
I2
I2
I2
I2
I-1
I2
I2
I2
I2
I-2
I-1
I2
I-2
I1
I-2
I-2
I-2
I-2
I2
I-1
I-2
I-2
I0
I-2
I-1
I1
I1
I1
I-2
I-2
I1
I-1
I2
I2
I1
I-1
I-2
I-2
I1
I-1
I2
I1
I1
I-1
I-2
I-1
I1
I-1
I1
I1
I2
I-2
I-1
I-2
I1
I1
I1
I2
I2
I-2
I-2
I-2
I-1
I1
I1
I1
I-1
I-2
I-2
I2
I-1
I0
I0
I-1
I1
I-2
I2
I2
I0
I0
I-1
I1
I2
I2
I2
I0
I1
I2
I-2
I-2
I-1
I-1
I-2
I-1
I-2
I-2
I1
I-1
I1
I-1
I-1
I-1
I-1
I-1
I1
I-1
I0
I1
I1
I-1
I-1
I-1
I1
I1
I1
I2
I2
I-2
I-2
I-1
I-1
I-1
I1
I1
I1
I-2
I-1
I0
I1
I-1
I2
I1
I1
I1
I1
I1
I1
I2
I2
I1
I2
I-1
I-1
I-1
I-2
I1
I-1
I1
I2
I-2
I-2
I-1
I-1
I2
I1
I-1
I-2
I-1
I-2
I2
I1
I0
I2
I1
I1
I-2
I-2
I1
I-1
I-1
I-1
I1
I-2
I-2
I-2
I-1
I-2
I-1
I-1
I1
I-2
I-2
I-2
I-2
I-1
I-2
I-1
I-1
I-2
I-2
I-2
I-1
I-1
I-2
I1
I0
I-2
I-2
I-2
I-1
I-2
I1
I0
I1
I-2
I-2
I0
I-2
I-1
I1
I-1
I2
I-2
I-1
I-1
I-2
I-2
I-2
I-2
I-2
I1
I-1
I-2
I2
I2
I2
I2
I-1
I2
I2
I2
I1
I-1
I2
I2
I2
I1
I2
I2
I2
I2
I-2
I-1
I2
I2
I2
I1
I1
I2
I2
I2
I-1
I2
I0
I1
I2
I-2
I1
I1
I2
I-1
tp18
sS'1a0218f9c4c52127.jpg'
p19
(I1
I1
I-1
I-1
I-2
I-1
I-2
I0
I2
I-2
I0
I2
I2
I2
I2
I2
I2
I2
I-2
I0
I1
I1
I1
I0
I1
I1
I1
I0
I-1
I-1
I-1
I-1
I-2
I1
I-2
I1
I-2
I-2
I2
I1
I0
I-1
I1
I-2
I1
I1
I1
I2
I0
I2
I2
I2
I2
I2
I0
I-2
I-2
I-2
I2
I-1
I2
I0
I-2
I-2
I-1
I-2
I1
I0
I-2
I-2
I-2
I-1
I-1
I-1
I-1
I-2
I-2
I-2
I-1
I-1
I1
I1
I-1
I-1
I-2
I-1
I0
I1
I-1
I1
I-2
I-2
I0
I-2
I2
I2
I-1
I2
I-1
I2
I1
I1
I2
I0
I1
I1
I1
I-1
I-2
I0
I-1
I-1
I-1
I-2
I1
I0
I2
I-1
I-1
I-1
I-2
I-2
I0
I-2
I-2
I-2
I-2
I-2
I0
I2
I2
I2
I1
I-1
I-2
I-2
I2
I2
I1
I-1
I-1
I-2
I-2
I-1
I2
I2
I2
I1
I2
I-1
I1
I2
I1
I0
I-2
I-2
I-2
I-1
I-1
I-2
I2
I-1
I-1
I2
I0
I1
I-1
I-1
I-1
I-1
I0
I-1
I-1
I1
I1
I0
I0
I1
I1
I1
I2
I0
I1
I0
I1
I-1
I1
I2
I1
I-1
I-2
I-1
I-2
I-2
I2
I2
I2
I2
I1
I1
I-1
I2
I2
I2
I1
I-1
I2
I-1
I2
I2
I1
I-1
I1
I-2
I1
I2
I2
I2
I-2
I1
I-1
I-1
I-2
I1
I2
I-1
I2
I1
I1
I2
I-1
I2
I1
I-1
I1
I1
I1
I2
I0
I0
I0
I1
I2
I0
I-1
I-1
I1
I-1
I-1
I2
I-1
I2
I1
I2
I-1
I1
I-1
I1
I2
I2
I2
I1
I1
I1
I2
I2
I2
I2
I-2
I-2
I-2
I-2
I0
I1
I1
I-1
I-2
I-2
I-1
I0
I2
I1
I0
I-1
I-2
I-2
I-2
I-2
I-2
I-2
I-2
I-2
I1
I-2
I-2
I2
I-2
I1
I-2
I-2
I1
I0
I2
I1
I0
I-2
I-2
I-2
I-1
I-1
I0
I1
I-1
I2
I2
I1
I1
I2
I-2
I-2
I-2
I-2
I1
I-2
I1
I-2
I-2
I-2
I-1
I-1
I0
I1
I-2
I-2
I-2
I-1
I-1
I0
I-1
I-2
I-2
I-2
I1
I0
I2
I1
I-1
I-2
I-2
I-2
I1
I2
I-1
I1
I-2
I-2
I-1
I-1
I2
I2
I-1
I2
I-1
I1
I1
I0
I2
I0
I1
I1
I1
I1
I-1
I-1
I-2
I-1
I1
I-1
I2
I1
I2
I-2
I-1
I-1
I-2
I-1
I-1
I-2
I-2
I-2
I-2
I-2
I2
I2
I2
I2
I-1
I-1
I-2
I-1
I2
I2
I2
I1
I-1
I-2
I1
I1
I2
I2
I2
I1
I2
I1
I2
I2
I2
I1
I-1
I-2
I-1
I1
I2
I1
I1
I-1
I-1
I1
I-1
I2
I1
I-1
I0
I-1
I1
I1
I-1
I2
I2
I1
I1
I1
I1
I1
I2
I-1
I-1
I-1
I-1
I-2
I1
I2
I1
I1
I-2
I-1
I-1
I2
I2
I2
I2
I2
I2
I1
I2
I2
I1
I-1
I-1
I-2
I1
I1
I2
I2
I-1
I-2
I-1
I-1
I2
I2
I2
I2
I-2
I-2
I-2
I-2
I-2
I1
I1
I-2
I-1
I-1
I-1
I2
I-2
I2
I-1
I-2
I1
I1
I2
I2
I0
I-1
I1
I-1
I-1
I1
I1
I1
I-1
I2
I1
I-1
I1
I2
I-2
I-2
I-1
I-2
I2
I-2
I-2
I-2
I-2
I-1
I-2
I-2
I-1
I1
I1
I-2
I-1
I-2
I-1
I-2
I2
I1
I-2
I2
I-2
I2
I0
I2
tp20
sS'6795fe6ad2255693.jpg'
p21
(I1
I1
I-1
I-1
I-1
I1
I-1
I-2
I1
I0
I1
I-1
I2
I0
I-1
I-1
I1
I-1
I1
I-2
I2
I0
I-1
I2
I-2
I2
I1
I-1
I2
I2
I2
I1
I1
I-2
I1
I-1
I-1
I-1
I-1
I-2
I-2
I-1
I-1
I-2
I-2
I1
I1
I1
I-1
I2
I-2
I-2
I2
I-2
I2
I1
I1
I2
I2
I2
I-1
I1
I-2
I-2
I-2
I-2
I-2
I-2
I-2
I-2
I1
I0
I-2
I2
I-1
I-1
I-1
I1
I1
I-1
I-2
I1
I-2
I1
I2
I-2
I1
I-1
I1
I2
I-1
I2
I0
I2
I-1
I1
I2
I1
I1
I1
I2
I2
I1
I2
I-1
I2
I2
I2
I2
I2
I2
I2
I-1
I-2
I-2
I-2
I-2
I-1
I-2
I-2
I2
I1
I2
I2
I1
I2
I1
I0
I-1
I2
I1
I-1
I0
I0
I-1
I-1
I2
I1
I-1
I0
I2
I-1
I-1
I2
I-1
I-2
I-2
I-2
I-2
I-2
I1
I-2
I2
I0
I-1
I2
I2
I2
I1
I1
I-2
I-2
I-2
I-2
I-1
I-1
I-2
I-1
I-2
I-2
I1
I-1
I-1
I-2
I1
I-1
I1
I1
I-2
I2
I-2
I1
I-1
I1
I1
I-1
I2
I-1
I0
I1
I-1
I2
I0
I2
I0
I1
I1
I1
I1
I1
I2
I2
I1
I1
I2
I-1
I2
I2
I2
I-1
I-2
I-1
I-2
I-2
I-2
I-1
I-2
I-2
I2
I-1
I1
I2
I-1
I-1
I-2
I-2
I-1
I2
I1
I1
I1
I-2
I-2
I0
I1
I1
I-1
I-2
I-1
I-1
I-1
I1
I1
I-1
I-1
I-1
I-2
I-1
I-2
I0
I-2
I-2
I1
I0
I-1
I2
I2
I1
I1
I2
I-2
I-2
I-2
I-2
I-1
I-1
I0
I-1
I-2
I-2
I1
I1
I-2
I1
I0
I-2
I1
I2
I1
I2
I-2
I2
I1
I-1
I2
I2
I2
I2
I1
I2
I2
I1
I2
I2
I2
I-1
I2
I1
I0
I2
I0
I1
I-2
I-2
I1
I-1
I0
I-2
I-1
I-1
I1
I2
I-1
I2
I-1
I1
I1
I-2
I2
I-1
I1
I1
I1
I2
I-2
I-2
I-2
I0
I-1
I-1
I-1
I-2
I-2
I-2
I1
I0
I-2
I1
I-2
I-2
I-2
I-1
I2
I-1
I-2
I2
I-2
I-1
I1
I-2
I1
I-2
I-1
I2
I-1
I2
I-1
I2
I-1
I0
I2
I1
I2
I1
I2
I2
I-2
I-1
I-2
I1
I0
I1
I-1
I1
I1
I1
I1
I-1
I-2
I-1
I-2
I0
I0
I-1
I2
I2
I2
I2
I0
I2
I2
I2
I2
I2
I2
I0
I0
I2
I2
I2
I2
I2
I1
I0
I1
I2
I2
I2
I1
I-1
I-2
I-2
I-2
I1
I1
I-2
I2
I1
I-1
I2
I2
I2
I1
I1
I-2
I-2
I-1
I-2
I-1
I-2
I-1
I-1
I-2
I0
I1
I0
I0
I-1
I0
I0
I1
I1
I-1
I0
I-2
I0
I-1
I1
I1
I-2
I1
I-2
I-2
I1
I1
I2
I-1
I1
I-2
I-2
I-2
I-1
I0
I-1
I1
I-1
I-2
I-2
I-1
I0
I-1
I1
I-1
I-2
I-2
I-1
I-2
I1
I-2
I-1
I-2
I-2
I2
I-1
I2
I2
I1
I1
I-1
I-2
I-1
I1
I0
I-1
I0
I-2
I-2
I-2
I1
I0
I0
I-2
I-2
I-1
I-1
I0
I-1
I-1
I-2
I0
I-2
I2
I1
I1
I2
I2
I-1
I-1
I-1
I-2
I-1
I1
I1
I1
I1
I-1
I2
I2
I-1
I1
I-2
I2
I1
I2
I2
I-1
I2
I2
I2
I1
I0
I2
I2
I0
tp22
sS'984517c25419b77f.jpg'
p23
(I2
I-2
I-1
I-2
I-1
I-2
I-2
I-2
I1
I-2
I-2
I-2
I-2
I2
I2
I1
I1
I-1
I-2
I2
I-1
I-2
I-2
I-2
I-2
I-2
I-2
I-2
I2
I-2
I-2
I-2
I-2
I2
I-2
I-1
I-2
I-2
I2
I2
I1
I2
I2
I1
I1
I-1
I1
I2
I2
I-1
I-1
I-1
I-1
I-2
I2
I2
I-1
I1
I0
I-1
I-1
I1
I2
I-1
I1
I0
I-1
I-1
I0
I-2
I1
I2
I2
I1
I-1
I1
I-2
I-1
I2
I2
I2
I1
I1
I-1
I1
I-1
I2
I2
I1
I-1
I-1
I0
I-1
I-2
I2
I1
I-2
I1
I-1
I-1
I-2
I1
I2
I-1
I1
I-1
I2
I-1
I1
I-1
I1
I-1
I1
I1
I1
I1
I0
I1
I0
I2
I2
I1
I1
I0
I1
I0
I2
I2
I-1
I0
I-1
I-1
I-2
I1
I1
I1
I2
I2
I1
I2
I1
I2
I2
I2
I1
I-1
I0
I-1
I-1
I2
I2
I2
I1
I1
I1
I1
I-1
I2
I2
I2
I2
I2
I1
I1
I2
I2
I2
I2
I-1
I-2
I-2
I1
I-1
I-1
I-1
I-1
I1
I1
I1
I0
I0
I1
I2
I2
I2
I2
I-2
I-2
I-1
I-2
I0
I1
I2
I0
I-2
I-1
I-2
I0
I1
I2
I0
I0
I-1
I-2
I-2
I-1
I1
I-1
I-1
I2
I-2
I-2
I-2
I-1
I-1
I-1
I2
I-1
I-2
I-2
I-2
I1
I-1
I2
I0
I-2
I-2
I-2
I-1
I1
I-1
I1
I-1
I-2
I-2
I1
I1
I0
I-1
I-1
I-2
I1
I-2
I-1
I-1
I-2
I-1
I-1
I1
I-2
I-2
I-2
I-2
I-2
I-2
I-1
I-2
I-2
I-2
I-2
I0
I0
I1
I2
I0
I-1
I-1
I-2
I0
I1
I1
I0
I2
I-1
I-2
I-2
I-2
I-2
I-2
I-2
I-2
I-2
I-2
I-2
I1
I0
I-1
I2
I-2
I-2
I-2
I-2
I2
I1
I0
I2
I-1
I-1
I0
I-1
I2
I1
I1
I1
I1
I2
I2
I1
I1
I-1
I1
I2
I2
I-1
I-1
I0
I-2
I-1
I2
I2
I1
I1
I1
I-1
I-1
I1
I2
I1
I1
I-1
I-2
I-1
I-1
I-2
I2
I2
I2
I2
I0
I2
I1
I2
I2
I2
I2
I0
I1
I1
I2
I2
I2
I2
I1
I-1
I1
I2
I1
I0
I2
I0
I-1
I-1
I-1
I1
I-1
I2
I1
I-1
I1
I0
I2
I-1
I0
I-2
I2
I2
I1
I2
I1
I2
I1
I2
I2
I2
I1
I1
I1
I-1
I1
I2
I2
I2
I-1
I1
I-2
I-1
I-1
I2
I1
I2
I2
I-1
I-1
I1
I2
I2
I2
I2
I-2
I-2
I-2
I-2
I-1
I2
I2
I2
I-2
I-1
I-1
I1
I-1
I2
I2
I1
I0
I1
I0
I1
I2
I2
I2
I-1
I-2
I-2
I-2
I-1
I-2
I-2
I-2
I1
I-2
I-1
I-2
I-2
I-2
I-1
I-1
I-2
I-2
I-1
I-2
I-2
I-2
I1
I-1
I-1
I1
I1
I-2
I-1
I-2
I1
I2
I1
I1
I1
I-2
I-2
I-2
I-2
I1
I-1
I-1
I0
I-2
I-2
I-2
I-1
I-1
I-2
I-1
I-2
I-2
I-2
I-2
I1
I-2
I1
I-2
I-2
I-1
I-2
I1
I2
I-2
I-1
I-2
I-2
I1
I2
I2
I1
I0
I2
I2
I1
I1
I2
I1
I-1
I1
I1
I-1
I-1
I-1
I0
I-1
I-1
I1
I0
I-1
I-1
I1
I2
I1
I1
I0
I1
I-1
I-1
I-2
I2
I2
I1
I2
I-1
I2
I2
I-1
I1
I-1
I2
I0
I1
tp24
sS'1787ef41e6bd85f2.jpg'
p25
(I1
I1
I1
I-1
I2
I0
I1
I0
I-2
I-1
I-2
I-2
I-2
I1
I1
I-2
I-1
I-2
I-1
I-2
I-2
I-2
I-2
I2
I-1
I-1
I0
I-1
I1
I2
I1
I0
I2
I-2
I-2
I-2
I-1
I0
I2
I1
I2
I-1
I0
I1
I2
I1
I-1
I-1
I2
I-1
I-1
I2
I1
I2
I0
I2
I2
I1
I2
I1
I2
I2
I2
I1
I2
I-2
I-1
I2
I2
I2
I2
I2
I1
I1
I1
I2
I2
I1
I2
I0
I-1
I-1
I-1
I2
I0
I1
I1
I0
I2
I1
I2
I1
I1
I1
I-2
I1
I-1
I-2
I1
I-1
I-1
I-1
I0
I-2
I-1
I-2
I-2
I-2
I-2
I-1
I-2
I-2
I-1
I-1
I-1
I1
I2
I-2
I-2
I1
I-2
I-2
I-2
I-2
I-1
I-2
I-2
I-2
I-2
I-2
I-2
I1
I1
I-2
I-1
I-2
I-2
I-2
I-2
I-1
I-2
I-2
I-2
I-2
I-1
I0
I-1
I2
I1
I0
I0
I-1
I-1
I-1
I1
I-1
I-1
I-1
I-2
I1
I-1
I1
I2
I1
I0
I-1
I1
I0
I1
I2
I0
I1
I0
I2
I2
I1
I2
I2
I2
I2
I2
I-1
I2
I2
I2
I2
I-1
I2
I2
I-2
I2
I0
I-1
I2
I2
I1
I2
I-2
I-2
I-2
I-1
I0
I2
I2
I0
I2
I1
I2
I2
I1
I2
I0
I1
I-1
I-1
I2
I1
I1
I1
I2
I1
I1
I2
I2
I1
I2
I-1
I-1
I-1
I-2
I-1
I-1
I1
I2
I0
I0
I1
I1
I2
I-2
I-2
I-1
I-1
I0
I-2
I-2
I0
I1
I-1
I-1
I1
I2
I-2
I1
I2
I1
I2
I1
I2
I2
I-2
I1
I-2
I-2
I1
I1
I-1
I1
I0
I-2
I-2
I-1
I-2
I-1
I1
I-2
I-1
I-1
I-2
I2
I-1
I2
I-1
I0
I-1
I-2
I1
I1
I1
I-1
I1
I0
I-2
I-1
I-1
I-1
I2
I-1
I-1
I-1
I-2
I-2
I-2
I-2
I-2
I1
I1
I1
I-2
I-2
I0
I-1
I-1
I-1
I2
I-2
I-2
I-1
I-2
I-2
I-2
I-2
I-2
I-2
I-2
I-1
I-2
I1
I1
I2
I1
I-1
I1
I-2
I-1
I-1
I-2
I-1
I-2
I1
I-2
I-2
I2
I1
I1
I2
I1
I-2
I-1
I-1
I0
I-1
I1
I-1
I-1
I-1
I-2
I1
I0
I1
I2
I1
I-1
I-1
I1
I0
I1
I2
I1
I1
I1
I2
I2
I1
I2
I2
I2
I2
I2
I-1
I2
I2
I2
I2
I1
I2
I1
I-2
I2
I2
I2
I2
I1
I-1
I-1
I-2
I-2
I-1
I0
I2
I2
I2
I2
I2
I1
I2
I2
I2
I2
I1
I1
I-1
I-1
I2
I1
I1
I1
I2
I1
I1
I2
I1
I1
I2
I-1
I-1
I-1
I-2
I-1
I-1
I-1
I0
I0
I-1
I1
I0
I1
I-2
I-2
I-2
I-2
I-2
I-2
I-2
I-2
I2
I0
I-2
I-2
I1
I-2
I-2
I1
I0
I1
I-2
I1
I-2
I-2
I0
I-2
I-1
I2
I-1
I-2
I-1
I-2
I-2
I-2
I-2
I-2
I-2
I-2
I-2
I-2
I-1
I-1
I2
I0
I2
I-1
I-1
I-1
I-1
I1
I0
I0
I-1
I-1
I1
I-2
I1
I0
I0
I1
I-1
I1
I-1
I0
I-1
I-1
I0
I-1
I2
I2
I1
I2
I2
I2
I-1
I2
I-1
I-1
I1
I-2
I-2
I2
I2
I2
I2
I2
I1
I2
I-2
I-2
I-2
I2
I1
I1
I2
I1
I1
I1
I1
I-1
I1
I-1
I-1
I0
I-1
I-1
I1
I1
I1
tp26
sS'df2eb9f3e845b5df.jpg'
p27
(I-1
I2
I-2
I1
I-1
I2
I-2
I-2
I1
I-2
I-1
I-2
I-1
I2
I1
I-1
I1
I1
I-1
I1
I1
I-1
I1
I-1
I1
I-1
I-1
I-1
I-1
I1
I-1
I-2
I1
I-1
I-1
I-2
I0
I2
I1
I1
I2
I-2
I-2
I-2
I-2
I-2
I2
I2
I1
I2
I-2
I1
I0
I-1
I2
I2
I1
I2
I2
I2
I1
I2
I1
I-1
I-1
I-2
I-1
I-1
I2
I-1
I-1
I1
I1
I1
I1
I2
I1
I1
I-1
I1
I1
I-1
I-1
I-1
I0
I2
I1
I2
I2
I1
I2
I1
I2
I2
I-1
I0
I-1
I-2
I2
I1
I2
I2
I-2
I-2
I-2
I-2
I-2
I2
I-1
I-1
I1
I2
I2
I0
I-2
I1
I-1
I2
I2
I1
I1
I-1
I1
I1
I2
I2
I2
I2
I-2
I-2
I-2
I-2
I-2
I0
I1
I-1
I1
I-1
I1
I2
I1
I2
I1
I2
I-1
I0
I-1
I-1
I2
I1
I2
I1
I-2
I-2
I-1
I-2
I1
I-2
I-2
I-1
I-2
I-2
I2
I-1
I0
I-2
I-2
I1
I-2
I2
I0
I-2
I1
I-1
I-2
I1
I1
I-1
I-2
I-2
I-2
I-1
I-1
I1
I-1
I-2
I-1
I-2
I0
I1
I1
I0
I-2
I-2
I-2
I-1
I-2
I-1
I-1
I-2
I-2
I-2
I1
I-1
I-1
I1
I1
I-2
I-1
I1
I-2
I-2
I2
I-1
I-1
I-2
I-1
I-2
I-1
I2
I2
I1
I2
I0
I-1
I2
I1
I2
I2
I-2
I2
I-2
I0
I0
I-1
I-1
I-2
I-2
I-2
I-1
I-1
I-1
I1
I-2
I1
I1
I0
I1
I-2
I2
I-1
I-2
I2
I2
I2
I2
I-1
I1
I-1
I-1
I2
I2
I2
I1
I1
I1
I1
I-1
I2
I1
I2
I-1
I1
I-1
I-2
I-1
I-1
I1
I0
I-1
I-1
I-2
I-2
I-1
I1
I1
I2
I1
I2
I-1
I-1
I2
I-2
I0
I2
I-2
I1
I-2
I2
I2
I0
I2
I-1
I2
I2
I-1
I-2
I-2
I-2
I-1
I2
I1
I-1
I2
I-2
I1
I1
I-1
I2
I1
I-1
I2
I0
I2
I1
I2
I1
I-1
I1
I0
I-1
I1
I2
I1
I1
I2
I2
I1
I1
I2
I2
I2
I1
I2
I1
I-1
I1
I2
I1
I2
I1
I1
I2
I-1
I2
I1
I2
I2
I-2
I-2
I-2
I-2
I2
I-2
I2
I1
I-2
I-2
I-2
I-1
I-2
I2
I-1
I1
I1
I0
I1
I-1
I-2
I-1
I-1
I0
I-1
I-1
I1
I-1
I-1
I1
I2
I1
I1
I0
I-2
I-2
I-2
I-2
I-2
I-1
I-2
I-2
I-1
I-2
I-2
I2
I-1
I0
I-1
I1
I-2
I-1
I-1
I1
I2
I1
I2
I2
I-2
I-2
I2
I-2
I2
I-1
I-1
I-1
I-2
I-2
I1
I-2
I-2
I-2
I-2
I-2
I-1
I2
I1
I-2
I-2
I-1
I0
I-1
I1
I-2
I0
I1
I-1
I1
I0
I1
I-2
I-2
I1
I-1
I1
I0
I-1
I-2
I-2
I-2
I0
I2
I0
I1
I-1
I-2
I-1
I-1
I2
I1
I-1
I1
I2
I-1
I-1
I2
I-1
I-2
I1
I-2
I0
I-2
I-1
I-2
I-2
I1
I2
I0
I1
I-1
I-2
I0
I1
I2
I2
I-1
I1
I-2
I-1
I2
I2
I2
I-1
I-2
I2
I-1
I-1
I-2
I2
I2
I2
I2
I-1
I2
I2
I2
I1
I1
I2
I1
I1
I-1
I0
I1
I1
I2
I0
I2
I-2
I1
I1
I-2
I-2
I2
I2
I2
I2
I2
I0
I1
I2
I-2
I2
I-2
I-2
I-2
tp28
sS'782348f07aea084b.jpg'
p29
(I-2
I0
I-1
I2
I-2
I2
I2
I-1
I2
I1
I2
I2
I1
I-1
I2
I1
I0
I1
I-2
I2
I-2
I-1
I2
I-2
I1
I-2
I-1
I1
I-1
I2
I-1
I1
I2
I-2
I1
I-1
I-1
I-1
I-1
I-1
I-1
I0
I-2
I-1
I-2
I-2
I1
I-2
I-2
I1
I-2
I-2
I-2
I-2
I1
I-2
I-1
I2
I-1
I-2
I-1
I2
I-1
I0
I2
I1
I1
I0
I2
I2
I-1
I1
I2
I-1
I2
I1
I2
I2
I-2
I1
I1
I-2
I2
I0
I-1
I-2
I-1
I-1
I1
I-2
I1
I-2
I-2
I-2
I-2
I1
I1
I-1
I-1
I-2
I-2
I0
I1
I1
I1
I-2
I1
I2
I2
I-1
I-2
I1
I2
I2
I2
I1
I2
I-1
I2
I2
I2
I1
I0
I-2
I2
I-1
I1
I1
I-2
I-2
I-1
I-2
I2
I-2
I-2
I1
I-2
I-2
I0
I-2
I-1
I-2
I-1
I1
I-2
I1
I2
I1
I-1
I1
I2
I2
I2
I2
I2
I1
I-1
I2
I2
I2
I2
I2
I2
I1
I2
I2
I2
I2
I0
I-1
I-2
I-1
I1
I2
I1
I2
I2
I2
I-1
I-2
I1
I-2
I1
I2
I2
I-1
I-2
I-1
I2
I-1
I1
I1
I-1
I-1
I-1
I2
I2
I-1
I2
I-1
I-1
I-1
I-1
I1
I-1
I-2
I1
I-2
I-2
I1
I-1
I-2
I-2
I-2
I-1
I-2
I-1
I1
I-2
I-2
I-2
I1
I1
I-1
I1
I2
I-2
I-2
I1
I-1
I2
I-1
I1
I1
I-2
I-1
I-2
I-1
I-1
I-2
I-2
I-2
I-1
I-2
I-2
I-2
I-1
I2
I-2
I2
I1
I1
I1
I1
I1
I2
I1
I2
I2
I2
I1
I1
I2
I-1
I1
I2
I2
I2
I1
I2
I2
I-1
I2
I2
I2
I2
I-1
I1
I1
I-2
I1
I-1
I1
I1
I-1
I-1
I1
I-1
I1
I-1
I-1
I1
I-2
I-1
I1
I-1
I1
I-2
I-1
I-2
I-1
I1
I-1
I-1
I-2
I1
I-2
I-2
I-2
I-2
I2
I-1
I-2
I2
I1
I-2
I-2
I-2
I-1
I-2
I-2
I-1
I-1
I-2
I-2
I1
I-2
I-2
I-2
I1
I1
I-2
I1
I1
I-2
I-2
I1
I-1
I2
I-1
I1
I1
I-2
I-1
I1
I-2
I0
I-1
I-1
I-1
I-1
I1
I2
I0
I1
I-1
I-1
I-1
I-1
I1
I1
I-1
I-2
I-2
I-2
I1
I2
I2
I2
I1
I2
I2
I2
I-1
I1
I2
I2
I2
I2
I1
I-1
I2
I2
I2
I2
I2
I2
I1
I2
I2
I2
I2
I-1
I-1
I1
I-2
I1
I-2
I-2
I0
I-1
I-1
I1
I-1
I0
I-2
I-1
I1
I-1
I1
I1
I0
I0
I-1
I1
I1
I1
I1
I2
I0
I1
I1
I1
I2
I1
I2
I-1
I-1
I2
I1
I2
I2
I-1
I-2
I-2
I-1
I1
I-1
I-2
I1
I2
I2
I-2
I-2
I-2
I-1
I-1
I2
I2
I-2
I-2
I-2
I2
I1
I0
I2
I-1
I-1
I-2
I2
I2
I0
I2
I-1
I-1
I1
I0
I1
I1
I-2
I2
I-2
I-2
I1
I-1
I-1
I-1
I-2
I0
I-2
I-2
I1
I-1
I-1
I-1
I0
I1
I-2
I2
I2
I-2
I-2
I1
I-1
I1
I0
I1
I1
I-2
I-1
I-1
I-1
I-1
I-2
I-2
I-2
I-2
I-2
I-2
I2
I-2
I2
I1
I1
I2
I0
I1
I1
I2
I0
I2
I-1
I2
I2
I-2
I2
I-1
I2
I1
I-2
I2
I-1
I-2
I0
I-2
I1
I-2
I-1
I1
I-1
I0
I-1
I1
I0
tp30
sS'8832ae7be3caad23.jpg'
p31
(I2
I-1
I1
I-2
I0
I-2
I-1
I-2
I0
I-1
I-1
I-2
I-1
I1
I-1
I-1
I1
I1
I1
I2
I1
I1
I2
I-2
I0
I-2
I1
I1
I0
I-2
I1
I1
I-2
I2
I-2
I2
I1
I-1
I2
I2
I1
I1
I2
I2
I2
I2
I-1
I1
I1
I-2
I-1
I1
I1
I2
I2
I2
I1
I1
I1
I2
I2
I2
I1
I-1
I-1
I-1
I1
I2
I2
I1
I-1
I-1
I2
I-1
I2
I2
I1
I-1
I-2
I-1
I-2
I-2
I-1
I-2
I-2
I-2
I-1
I-1
I-2
I1
I-2
I-2
I-2
I-2
I2
I-1
I-2
I2
I-1
I-1
I-1
I1
I1
I-1
I1
I0
I1
I-2
I-1
I0
I-1
I2
I-2
I-1
I-2
I0
I2
I-1
I2
I2
I-2
I-2
I-2
I-2
I-1
I-1
I-1
I-2
I-2
I-2
I-2
I1
I-1
I-1
I-2
I-2
I-1
I-1
I2
I1
I-1
I-2
I-2
I-2
I1
I2
I2
I1
I-1
I-1
I-2
I2
I2
I2
I1
I1
I0
I-2
I2
I-1
I2
I1
I0
I0
I1
I2
I-1
I1
I-1
I-1
I-1
I-2
I-1
I1
I1
I2
I-2
I1
I-2
I-2
I1
I-2
I-1
I-2
I-2
I-2
I-2
I1
I1
I1
I-2
I-1
I-2
I-2
I2
I2
I2
I2
I-1
I-1
I-1
I-1
I2
I2
I1
I1
I-2
I-1
I0
I2
I2
I2
I2
I2
I2
I2
I2
I2
I-2
I-2
I-2
I-2
I-2
I2
I2
I-2
I1
I1
I2
I2
I1
I2
I1
I-1
I-1
I1
I-1
I-1
I-2
I2
I2
I2
I1
I2
I-1
I2
I1
I-2
I-1
I-2
I-1
I-2
I2
I2
I1
I1
I-1
I1
I-1
I1
I2
I1
I1
I1
I1
I-1
I1
I2
I1
I0
I-2
I-1
I2
I1
I1
I2
I-2
I-2
I-2
I-2
I0
I-2
I-2
I-2
I-2
I-2
I-2
I0
I-2
I-2
I-2
I-2
I2
I-1
I1
I2
I-2
I1
I1
I-1
I1
I2
I2
I2
I1
I-1
I1
I1
I2
I2
I-2
I1
I-1
I-1
I-1
I1
I1
I2
I2
I1
I1
I1
I2
I2
I2
I2
I-1
I-1
I-1
I-2
I1
I2
I1
I-1
I-2
I-1
I2
I-1
I1
I-1
I-2
I-2
I-2
I2
I2
I-1
I-1
I-2
I-2
I-2
I2
I2
I-1
I1
I-1
I-2
I-2
I-2
I2
I-1
I-2
I1
I-1
I-1
I-2
I-1
I1
I-1
I1
I-1
I0
I-2
I-1
I-1
I-2
I1
I-2
I-1
I-2
I1
I1
I-2
I1
I1
I-2
I-2
I-2
I-1
I-2
I-1
I-1
I-2
I-2
I-1
I1
I2
I-2
I1
I-1
I-1
I1
I2
I2
I2
I-1
I1
I1
I0
I2
I2
I2
I1
I1
I2
I1
I2
I2
I2
I1
I-1
I-1
I1
I2
I1
I2
I2
I1
I1
I1
I2
I1
I2
I1
I0
I-1
I0
I1
I2
I2
I2
I-1
I1
I-1
I-1
I1
I-2
I1
I-2
I-1
I-2
I-1
I1
I-1
I-1
I-2
I-2
I-2
I-2
I2
I1
I-1
I2
I-1
I-1
I-1
I0
I1
I-1
I-2
I1
I-1
I-1
I1
I2
I0
I-1
I-1
I1
I2
I1
I2
I2
I-2
I-2
I-2
I-2
I-2
I2
I2
I-2
I-1
I-1
I0
I2
I1
I2
I1
I-1
I-2
I-1
I-1
I1
I-2
I1
I2
I2
I-1
I1
I2
I-2
I-1
I2
I2
I1
I1
I0
I2
I1
I1
I0
I1
I0
I-1
I-1
I-1
I2
I-2
I-2
I-2
I-2
I1
I-2
I-2
I-2
I-1
I-2
I2
I-1
I-1
I2
I-2
I1
I2
I2
tp32
sS'73d8230736c41eb0.jpg'
p33
(I-2
I2
I0
I2
I1
I2
I2
I2
I-1
I1
I2
I1
I1
I-1
I1
I1
I1
I2
I-1
I-1
I1
I1
I-1
I1
I1
I2
I0
I1
I-1
I2
I-1
I-1
I2
I-2
I2
I-2
I1
I2
I-2
I-2
I-1
I-2
I-2
I-2
I-2
I-2
I0
I-2
I-2
I2
I-2
I1
I0
I1
I-2
I-1
I-1
I2
I0
I2
I2
I2
I-2
I-1
I-1
I0
I1
I2
I2
I1
I-2
I-1
I-2
I-1
I-2
I1
I1
I1
I1
I0
I1
I2
I1
I2
I2
I2
I-1
I1
I2
I-1
I2
I2
I2
I2
I-2
I-1
I2
I-2
I1
I-1
I-2
I-2
I-2
I1
I-1
I-2
I-2
I2
I-1
I-1
I-1
I-2
I2
I0
I-2
I1
I1
I0
I-2
I-2
I-1
I-2
I-2
I-1
I-1
I-2
I-2
I-1
I-2
I-2
I-1
I1
I-1
I-2
I-1
I-1
I-1
I-1
I-2
I1
I1
I1
I-1
I-2
I-1
I-2
I-2
I-1
I1
I-1
I-2
I0
I-2
I-2
I1
I-1
I-1
I-2
I-1
I0
I-2
I2
I2
I1
I0
I1
I1
I1
I2
I2
I0
I1
I1
I1
I0
I-2
I-1
I-2
I2
I2
I2
I2
I1
I2
I-1
I0
I2
I2
I2
I-1
I2
I-2
I-1
I-1
I1
I1
I-1
I-2
I-1
I-2
I-2
I-2
I1
I1
I1
I1
I-1
I-2
I-2
I-2
I2
I2
I2
I1
I2
I-1
I-1
I1
I0
I1
I-1
I-2
I1
I-2
I-2
I1
I0
I-1
I-1
I-1
I-1
I-2
I-1
I2
I-1
I-1
I1
I1
I2
I1
I-2
I-2
I2
I1
I2
I1
I2
I2
I1
I2
I2
I2
I0
I1
I2
I-1
I-1
I2
I2
I1
I1
I2
I2
I1
I1
I2
I1
I1
I2
I2
I1
I-1
I-1
I1
I1
I-1
I2
I1
I2
I1
I2
I1
I1
I2
I-1
I2
I2
I-2
I2
I-1
I1
I2
I-1
I1
I-1
I-2
I2
I-1
I1
I1
I-2
I-2
I-2
I-2
I-2
I-2
I-2
I-1
I-1
I-2
I-1
I-2
I-2
I1
I-1
I1
I-1
I-1
I-2
I-2
I-2
I1
I-2
I-1
I1
I2
I-1
I-1
I-1
I2
I1
I2
I2
I2
I-1
I-1
I-1
I-1
I-1
I2
I2
I2
I1
I-1
I1
I1
I2
I2
I2
I2
I-2
I-1
I1
I-2
I2
I2
I2
I1
I-2
I-1
I2
I-2
I-1
I1
I-1
I-1
I-1
I2
I1
I-1
I-1
I1
I-1
I-2
I-1
I-2
I2
I1
I1
I2
I1
I1
I-2
I-2
I1
I-1
I-2
I-1
I2
I-2
I-2
I-2
I-2
I-2
I-2
I-2
I-1
I-2
I-2
I-2
I-2
I-2
I-2
I1
I1
I-2
I-2
I-2
I-2
I-2
I-2
I-1
I0
I-2
I-2
I-2
I-2
I-2
I-1
I0
I-2
I-2
I-2
I-1
I-1
I1
I1
I2
I0
I-1
I1
I1
I1
I1
I0
I1
I1
I1
I-1
I-2
I-1
I-2
I2
I2
I2
I2
I1
I2
I1
I1
I2
I2
I2
I-1
I1
I-1
I-1
I0
I2
I2
I2
I-1
I1
I-2
I-1
I-1
I2
I2
I2
I-1
I-1
I-1
I-1
I-2
I2
I2
I2
I1
I2
I-1
I-1
I1
I2
I2
I1
I-2
I2
I-2
I-1
I2
I1
I-1
I-1
I-2
I-1
I-2
I0
I2
I-1
I-1
I1
I0
I2
I1
I-2
I-2
I2
I-1
I1
I2
I0
I-1
I1
I2
I0
I1
I0
I1
I1
I-1
I-1
I1
I1
I1
I1
I-1
I2
I1
I2
I1
I2
I-1
I1
I2
I-2
I2
I-2
I0
I0
I-2
I2
I-2
I-2
I-2
tp34
sS'1fb5cf053296ef82.jpg'
p35
(I2
I-1
I-1
I-2
I1
I-2
I-2
I1
I-1
I2
I-2
I0
I1
I-2
I-2
I-2
I-2
I-2
I2
I-2
I1
I1
I-2
I2
I-1
I2
I1
I-1
I1
I-1
I1
I0
I2
I1
I1
I1
I2
I2
I-1
I2
I2
I1
I2
I1
I2
I1
I1
I2
I2
I-1
I2
I2
I1
I1
I-1
I0
I2
I-2
I1
I-2
I-1
I-1
I-1
I2
I-1
I-1
I-1
I-2
I-2
I-2
I2
I-1
I-2
I1
I-2
I-1
I-2
I-2
I2
I-1
I-1
I2
I-1
I1
I-1
I1
I1
I0
I-1
I1
I2
I1
I1
I0
I-2
I-2
I-2
I-2
I-1
I-2
I-2
I-1
I-2
I-2
I1
I-2
I-1
I-2
I-2
I-1
I0
I0
I-1
I-1
I2
I1
I1
I1
I1
I2
I-1
I1
I2
I-1
I1
I1
I2
I2
I1
I2
I1
I-1
I-2
I2
I2
I1
I2
I2
I-1
I2
I-1
I2
I2
I-1
I2
I1
I-1
I1
I1
I2
I0
I-1
I-1
I-1
I2
I-1
I-1
I-1
I-1
I-1
I0
I2
I2
I1
I2
I1
I1
I1
I1
I1
I-2
I-2
I-1
I0
I-1
I0
I-2
I-1
I0
I-1
I-1
I0
I2
I-2
I-1
I1
I-2
I-2
I-2
I-2
I2
I-2
I-2
I0
I-2
I-2
I-2
I-2
I-2
I-2
I-2
I-2
I-1
I-2
I-2
I2
I-2
I1
I1
I-2
I1
I0
I1
I2
I-1
I2
I2
I1
I1
I1
I-1
I1
I1
I2
I1
I2
I1
I-1
I2
I-1
I1
I0
I2
I2
I-1
I1
I-1
I1
I2
I2
I2
I1
I1
I2
I1
I1
I2
I-1
I1
I0
I1
I1
I-1
I2
I2
I-1
I2
I-1
I0
I0
I0
I2
I-1
I-2
I-1
I-2
I-2
I-2
I2
I-1
I-2
I1
I-2
I-1
I-2
I-2
I2
I-2
I-2
I2
I-1
I-1
I-2
I-2
I-1
I-1
I0
I1
I2
I-1
I-1
I-1
I-2
I-2
I-1
I-2
I1
I-2
I-2
I1
I-2
I-2
I-1
I-2
I1
I-1
I0
I1
I1
I-1
I-2
I-1
I1
I-1
I1
I1
I-1
I2
I-1
I0
I2
I-1
I0
I-2
I2
I2
I0
I2
I1
I0
I-2
I2
I2
I1
I2
I2
I1
I2
I-1
I2
I2
I-1
I2
I2
I1
I1
I0
I2
I-1
I-1
I2
I1
I2
I0
I-1
I0
I-1
I2
I1
I2
I2
I1
I2
I1
I2
I1
I-1
I-1
I-2
I-1
I-2
I-1
I-1
I-2
I-1
I1
I1
I1
I2
I2
I2
I1
I2
I2
I-2
I-2
I-2
I-2
I1
I-2
I-2
I-1
I-2
I-2
I-2
I-2
I-2
I-2
I-2
I-2
I-1
I-2
I-2
I2
I-2
I1
I1
I-2
I1
I1
I0
I2
I0
I2
I2
I2
I1
I1
I-1
I0
I2
I2
I2
I2
I-2
I-2
I1
I-2
I-1
I0
I1
I1
I-1
I2
I1
I1
I1
I1
I-1
I2
I0
I1
I-1
I-2
I2
I-2
I1
I-2
I-1
I1
I-2
I2
I2
I-1
I1
I-1
I-1
I-1
I1
I2
I-1
I-1
I1
I-1
I-1
I-2
I2
I-1
I-2
I-1
I-2
I-1
I-2
I-2
I2
I-2
I-2
I2
I-1
I-1
I-2
I-2
I-2
I-2
I0
I1
I1
I-2
I-2
I-2
I-2
I-1
I-1
I-1
I0
I-2
I-2
I1
I-1
I-2
I0
I-2
I1
I0
I2
I1
I-1
I1
I1
I-1
I1
I-1
I1
I1
I-1
I0
I1
I1
I1
I0
I-2
I2
I2
I1
I2
I-2
I2
I2
I2
I2
I-1
I2
I2
I2
I1
I-1
I2
I2
I2
I1
I2
I-1
I-1
I-2
tp36
sS'8aa77bb9fde4ccb8.jpg'
p37
(I1
I2
I1
I-1
I1
I2
I-1
I1
I-1
I-1
I-2
I0
I-1
I1
I-1
I1
I0
I-2
I1
I-1
I1
I-1
I1
I1
I-2
I-1
I2
I-1
I2
I-1
I2
I2
I2
I1
I-2
I2
I2
I1
I2
I2
I2
I-2
I-2
I-2
I-2
I-2
I-1
I1
I2
I2
I2
I-1
I1
I2
I-1
I0
I-1
I-2
I-1
I-1
I0
I-2
I1
I0
I-1
I1
I-2
I1
I-2
I0
I2
I1
I1
I2
I2
I1
I2
I2
I-1
I-2
I-2
I-2
I-2
I1
I2
I-1
I1
I-2
I-2
I2
I1
I2
I2
I-1
I-2
I-2
I-2
I-1
I-1
I1
I-2
I-2
I-1
I-2
I1
I-1
I-1
I2
I1
I1
I0
I0
I2
I-1
I1
I-1
I1
I-1
I-1
I1
I-2
I0
I-1
I-1
I-2
I-2
I-1
I1
I2
I2
I-1
I2
I1
I2
I2
I-1
I0
I-2
I-1
I-2
I1
I2
I-2
I1
I-2
I-2
I-2
I-1
I-2
I-2
I-1
I-2
I1
I-2
I-1
I2
I-2
I1
I-1
I-2
I1
I2
I1
I2
I-1
I2
I1
I-2
I2
I1
I1
I1
I-2
I0
I1
I0
I2
I1
I0
I1
I2
I0
I2
I2
I1
I2
I-1
I1
I-2
I-2
I1
I-2
I-1
I-1
I-1
I-2
I-2
I-1
I-2
I-1
I-2
I-2
I1
I2
I2
I2
I2
I2
I1
I-1
I-1
I1
I-1
I-2
I-1
I-1
I-2
I-2
I2
I1
I-2
I1
I-2
I-1
I-2
I-2
I2
I-1
I-1
I2
I-2
I-1
I-1
I-2
I2
I2
I2
I2
I1
I-2
I-2
I-1
I1
I-1
I-1
I-1
I2
I1
I1
I2
I0
I2
I-2
I1
I1
I-1
I-1
I-1
I1
I-1
I1
I2
I-2
I1
I-1
I2
I-1
I-2
I2
I-1
I1
I1
I-1
I1
I-1
I1
I1
I2
I1
I1
I-2
I1
I2
I0
I2
I2
I1
I2
I1
I2
I2
I2
I2
I1
I-2
I-1
I-2
I2
I2
I1
I2
I-1
I2
I2
I2
I-1
I-2
I-2
I-2
I-2
I1
I0
I1
I2
I2
I-1
I-1
I1
I-2
I-1
I-2
I-2
I-2
I-2
I-2
I-2
I1
I1
I-1
I2
I-2
I1
I-2
I-2
I2
I1
I-1
I1
I2
I-1
I-1
I1
I-1
I-2
I-2
I-2
I-2
I-2
I-1
I-2
I0
I-2
I-2
I2
I0
I2
I1
I-2
I-2
I-2
I-2
I0
I-1
I1
I-2
I-2
I-1
I-2
I1
I-2
I-2
I2
I1
I1
I1
I1
I2
I1
I2
I-1
I1
I0
I1
I2
I-1
I2
I-1
I-1
I-2
I-1
I2
I1
I2
I2
I1
I2
I1
I2
I2
I1
I2
I1
I2
I-1
I1
I2
I1
I2
I-1
I1
I-2
I-1
I-1
I-1
I1
I-1
I2
I-1
I-1
I1
I-2
I2
I1
I-2
I2
I2
I2
I2
I-1
I2
I2
I-2
I2
I2
I1
I2
I-2
I-1
I0
I1
I2
I1
I-1
I-1
I1
I-1
I2
I2
I1
I1
I-2
I-2
I-2
I-2
I-1
I-2
I-1
I-2
I-1
I-2
I-2
I1
I-2
I-1
I-2
I-2
I-1
I-1
I1
I2
I1
I1
I0
I1
I-2
I-1
I-2
I-1
I-1
I-1
I-1
I-2
I1
I-1
I-2
I1
I-2
I1
I-2
I-1
I2
I-2
I-2
I2
I-2
I-1
I1
I-2
I2
I2
I2
I2
I1
I-2
I-2
I-2
I-1
I-1
I2
I2
I1
I-1
I1
I1
I-1
I-1
I2
I2
I-1
I1
I-1
I2
I0
I1
I1
I1
I-1
I1
I-1
I-1
I-2
I2
I2
I1
I2
I1
I1
I-1
I-2
I-1
I-2
I2
I-1
I2
tp38
sS'95082dab1cd01f8d.jpg'
p39
(I-2
I-2
I-2
I2
I1
I-1
I-1
I-2
I-1
I-1
I-2
I-2
I-2
I1
I1
I-2
I-2
I-2
I-1
I-1
I-2
I-2
I-2
I1
I1
I-2
I-2
I-2
I-1
I-2
I-2
I-2
I1
I2
I2
I-1
I2
I2
I-2
I-1
I-1
I2
I1
I-1
I-1
I-1
I2
I1
I2
I1
I-1
I1
I-1
I0
I2
I2
I2
I1
I-2
I1
I1
I1
I2
I2
I2
I2
I1
I2
I2
I2
I2
I2
I2
I-1
I1
I2
I2
I2
I2
I2
I2
I-1
I1
I2
I1
I1
I2
I2
I1
I-1
I2
I1
I-1
I0
I-1
I-2
I1
I-2
I1
I-2
I-2
I-2
I-2
I1
I-1
I-2
I-2
I1
I-1
I-1
I2
I2
I1
I1
I-1
I1
I1
I2
I2
I2
I0
I-1
I-2
I-1
I1
I2
I2
I2
I-1
I-2
I-2
I-1
I-1
I2
I2
I2
I-2
I-2
I-2
I1
I-1
I2
I2
I2
I-2
I-1
I-1
I1
I-1
I2
I2
I2
I-1
I1
I2
I1
I1
I2
I2
I2
I0
I2
I2
I-1
I1
I2
I2
I2
I2
I2
I-1
I2
I2
I-2
I-2
I-1
I-1
I-2
I-2
I-2
I-2
I1
I0
I1
I-1
I-1
I-2
I-2
I-2
I0
I-1
I-1
I-1
I-2
I-2
I-2
I-2
I1
I1
I-1
I-1
I1
I-2
I-2
I-2
I-1
I-1
I-2
I-1
I-1
I-2
I-2
I-2
I1
I1
I1
I1
I1
I-2
I-2
I-2
I-1
I1
I0
I1
I-1
I-2
I-2
I-2
I-1
I-1
I-1
I-2
I1
I-2
I-2
I1
I-2
I1
I1
I-1
I-2
I-2
I-2
I2
I1
I1
I2
I1
I-1
I-1
I-2
I1
I1
I1
I-1
I-1
I-1
I-2
I-2
I2
I1
I2
I1
I2
I-2
I-2
I-2
I-1
I1
I-1
I-2
I0
I-2
I-2
I-2
I1
I-1
I0
I0
I1
I-2
I-2
I-2
I-1
I-1
I1
I-1
I-2
I-2
I-2
I-1
I1
I2
I2
I2
I2
I-2
I1
I2
I-1
I-1
I-2
I-2
I-1
I2
I1
I0
I-1
I0
I2
I1
I1
I0
I-1
I-1
I-1
I1
I2
I2
I2
I1
I-2
I1
I2
I2
I2
I2
I2
I2
I1
I2
I2
I2
I2
I2
I2
I-1
I-1
I2
I2
I2
I2
I2
I2
I1
I2
I2
I2
I2
I2
I2
I2
I-2
I2
I1
I1
I2
I1
I-1
I2
I-2
I1
I-2
I-1
I-1
I-2
I1
I-1
I-2
I-2
I1
I1
I1
I2
I1
I0
I1
I-1
I-1
I1
I2
I1
I2
I-1
I-2
I-2
I-1
I1
I1
I1
I1
I-2
I-2
I-2
I-1
I-1
I1
I1
I1
I-2
I-2
I-2
I1
I-1
I1
I1
I1
I-2
I-2
I-1
I1
I-1
I2
I1
I2
I-2
I-1
I2
I1
I1
I2
I2
I2
I-2
I1
I2
I-2
I-1
I1
I2
I2
I1
I2
I1
I2
I2
I-2
I-2
I-2
I-2
I-2
I-2
I-1
I-1
I2
I1
I0
I-1
I-1
I-2
I-1
I-1
I-1
I0
I-2
I-1
I-2
I-1
I-1
I-1
I0
I1
I-1
I-2
I0
I-1
I-1
I-2
I-1
I-1
I-2
I-1
I-1
I-1
I-1
I-2
I1
I1
I1
I1
I1
I-2
I-2
I-1
I-1
I1
I-1
I1
I-1
I-2
I-2
I-2
I-1
I1
I-1
I-1
I1
I-2
I-2
I-1
I-2
I0
I2
I0
I-1
I2
I1
I2
I1
I1
I1
I1
I1
I-1
I-1
I2
I2
I2
I1
I2
I0
I1
I-1
I-2
I0
I1
I-1
I1
I0
I1
I-1
I-1
I1
I-1
I-1
I1
I1
I2
I1
I2
I-1
I0
I-2
tp40
sS'e0856618fa756ea6.jpg'
p41
(I1
I2
I-1
I-1
I2
I1
I-1
I-2
I-2
I-2
I-2
I-2
I-2
I2
I2
I-2
I-2
I-1
I-2
I-2
I-2
I-2
I-2
I2
I1
I0
I-2
I-1
I-1
I-2
I-2
I-2
I1
I2
I-1
I-1
I2
I2
I1
I2
I2
I-2
I-1
I-2
I-2
I-2
I1
I1
I2
I2
I-1
I1
I-1
I-1
I2
I2
I2
I1
I1
I1
I1
I2
I2
I2
I2
I-1
I2
I-1
I1
I2
I1
I2
I0
I-2
I-2
I-1
I-1
I-1
I2
I2
I2
I2
I2
I2
I2
I2
I1
I2
I1
I-2
I2
I0
I1
I2
I-1
I-2
I-2
I-2
I2
I-1
I-1
I-1
I-2
I-2
I-2
I-2
I-2
I2
I-1
I-1
I1
I1
I2
I1
I-1
I1
I0
I2
I2
I2
I1
I-1
I1
I0
I1
I2
I2
I2
I-2
I-1
I1
I-1
I1
I2
I1
I2
I-2
I1
I-2
I-1
I-1
I1
I1
I2
I1
I-2
I0
I1
I1
I1
I2
I2
I-2
I-1
I1
I-1
I1
I1
I2
I2
I-2
I1
I2
I-1
I0
I1
I1
I-2
I1
I2
I0
I1
I-2
I-1
I-2
I0
I-2
I0
I-1
I-2
I-2
I0
I1
I-2
I0
I1
I-2
I-2
I-2
I-1
I-1
I-1
I1
I-1
I-2
I-1
I-1
I1
I1
I1
I-1
I2
I-2
I-1
I-1
I-1
I1
I-1
I1
I-1
I-2
I-2
I-1
I-1
I1
I1
I-1
I-1
I-2
I-2
I-1
I-1
I1
I-2
I-1
I-2
I-2
I-1
I-1
I-1
I-2
I-1
I-2
I-2
I2
I2
I2
I1
I-1
I2
I2
I2
I2
I-1
I0
I0
I1
I-2
I1
I0
I-2
I-2
I-1
I-1
I-1
I-1
I-1
I-2
I-2
I-2
I1
I1
I1
I1
I2
I-2
I-2
I-1
I-2
I-1
I-1
I-2
I-2
I-2
I-2
I-2
I1
I1
I2
I2
I1
I-1
I-2
I-2
I1
I1
I1
I-1
I-1
I-2
I-2
I0
I2
I2
I-1
I1
I-2
I-1
I2
I2
I2
I1
I2
I2
I2
I-2
I0
I-2
I0
I0
I1
I2
I2
I2
I-1
I2
I2
I2
I2
I2
I2
I1
I1
I2
I2
I2
I2
I1
I2
I-1
I1
I2
I2
I2
I1
I2
I1
I-1
I-2
I1
I2
I1
I2
I2
I2
I2
I1
I2
I2
I2
I2
I2
I1
I-1
I2
I2
I2
I2
I0
I-2
I-2
I-2
I1
I1
I-1
I-1
I-2
I-2
I-1
I-2
I-2
I0
I-2
I-1
I-1
I-1
I0
I-2
I-2
I1
I1
I-1
I-1
I2
I-2
I-2
I-2
I-1
I-1
I-2
I1
I-1
I-2
I-2
I-1
I1
I1
I1
I1
I2
I-2
I-2
I-2
I-1
I-1
I1
I1
I1
I-1
I-2
I-2
I1
I1
I2
I1
I1
I-2
I-2
I-1
I-1
I-1
I0
I0
I-1
I-2
I1
I2
I1
I-1
I1
I1
I-2
I1
I2
I1
I1
I-2
I1
I1
I0
I-1
I1
I1
I1
I2
I0
I2
I-1
I2
I-1
I-2
I-1
I-1
I-2
I-1
I-1
I-2
I-2
I1
I-1
I-1
I1
I1
I-2
I-2
I1
I-2
I-1
I-2
I-1
I-1
I-2
I-1
I-2
I-1
I-1
I0
I1
I0
I0
I-2
I-1
I-1
I0
I-1
I0
I-1
I-2
I-1
I-1
I1
I-1
I-1
I1
I-2
I-1
I-1
I-2
I2
I2
I2
I2
I1
I1
I1
I2
I-1
I-2
I1
I-2
I-2
I1
I2
I2
I2
I-1
I2
I2
I2
I1
I2
I-1
I1
I0
I-2
I-2
I2
I2
I2
I2
I1
I1
I1
I1
I-1
I0
I1
I1
I-2
I0
I-1
I2
I-1
I1
tp42
sS'45af62ae2bb392ca.jpg'
p43
(I2
I2
I1
I-2
I2
I0
I-2
I-2
I-2
I-2
I-2
I-2
I-2
I2
I0
I-2
I-2
I-2
I0
I-1
I-2
I-2
I-2
I1
I-1
I-1
I-2
I-2
I1
I-2
I-1
I-2
I-2
I2
I-1
I-1
I-2
I-1
I1
I-1
I0
I-2
I0
I-2
I-2
I-1
I-1
I1
I2
I2
I0
I-2
I1
I2
I2
I2
I2
I0
I2
I1
I2
I2
I2
I2
I2
I-2
I0
I2
I2
I2
I2
I2
I1
I0
I-1
I2
I2
I1
I2
I2
I1
I1
I-1
I2
I2
I2
I2
I2
I1
I1
I-1
I2
I2
I1
I2
I2
I1
I1
I1
I2
I2
I1
I1
I0
I-1
I1
I0
I2
I2
I2
I2
I2
I1
I-1
I-1
I-2
I2
I-1
I1
I2
I-2
I-2
I-2
I-2
I0
I-2
I1
I1
I-2
I-2
I-2
I0
I0
I1
I1
I1
I-2
I-2
I-2
I0
I-2
I1
I1
I-1
I-1
I-2
I-2
I2
I-1
I2
I1
I1
I-2
I-2
I-2
I1
I-2
I1
I1
I-1
I-1
I-2
I-1
I2
I-1
I2
I1
I1
I-1
I0
I1
I1
I1
I-2
I1
I2
I1
I2
I-2
I-1
I2
I-2
I2
I-1
I-1
I2
I-2
I-1
I-1
I-2
I0
I-2
I-2
I-2
I-1
I-1
I-1
I0
I-1
I-2
I-2
I-2
I-1
I-1
I-2
I1
I-1
I-2
I-2
I-2
I1
I-1
I-1
I1
I-1
I-2
I-2
I-2
I-1
I-1
I-2
I1
I-2
I-2
I-2
I-2
I1
I-1
I-1
I2
I-1
I-1
I-1
I-1
I-1
I-1
I1
I-1
I-1
I-1
I1
I1
I0
I-1
I-2
I1
I2
I-1
I2
I-1
I-1
I1
I-2
I2
I2
I-2
I-2
I-2
I-2
I-2
I2
I2
I2
I2
I0
I0
I1
I1
I2
I2
I2
I0
I-1
I1
I1
I-1
I2
I2
I2
I1
I-1
I2
I1
I-1
I2
I2
I1
I1
I-1
I2
I1
I-1
I2
I1
I1
I1
I1
I1
I-1
I-1
I1
I1
I-1
I-1
I-1
I0
I1
I-1
I-2
I1
I1
I1
I2
I1
I2
I-1
I2
I2
I-1
I2
I0
I-2
I1
I-1
I2
I2
I2
I-1
I-1
I-1
I1
I2
I2
I2
I-1
I-1
I-2
I-1
I-1
I2
I2
I1
I1
I-1
I-2
I1
I-1
I2
I2
I1
I1
I-1
I-1
I1
I-2
I2
I2
I0
I1
I1
I1
I2
I-1
I2
I2
I1
I1
I1
I1
I2
I1
I2
I1
I2
I1
I2
I-1
I-2
I1
I-2
I2
I-2
I-1
I2
I-2
I-2
I-2
I-2
I0
I-2
I1
I1
I-2
I-2
I-2
I0
I0
I1
I1
I-1
I-2
I-2
I-2
I0
I-2
I1
I-1
I-2
I-1
I-2
I-2
I2
I-1
I1
I1
I-1
I-1
I-2
I-2
I1
I-2
I1
I-1
I-2
I0
I-2
I-2
I2
I-1
I1
I-1
I-1
I-1
I-1
I1
I1
I1
I-1
I2
I2
I2
I1
I-2
I1
I2
I-2
I2
I1
I-1
I-1
I-2
I-1
I-1
I-2
I0
I-2
I-2
I-2
I-1
I-1
I-1
I0
I-1
I-2
I-2
I-2
I1
I1
I-1
I1
I-1
I-2
I-2
I-2
I2
I-1
I-1
I1
I-2
I-2
I-2
I-2
I1
I1
I-1
I2
I-2
I-2
I-2
I-2
I2
I1
I-1
I2
I-1
I-2
I-1
I1
I1
I-1
I1
I-1
I1
I-2
I-1
I-1
I-1
I1
I2
I1
I1
I1
I2
I2
I-1
I1
I2
I2
I2
I-1
I-1
I2
I2
I2
I1
I-1
I2
I2
I2
I1
I-2
I2
I2
I2
I1
I1
I2
I1
I1
I-1
I2
I-1
I-1
I-2
tp44
sS'b17e7b92fc6bbefb.jpg'
p45
(I2
I2
I2
I-2
I2
I1
I2
I2
I-2
I-1
I1
I2
I1
I1
I-1
I2
I2
I0
I1
I2
I2
I1
I1
I-2
I-2
I-1
I-1
I-1
I2
I0
I1
I2
I0
I0
I1
I1
I0
I1
I-1
I-1
I-1
I-2
I-1
I2
I-2
I-2
I-2
I-2
I-1
I-2
I2
I-2
I-2
I-2
I-2
I-2
I-2
I-2
I-1
I-2
I-2
I-2
I-2
I-2
I-2
I1
I-2
I-2
I-2
I-2
I0
I-1
I1
I2
I0
I-2
I-1
I-1
I-1
I1
I-1
I0
I0
I-1
I-1
I-2
I1
I-2
I-1
I0
I-2
I-1
I-2
I-2
I0
I0
I1
I1
I1
I-2
I-2
I-2
I-1
I1
I-1
I-2
I-2
I2
I2
I2
I1
I2
I2
I2
I2
I-2
I1
I-1
I-1
I2
I2
I2
I2
I-1
I1
I-1
I2
I2
I2
I2
I2
I-1
I1
I2
I2
I1
I2
I1
I1
I-1
I1
I2
I1
I1
I1
I1
I1
I-1
I-2
I0
I1
I1
I2
I2
I2
I2
I0
I2
I2
I2
I2
I2
I2
I0
I-2
I2
I2
I2
I2
I2
I2
I2
I2
I-1
I1
I1
I1
I2
I-2
I1
I1
I-1
I2
I1
I2
I2
I-2
I-2
I-2
I-2
I0
I-2
I-1
I-2
I-2
I-2
I-2
I0
I-1
I-1
I-2
I-2
I-1
I-1
I0
I1
I1
I-1
I-1
I-1
I-1
I-1
I-2
I-1
I0
I-1
I-1
I0
I-1
I-2
I-2
I0
I-1
I-1
I0
I0
I-2
I-2
I-2
I1
I-1
I2
I1
I1
I-2
I-2
I1
I2
I1
I-1
I-1
I2
I2
I2
I-2
I-2
I2
I-2
I1
I0
I2
I1
I-2
I1
I1
I-1
I-1
I2
I0
I1
I2
I2
I1
I1
I-1
I1
I2
I1
I2
I1
I1
I1
I1
I2
I1
I1
I1
I1
I1
I-1
I1
I1
I1
I0
I0
I0
I-2
I-1
I-1
I0
I-1
I-2
I0
I-1
I-2
I1
I-1
I-1
I-2
I-1
I-1
I-1
I1
I-2
I1
I-2
I0
I2
I-2
I-1
I-2
I-2
I-2
I-2
I-1
I-2
I-2
I-2
I-1
I0
I-1
I1
I1
I-2
I-2
I1
I-1
I-2
I-2
I-1
I-1
I-2
I0
I0
I-1
I-1
I-1
I1
I1
I1
I1
I-1
I-1
I-1
I0
I-1
I-1
I1
I-1
I-1
I0
I1
I1
I1
I-2
I0
I1
I1
I2
I2
I2
I2
I2
I2
I2
I-1
I1
I-1
I-2
I1
I-2
I2
I2
I2
I2
I2
I1
I2
I2
I-2
I1
I-2
I-1
I2
I2
I2
I2
I-1
I2
I-2
I2
I2
I-1
I0
I-1
I-2
I0
I1
I2
I-2
I0
I-1
I-1
I0
I-1
I2
I-2
I1
I1
I1
I0
I1
I1
I-1
I2
I1
I1
I-1
I-2
I-1
I0
I2
I-1
I-1
I-1
I-2
I-1
I0
I-2
I-1
I-1
I-1
I1
I2
I2
I2
I2
I-2
I2
I1
I2
I2
I-2
I1
I2
I-1
I2
I2
I2
I2
I-2
I-2
I-1
I-2
I1
I-2
I1
I1
I-2
I-2
I-2
I-1
I-2
I-1
I-1
I-2
I2
I2
I1
I2
I2
I2
I2
I2
I-1
I-2
I-2
I-2
I-2
I-1
I-1
I-1
I-1
I1
I1
I2
I-1
I1
I1
I1
I1
I1
I-2
I1
I0
I2
I1
I-1
I1
I-2
I0
I1
I-1
I-2
I-2
I1
I-2
I-2
I2
I-1
I2
I-2
I-1
I1
I-2
I0
I-1
I1
I-2
I0
I-1
I2
I-2
I1
I1
I0
I-2
I1
I-1
I0
I0
I1
I-1
I-2
I0
I-1
I-1
I-1
I-1
I1
I-2
I1
I1
I2
tp46
sS'bd6734878c0e556b.jpg'
p47
(I-2
I-2
I-1
I2
I-1
I2
I2
I2
I1
I0
I2
I2
I1
I0
I1
I2
I1
I1
I-1
I-1
I1
I-1
I-1
I1
I1
I1
I1
I2
I-1
I2
I-1
I2
I2
I-2
I2
I-1
I1
I-1
I-2
I-2
I-2
I2
I-2
I1
I-1
I-2
I1
I-2
I-2
I-1
I-1
I-2
I-2
I1
I-2
I-2
I-2
I1
I-2
I-1
I2
I2
I-1
I-1
I-1
I2
I-1
I2
I2
I2
I-1
I1
I-1
I1
I-1
I2
I2
I2
I1
I-1
I1
I1
I2
I2
I2
I2
I-2
I-2
I1
I-2
I1
I1
I1
I-1
I-2
I-1
I2
I-1
I-1
I-1
I-2
I-1
I1
I2
I1
I-1
I1
I1
I2
I-1
I1
I-2
I2
I2
I1
I1
I2
I1
I-2
I-2
I-1
I-2
I-2
I-2
I1
I-2
I-2
I-2
I-2
I-2
I-2
I-1
I-2
I-2
I-2
I-2
I-2
I-2
I-2
I2
I1
I-2
I-2
I-2
I-2
I-2
I-1
I-1
I-1
I-2
I-2
I-2
I-2
I-1
I1
I1
I-1
I-2
I-1
I1
I1
I2
I1
I1
I2
I0
I2
I2
I1
I-1
I-2
I1
I2
I-1
I-1
I-2
I2
I-1
I2
I2
I2
I2
I-1
I2
I2
I0
I2
I2
I2
I1
I1
I2
I1
I2
I2
I2
I2
I-1
I-1
I-1
I1
I0
I2
I2
I2
I1
I1
I1
I1
I1
I2
I2
I2
I-1
I1
I-1
I-1
I-1
I2
I1
I0
I-1
I2
I-1
I-1
I2
I-1
I-2
I-1
I-2
I2
I-2
I0
I1
I-2
I-2
I-2
I-2
I-1
I-2
I-2
I-2
I-2
I-1
I1
I-2
I-2
I2
I-2
I1
I2
I2
I0
I-1
I1
I2
I1
I2
I2
I1
I-2
I-1
I-1
I-1
I-1
I2
I-1
I-1
I0
I-1
I1
I1
I0
I1
I-1
I1
I-1
I1
I1
I0
I0
I-1
I1
I2
I1
I1
I2
I0
I2
I2
I2
I2
I-2
I0
I2
I-2
I1
I-1
I-1
I-2
I-1
I1
I-1
I-2
I-2
I2
I-1
I1
I-2
I-2
I1
I-2
I-2
I-1
I0
I-2
I-2
I-1
I-2
I-2
I-2
I0
I-2
I-2
I-1
I0
I-1
I1
I-1
I2
I-1
I2
I2
I1
I1
I1
I1
I1
I2
I2
I2
I2
I-1
I-1
I-2
I-2
I1
I1
I1
I1
I-2
I-2
I1
I-2
I-1
I-1
I-1
I-1
I-2
I1
I2
I1
I-1
I1
I0
I1
I2
I2
I1
I1
I1
I2
I2
I-1
I2
I-2
I2
I2
I2
I1
I2
I2
I-1
I-1
I1
I1
I-2
I-2
I1
I-2
I-2
I-2
I0
I-2
I-2
I-1
I-2
I-2
I-2
I-2
I-1
I-2
I-1
I2
I-1
I-2
I-2
I-2
I-2
I-1
I1
I1
I1
I-1
I-2
I-1
I-1
I1
I-1
I-1
I-1
I-2
I-2
I1
I1
I0
I-1
I1
I1
I-2
I1
I2
I-1
I-1
I-1
I0
I2
I-2
I-2
I-2
I2
I1
I2
I1
I2
I2
I1
I2
I2
I2
I1
I2
I2
I-1
I1
I2
I2
I2
I2
I2
I2
I-1
I1
I1
I1
I1
I2
I2
I1
I-1
I-1
I1
I0
I-1
I2
I2
I2
I1
I1
I1
I-1
I0
I1
I2
I2
I-1
I2
I-1
I-1
I2
I-1
I-1
I0
I-2
I2
I-2
I1
I1
I-2
I-2
I-2
I-2
I-2
I-2
I-2
I-1
I-1
I-2
I-2
I1
I-2
I-2
I-2
I-1
I2
I1
I-2
I-1
I-1
I-1
I-1
I-1
I0
I-1
I1
I-1
I1
I1
I1
I1
I1
I0
I1
I2
I-1
I2
I-2
I-1
I2
I-2
I-1
I-1
I2
I1
tp48
sS'f51cfff834b92ced.jpg'
p49
(I1
I-1
I1
I-1
I1
I-2
I-1
I1
I-1
I-1
I-2
I-1
I-2
I1
I-1
I1
I-2
I-2
I1
I1
I-1
I-2
I-1
I-1
I1
I-2
I-2
I0
I-1
I-1
I-2
I-1
I-2
I1
I-1
I-1
I-1
I-2
I1
I0
I-2
I1
I2
I1
I-2
I-2
I-1
I1
I2
I-1
I1
I-2
I-2
I-2
I-1
I1
I-1
I-1
I-2
I-2
I-2
I-2
I2
I2
I1
I2
I-2
I-1
I-1
I1
I2
I2
I2
I2
I1
I1
I2
I2
I1
I1
I2
I-1
I1
I1
I1
I-1
I0
I1
I1
I-2
I-1
I-1
I-2
I-2
I2
I1
I0
I1
I-2
I-1
I-1
I1
I2
I2
I2
I2
I2
I2
I2
I1
I2
I2
I2
I2
I2
I-1
I1
I2
I2
I2
I2
I2
I1
I-1
I1
I1
I1
I1
I2
I1
I-1
I-1
I2
I1
I0
I-1
I-1
I-2
I-1
I-2
I-1
I-2
I-2
I-2
I-2
I-1
I1
I1
I-2
I-1
I-2
I-2
I1
I2
I1
I2
I1
I0
I-1
I2
I2
I1
I-2
I-1
I1
I-1
I2
I1
I-1
I-2
I-1
I1
I1
I-2
I-2
I-1
I2
I2
I-2
I-2
I-1
I1
I1
I2
I2
I2
I-2
I-1
I-1
I-1
I-1
I2
I2
I2
I-1
I0
I2
I1
I0
I2
I2
I2
I1
I2
I1
I0
I-1
I2
I2
I2
I2
I2
I0
I1
I-1
I2
I2
I2
I2
I1
I1
I1
I2
I2
I2
I2
I-2
I-2
I-1
I-2
I-1
I-1
I2
I-1
I-1
I-1
I1
I2
I-1
I-2
I-2
I0
I-2
I-2
I-2
I-2
I-2
I0
I-1
I-2
I-2
I-2
I-2
I-2
I-2
I1
I-1
I-2
I-1
I-1
I-2
I-2
I-2
I1
I1
I-1
I0
I-1
I-2
I-2
I-2
I-1
I0
I-1
I-2
I-2
I-2
I-2
I-2
I0
I-2
I-2
I-2
I-1
I-2
I-2
I1
I2
I2
I-1
I1
I-1
I-2
I-2
I-2
I-2
I-2
I-1
I-2
I-2
I1
I1
I2
I-1
I-2
I2
I2
I1
I2
I0
I2
I2
I2
I-1
I2
I1
I-1
I0
I2
I1
I1
I-2
I1
I-2
I-2
I-2
I1
I0
I1
I-1
I-1
I-2
I-2
I-1
I1
I2
I2
I1
I-1
I-2
I-1
I-1
I2
I2
I1
I1
I1
I0
I0
I-1
I1
I-1
I1
I-1
I-2
I-1
I-2
I-1
I1
I2
I1
I2
I-1
I1
I1
I2
I2
I2
I1
I2
I2
I-2
I-1
I-2
I2
I2
I0
I1
I2
I2
I1
I2
I2
I2
I0
I2
I2
I-1
I-1
I2
I2
I1
I2
I2
I2
I1
I2
I2
I2
I1
I1
I1
I0
I-2
I0
I0
I-2
I-1
I1
I0
I1
I0
I-1
I-2
I-1
I1
I1
I2
I-1
I1
I1
I-1
I2
I1
I1
I-1
I-2
I-1
I2
I1
I-1
I-1
I-2
I-2
I-2
I-2
I-2
I-2
I-2
I1
I1
I2
I-2
I-2
I-2
I-1
I-1
I1
I2
I0
I-2
I-2
I-2
I1
I-1
I2
I1
I-1
I-1
I-2
I0
I1
I-2
I1
I1
I1
I-1
I2
I2
I2
I1
I2
I2
I2
I1
I1
I1
I-1
I2
I2
I2
I2
I-1
I-2
I-1
I-2
I-1
I-1
I-1
I1
I-1
I1
I2
I1
I-1
I-1
I1
I-2
I1
I2
I1
I2
I-2
I-1
I-1
I1
I-2
I-2
I-2
I-1
I-2
I0
I-1
I-1
I2
I-1
I1
I-1
I-2
I1
I0
I-1
I-2
I-2
I0
I1
I-2
I-2
I1
I-1
I-1
I-2
I1
I1
I1
I1
I-1
I-1
I-2
I-1
I-2
I2
I2
I2
tp50
sS'a20339414e2a3eda.jpg'
p51
(I1
I1
I2
I-1
I-1
I-1
I1
I2
I1
I-1
I2
I2
I2
I1
I-1
I2
I2
I-1
I1
I0
I2
I-1
I-2
I0
I-1
I-1
I-2
I-2
I1
I-1
I-2
I-2
I-2
I1
I-2
I-2
I-2
I-2
I2
I-1
I0
I-1
I1
I2
I-1
I1
I-2
I-1
I-2
I-2
I1
I-2
I-1
I1
I-2
I-2
I-2
I-1
I0
I-2
I-1
I-1
I-2
I-2
I-2
I0
I-2
I-1
I-1
I-2
I1
I1
I1
I2
I-2
I2
I2
I-1
I2
I2
I2
I2
I1
I2
I2
I1
I2
I2
I2
I-1
I-1
I1
I1
I0
I2
I2
I1
I1
I1
I1
I1
I2
I2
I0
I-1
I1
I1
I1
I2
I1
I-1
I1
I-1
I1
I2
I-1
I1
I-2
I-1
I0
I-1
I1
I1
I-1
I0
I-2
I-1
I-2
I1
I1
I-2
I0
I-2
I-1
I-2
I-1
I2
I-2
I-2
I2
I-2
I-1
I1
I1
I1
I-2
I-1
I2
I-1
I2
I2
I2
I-1
I-1
I-1
I1
I-1
I2
I2
I2
I0
I-1
I-1
I1
I1
I2
I2
I1
I-2
I-1
I-1
I2
I1
I1
I2
I1
I-1
I2
I-1
I1
I2
I-1
I1
I-1
I1
I1
I0
I1
I1
I-1
I-1
I0
I0
I-2
I2
I2
I1
I1
I1
I1
I-1
I-2
I1
I-1
I-2
I-1
I-1
I-2
I-2
I-2
I-1
I-2
I-2
I1
I-1
I-2
I-2
I-2
I-2
I-2
I-2
I1
I-1
I-2
I-2
I-2
I-2
I-2
I-2
I1
I-2
I-2
I-2
I-2
I-1
I-1
I2
I0
I-1
I1
I1
I2
I2
I2
I-2
I-1
I0
I-2
I-1
I-1
I1
I1
I-1
I0
I-1
I1
I-2
I1
I2
I2
I2
I1
I2
I2
I-1
I2
I2
I-2
I2
I2
I2
I1
I-1
I2
I-2
I-2
I2
I2
I1
I1
I-2
I-2
I-2
I-2
I2
I2
I2
I2
I0
I-2
I-1
I-2
I2
I2
I0
I0
I-1
I-1
I-2
I-1
I2
I1
I1
I-1
I1
I-2
I1
I1
I-1
I1
I-2
I-1
I-1
I-1
I1
I-2
I0
I1
I-1
I-2
I-2
I-1
I1
I-1
I1
I-1
I-2
I-2
I-2
I-1
I-2
I1
I-1
I-1
I2
I2
I2
I2
I-2
I2
I2
I2
I2
I2
I2
I2
I1
I2
I2
I2
I2
I1
I1
I-1
I-2
I2
I2
I2
I2
I2
I1
I2
I2
I2
I2
I2
I1
I-1
I-2
I2
I1
I1
I2
I2
I-1
I-1
I-1
I0
I1
I-2
I1
I-2
I-2
I-1
I-1
I-1
I-1
I-1
I-1
I-2
I-2
I-2
I1
I1
I-2
I1
I-1
I-1
I-2
I-1
I1
I-2
I-2
I1
I-1
I-2
I-1
I-1
I-2
I-2
I-2
I1
I-2
I1
I0
I-1
I-2
I-2
I-2
I2
I-1
I2
I1
I1
I-2
I-2
I-2
I1
I-1
I1
I1
I-2
I-2
I-1
I1
I2
I-1
I1
I2
I1
I-1
I2
I1
I2
I2
I-1
I1
I-1
I2
I2
I1
I2
I1
I-1
I-2
I1
I1
I-1
I2
I2
I2
I2
I2
I2
I1
I-1
I1
I1
I-1
I-2
I-1
I-1
I-2
I-2
I1
I0
I-2
I1
I-2
I-2
I-2
I-2
I1
I-1
I-1
I2
I0
I-1
I-2
I-2
I-1
I-1
I-2
I0
I-2
I-2
I-2
I-2
I2
I1
I2
I-1
I-1
I1
I1
I2
I-2
I-2
I-1
I-2
I1
I-2
I-1
I-2
I-1
I-2
I1
I-1
I1
I2
I-1
I1
I2
I2
I1
I-1
I2
I2
I1
I1
I-2
I2
I2
I2
I2
I1
I2
I2
I1
I-1
I-1
I2
I1
I1
tp52
sS'6fd22019d9a6a643.jpg'
p53
(I2
I1
I1
I-2
I-2
I-2
I-2
I-2
I2
I-1
I1
I-1
I-2
I1
I-1
I-1
I-1
I-1
I1
I2
I-1
I0
I-1
I-2
I1
I-2
I-2
I-2
I-1
I-1
I-2
I-2
I1
I1
I1
I-2
I1
I1
I-1
I1
I0
I-1
I2
I1
I2
I-1
I-1
I2
I-1
I-1
I-2
I1
I-1
I-1
I2
I1
I1
I2
I-1
I1
I1
I1
I2
I1
I1
I1
I1
I1
I1
I0
I1
I0
I2
I-1
I-1
I1
I-1
I-2
I1
I2
I2
I1
I1
I1
I-1
I1
I2
I2
I2
I-1
I2
I-1
I1
I2
I-1
I-1
I-1
I-2
I-1
I-2
I-2
I0
I-1
I0
I1
I-2
I1
I-2
I-1
I-2
I-1
I1
I1
I1
I-1
I2
I0
I2
I2
I1
I1
I-1
I-1
I0
I0
I2
I1
I2
I-1
I-1
I-1
I0
I-1
I1
I2
I2
I0
I1
I-1
I1
I-1
I2
I2
I2
I2
I1
I1
I1
I2
I2
I2
I2
I-1
I-1
I2
I-2
I2
I2
I2
I2
I-2
I2
I2
I-2
I2
I2
I2
I2
I0
I-1
I-2
I-1
I1
I1
I-2
I1
I-1
I1
I-1
I-2
I-2
I-1
I-2
I-2
I-1
I-2
I-1
I-1
I-1
I2
I2
I1
I1
I-1
I-2
I-2
I-2
I-2
I1
I-2
I-2
I-2
I-2
I-2
I-2
I-1
I-1
I-2
I-2
I-2
I-2
I-2
I-2
I1
I1
I-2
I-2
I1
I-2
I-2
I-2
I-1
I0
I-2
I0
I0
I-2
I-2
I1
I0
I1
I0
I0
I-1
I-2
I-1
I-1
I-1
I-2
I1
I2
I1
I-2
I-2
I-1
I1
I-1
I-2
I-1
I-2
I-2
I-2
I2
I-1
I2
I1
I-1
I-2
I-2
I-1
I1
I2
I2
I1
I-1
I-1
I-1
I-1
I2
I2
I2
I1
I2
I-1
I-1
I-1
I2
I2
I2
I-2
I2
I-2
I-2
I-2
I-1
I0
I0
I-2
I0
I-2
I-2
I-1
I0
I0
I1
I0
I-1
I-2
I-1
I1
I1
I2
I1
I-1
I2
I2
I2
I0
I2
I2
I2
I2
I2
I0
I1
I2
I2
I2
I2
I1
I1
I-1
I0
I1
I2
I2
I1
I1
I1
I0
I-1
I2
I2
I2
I1
I1
I2
I1
I0
I2
I2
I2
I1
I2
I2
I0
I0
I2
I2
I2
I2
I2
I2
I0
I2
I2
I2
I2
I1
I1
I1
I-2
I2
I1
I1
I2
I-1
I-2
I-2
I-2
I-1
I-2
I-2
I-2
I-2
I0
I-2
I-2
I-1
I2
I1
I-1
I2
I-1
I-2
I-2
I-2
I-1
I1
I1
I-2
I-1
I-2
I-2
I-2
I-1
I0
I-2
I-2
I-1
I-2
I-2
I-2
I0
I-1
I-2
I-1
I1
I-2
I-2
I-2
I1
I1
I1
I2
I2
I-2
I-2
I-1
I-1
I1
I1
I1
I1
I-2
I-1
I2
I-1
I1
I1
I0
I2
I-2
I1
I-1
I-1
I2
I2
I1
I2
I1
I2
I0
I-2
I-1
I-2
I-2
I-2
I-1
I-2
I1
I2
I2
I2
I1
I2
I1
I-2
I1
I2
I2
I-1
I1
I-1
I-2
I-2
I1
I1
I-1
I-1
I1
I-2
I-2
I-2
I-1
I-2
I-1
I-1
I1
I-2
I-2
I-1
I-2
I-1
I-1
I-1
I0
I-2
I-1
I1
I-1
I0
I1
I0
I2
I-1
I1
I1
I-2
I-2
I-2
I-1
I-2
I-1
I2
I1
I-2
I1
I-2
I-1
I-1
I2
I-1
I1
I1
I-2
I2
I2
I2
I2
I1
I2
I2
I2
I-1
I-1
I2
I2
I2
I1
I2
I1
I1
I1
I-2
I1
I-1
I-1
I1
I-1
I-1
I-1
I2
I1
tp54
sS'd6a7c7a4368bc712.jpg'
p55
(I1
I1
I0
I-1
I0
I-1
I-1
I-1
I0
I-1
I-1
I-1
I-1
I1
I0
I0
I1
I0
I0
I1
I0
I-1
I1
I-1
I2
I-1
I1
I1
I-2
I-2
I-2
I-2
I-2
I2
I-2
I1
I-1
I-2
I2
I2
I1
I-1
I1
I-1
I-1
I-2
I0
I1
I1
I1
I1
I1
I-2
I-1
I1
I1
I0
I-1
I0
I-2
I-2
I1
I1
I-1
I0
I0
I-1
I-2
I1
I1
I0
I1
I1
I1
I1
I1
I1
I0
I-1
I-1
I2
I-1
I0
I0
I-1
I-2
I-1
I2
I-1
I0
I-2
I-1
I-2
I2
I2
I1
I-2
I2
I-2
I0
I2
I-1
I2
I-1
I2
I2
I2
I1
I-1
I-2
I-1
I-2
I2
I2
I2
I2
I1
I1
I0
I2
I1
I2
I2
I-1
I2
I-1
I1
I2
I-1
I-1
I-1
I-2
I0
I-2
I-1
I-2
I-1
I-1
I0
I0
I-1
I-1
I-2
I-2
I0
I1
I1
I1
I-2
I-1
I-1
I2
I2
I2
I0
I2
I2
I1
I2
I2
I-2
I-2
I-2
I-2
I-2
I-2
I-1
I-2
I1
I-2
I2
I2
I-2
I1
I-1
I-1
I1
I2
I2
I0
I1
I1
I2
I2
I2
I2
I-2
I-1
I2
I-2
I1
I1
I2
I1
I-2
I1
I1
I-1
I-1
I1
I0
I-1
I2
I2
I1
I1
I-1
I1
I-1
I1
I2
I1
I-1
I1
I2
I0
I2
I2
I-2
I-2
I2
I-2
I1
I-2
I-1
I-2
I-2
I1
I-2
I-1
I-2
I-1
I-2
I-2
I2
I2
I2
I2
I-1
I-1
I-2
I1
I1
I-2
I-2
I-2
I-1
I-1
I1
I0
I-2
I-1
I-2
I-2
I-1
I-1
I-1
I-2
I-2
I0
I-1
I0
I-1
I1
I-1
I-1
I1
I1
I1
I1
I0
I1
I2
I2
I2
I1
I-1
I-2
I2
I-2
I2
I0
I-1
I-1
I-2
I1
I1
I-2
I-2
I-2
I-2
I-2
I2
I2
I-2
I2
I-2
I2
I2
I-1
I2
I1
I2
I2
I2
I-1
I0
I-2
I-1
I-2
I2
I2
I2
I2
I2
I2
I-1
I1
I1
I2
I1
I-2
I1
I-2
I-1
I1
I0
I-1
I-2
I-1
I1
I-2
I0
I0
I-1
I-2
I0
I-1
I-1
I0
I-1
I-1
I-1
I1
I2
I1
I0
I1
I1
I-2
I1
I2
I-2
I0
I-1
I1
I-2
I2
I2
I-2
I-2
I1
I-2
I-2
I2
I-2
I1
I-2
I2
I2
I1
I1
I-2
I-2
I-1
I-1
I2
I1
I2
I2
I1
I2
I1
I2
I-1
I1
I2
I-1
I2
I1
I2
I2
I-2
I0
I0
I-2
I0
I-1
I-1
I-1
I0
I1
I-1
I0
I0
I-1
I-1
I-1
I1
I-1
I-1
I0
I-2
I-1
I-1
I2
I2
I2
I2
I2
I2
I2
I2
I2
I-2
I-2
I-2
I-2
I-2
I-1
I-2
I-2
I2
I-1
I2
I2
I-2
I1
I-2
I-1
I1
I1
I1
I-1
I-1
I1
I1
I2
I2
I2
I-2
I-2
I1
I-1
I0
I1
I1
I0
I-2
I1
I1
I0
I-1
I1
I0
I-1
I1
I1
I1
I1
I1
I1
I-1
I2
I1
I1
I-2
I-1
I2
I-1
I2
I2
I-2
I-2
I1
I-2
I-2
I-2
I-2
I-2
I-2
I2
I-2
I2
I-2
I-1
I-2
I-2
I2
I2
I2
I2
I-1
I-1
I-2
I0
I-1
I-2
I-1
I0
I0
I-2
I-1
I-1
I0
I-1
I0
I0
I-1
I1
I-1
I1
I1
I1
I1
I2
I-2
I-2
I2
I-2
I1
I-2
I2
I1
I-1
I-2
I2
I2
I-2
I2
I-2
I2
I1
I2
tp56
sS'5485351d52bbe0db.jpg'
p57
(I-1
I2
I-2
I1
I2
I2
I-1
I0
I-2
I-1
I-2
I-2
I-2
I1
I1
I-2
I-2
I-2
I-1
I-2
I-2
I-2
I-1
I2
I-2
I1
I2
I1
I2
I0
I2
I2
I0
I0
I0
I2
I0
I1
I0
I-1
I1
I-2
I-2
I-2
I-2
I-2
I2
I1
I2
I2
I1
I2
I0
I2
I0
I2
I2
I-1
I2
I-1
I2
I2
I2
I2
I2
I-2
I-1
I2
I1
I0
I2
I2
I-1
I1
I2
I2
I1
I-1
I1
I-2
I-2
I-2
I-2
I-2
I-2
I-2
I-1
I-2
I-2
I2
I-2
I0
I-1
I-2
I0
I0
I1
I2
I1
I2
I1
I1
I-1
I-1
I-1
I1
I1
I2
I-2
I-2
I1
I-1
I2
I0
I1
I2
I2
I2
I2
I2
I-2
I-2
I-2
I-2
I-1
I-2
I-1
I0
I-2
I-1
I-2
I1
I-1
I1
I1
I0
I0
I-1
I2
I1
I-1
I2
I1
I-2
I1
I2
I0
I1
I-1
I2
I-2
I-2
I2
I1
I-2
I1
I-2
I-2
I-1
I-2
I2
I-1
I-1
I2
I0
I1
I-1
I-1
I-1
I-1
I0
I-1
I-1
I-1
I-2
I-2
I2
I-2
I1
I-2
I2
I2
I2
I2
I-1
I-1
I-2
I1
I-1
I-2
I1
I-2
I-2
I-2
I0
I-1
I-2
I-1
I-1
I-2
I-2
I-2
I0
I-1
I-2
I1
I-2
I-1
I-1
I-1
I2
I2
I2
I2
I2
I2
I2
I2
I2
I1
I-1
I-2
I-2
I2
I2
I-2
I2
I1
I1
I2
I1
I2
I1
I1
I1
I1
I-1
I-1
I1
I-2
I-2
I-2
I-2
I-2
I2
I1
I2
I2
I1
I1
I1
I2
I1
I2
I2
I-1
I2
I1
I2
I2
I2
I2
I1
I-2
I-1
I2
I1
I-1
I2
I1
I-2
I1
I1
I1
I0
I-1
I1
I-2
I-2
I-1
I-1
I0
I-1
I-2
I-2
I-2
I-2
I1
I-2
I0
I-2
I-2
I2
I-1
I1
I2
I1
I2
I1
I2
I-1
I-1
I-1
I1
I1
I2
I-1
I1
I2
I2
I2
I-1
I-1
I-1
I2
I2
I1
I1
I-2
I-2
I-2
I-2
I-2
I-2
I-2
I-2
I-2
I-1
I-1
I2
I-1
I-2
I-1
I-2
I1
I0
I0
I1
I-1
I1
I-2
I-2
I1
I1
I0
I1
I-2
I-1
I-2
I-2
I2
I2
I-2
I2
I-1
I1
I1
I-1
I2
I-1
I-1
I1
I1
I1
I-1
I1
I-2
I-1
I-1
I-1
I1
I-2
I-2
I-2
I-1
I-2
I-2
I-1
I2
I2
I1
I2
I-2
I0
I-1
I2
I2
I-1
I1
I-2
I-1
I1
I2
I1
I-1
I-1
I-2
I-1
I0
I-1
I2
I2
I1
I2
I-1
I2
I1
I1
I2
I2
I-1
I1
I1
I2
I2
I1
I1
I-1
I-1
I-1
I-2
I1
I1
I-2
I1
I1
I1
I2
I2
I2
I1
I1
I-1
I-1
I-2
I-1
I-1
I1
I-2
I-2
I-2
I-2
I2
I2
I2
I2
I2
I1
I1
I2
I0
I1
I1
I-2
I1
I-1
I2
I1
I-1
I0
I-2
I-1
I-1
I1
I-1
I-1
I1
I-1
I-2
I1
I0
I1
I1
I1
I-1
I-2
I-1
I0
I0
I1
I1
I-2
I-1
I-1
I-2
I0
I-2
I1
I-2
I-2
I2
I-1
I1
I2
I0
I-1
I0
I1
I-1
I1
I0
I1
I1
I2
I-1
I1
I2
I-1
I1
I-1
I2
I-2
I-2
I-1
I-2
I-2
I-1
I1
I-1
I2
I1
I1
I-1
I-1
I-1
I0
I-1
I-1
I-1
I0
I-2
I2
I2
I1
I2
I1
I2
I0
I-1
I-1
I1
I-1
I-1
I-1
tp58
sS'f546f9f20d9d12d3.jpg'
p59
(I-2
I2
I2
I2
I1
I2
I2
I2
I-1
I-2
I2
I2
I1
I2
I2
I2
I2
I2
I-2
I1
I0
I1
I2
I-1
I1
I1
I2
I2
I-1
I1
I1
I1
I2
I-1
I0
I-1
I2
I1
I0
I2
I1
I-2
I-2
I-1
I-2
I-2
I-2
I-2
I-2
I1
I0
I-2
I-1
I-1
I-2
I-2
I-2
I0
I-2
I-1
I-1
I-1
I-1
I-2
I0
I2
I1
I1
I2
I0
I-2
I-1
I-1
I-1
I1
I1
I-1
I1
I-2
I-2
I-1
I-1
I0
I-2
I1
I0
I-2
I-1
I1
I0
I2
I1
I1
I-2
I-2
I-2
I-2
I-2
I-2
I-2
I-2
I-2
I-1
I-1
I2
I-2
I-2
I2
I2
I1
I-2
I-1
I2
I1
I1
I-1
I0
I-2
I-2
I-2
I1
I1
I-1
I0
I1
I-2
I-2
I-2
I1
I-2
I-1
I-1
I-2
I-2
I-2
I-1
I0
I1
I2
I2
I2
I-1
I1
I1
I-1
I-1
I-1
I-2
I-1
I-2
I-2
I-2
I0
I-1
I2
I1
I-2
I-2
I-2
I-1
I2
I2
I2
I2
I-1
I1
I1
I1
I2
I2
I1
I1
I1
I2
I2
I2
I2
I2
I1
I2
I2
I-2
I-1
I2
I1
I1
I2
I2
I2
I1
I1
I1
I2
I1
I2
I2
I1
I-1
I2
I1
I-1
I2
I1
I-1
I2
I-2
I-1
I-2
I1
I2
I-1
I2
I2
I1
I0
I1
I2
I2
I2
I2
I-1
I0
I1
I2
I2
I2
I1
I-1
I-1
I-1
I-1
I2
I2
I1
I-1
I-1
I1
I2
I2
I-2
I-2
I-2
I2
I2
I-2
I-1
I-1
I2
I1
I2
I2
I2
I-1
I-2
I-1
I-1
I-2
I2
I2
I-1
I-1
I1
I2
I2
I2
I2
I1
I2
I-2
I-1
I-1
I-2
I1
I-1
I-1
I0
I-2
I-2
I-2
I-1
I1
I-2
I-1
I1
I-2
I-2
I-2
I-1
I1
I-2
I0
I1
I-2
I-2
I-2
I-1
I-1
I-1
I1
I-1
I-1
I-2
I1
I2
I-1
I-2
I-2
I1
I-2
I-2
I-2
I-2
I-2
I-1
I-2
I-2
I-2
I-2
I-2
I-2
I-2
I2
I-2
I-2
I-2
I-1
I1
I-1
I1
I2
I1
I-2
I1
I1
I-2
I1
I2
I-1
I1
I-1
I-1
I-1
I0
I1
I2
I-1
I1
I-1
I-1
I-2
I-1
I0
I1
I-2
I1
I-2
I-2
I-2
I-1
I-1
I-2
I-1
I-2
I-2
I-2
I-2
I1
I1
I2
I-2
I-2
I2
I2
I1
I-1
I1
I2
I2
I2
I-1
I-1
I-1
I1
I-1
I2
I2
I2
I1
I2
I1
I1
I1
I1
I-1
I1
I-2
I-1
I-2
I-1
I0
I-1
I1
I1
I1
I1
I-1
I1
I-1
I1
I1
I2
I-1
I-1
I0
I-1
I1
I2
I2
I2
I1
I-1
I1
I1
I1
I2
I2
I2
I1
I-1
I1
I1
I1
I2
I2
I1
I2
I2
I1
I1
I1
I2
I2
I-1
I-1
I-1
I-2
I-1
I2
I1
I2
I1
I-1
I2
I1
I1
I1
I2
I2
I-1
I1
I1
I-1
I1
I2
I1
I2
I0
I-1
I0
I-1
I-1
I-1
I1
I2
I1
I1
I-1
I1
I1
I1
I2
I2
I-1
I-1
I-1
I-1
I0
I2
I1
I2
I-1
I-1
I-2
I0
I0
I2
I2
I2
I-1
I-2
I0
I2
I2
I-2
I-2
I-2
I-2
I-1
I-1
I2
I2
I-2
I-2
I-2
I-2
I-1
I-2
I-1
I1
I1
I1
I-2
I-1
I-1
I-1
I2
I-2
I-2
I-2
I-2
I-1
I-2
I-1
I-2
I1
I1
I-2
I-2
I-2
I-1
I-1
I-2
I-2
I1
tp60
sS'61c49076b4ac4b10.jpg'
p61
(I-1
I-2
I2
I1
I2
I-1
I2
I2
I-2
I-2
I-1
I-1
I-1
I2
I2
I1
I1
I1
I-2
I-1
I-2
I-2
I-1
I1
I-2
I-2
I-1
I1
I2
I2
I2
I2
I1
I-2
I2
I2
I-1
I-1
I-2
I-2
I-2
I2
I1
I2
I2
I2
I-2
I-2
I1
I-2
I-1
I-2
I-2
I1
I-2
I1
I-1
I1
I-1
I-1
I2
I2
I1
I-1
I2
I1
I1
I2
I2
I-1
I-1
I2
I2
I-1
I2
I2
I-1
I1
I1
I1
I-2
I-2
I1
I-2
I-2
I1
I-1
I-2
I-2
I-2
I-2
I-2
I0
I-2
I-1
I1
I2
I2
I1
I2
I2
I1
I1
I2
I-1
I1
I-1
I-2
I2
I1
I-2
I-1
I-2
I2
I1
I-1
I2
I-2
I-1
I0
I-1
I-2
I-2
I-2
I1
I-2
I-2
I0
I-2
I-2
I-2
I-1
I-2
I-2
I-1
I1
I1
I1
I2
I2
I1
I2
I2
I1
I-1
I2
I2
I-1
I2
I2
I1
I-1
I-1
I0
I-2
I-2
I-2
I-2
I-2
I-1
I2
I-2
I-1
I2
I-2
I-2
I1
I-1
I-1
I1
I2
I2
I1
I2
I2
I1
I1
I1
I1
I1
I2
I-1
I1
I-1
I-1
I2
I0
I2
I2
I-1
I2
I-1
I2
I-1
I0
I1
I-2
I-2
I1
I-1
I-2
I-1
I-1
I-2
I-2
I-1
I-2
I-2
I-2
I-2
I-1
I-1
I2
I2
I-1
I1
I0
I-2
I1
I2
I2
I1
I2
I1
I-1
I2
I1
I-1
I-2
I-2
I-1
I-2
I-1
I-1
I1
I-1
I1
I0
I0
I-1
I1
I0
I1
I2
I-1
I1
I1
I0
I2
I1
I2
I2
I-2
I-2
I1
I-2
I-2
I1
I1
I1
I1
I2
I2
I2
I2
I2
I2
I2
I1
I2
I-1
I-2
I-1
I-1
I-1
I-1
I2
I0
I-1
I1
I-2
I-1
I1
I2
I2
I1
I2
I2
I2
I2
I2
I1
I-2
I1
I0
I-2
I0
I2
I-2
I-1
I1
I0
I0
I-2
I-1
I-1
I-1
I2
I0
I-1
I-2
I-2
I-1
I-2
I-1
I-2
I-2
I-1
I-2
I-1
I-2
I1
I-1
I-2
I-1
I1
I-1
I-2
I1
I1
I-1
I1
I1
I-1
I-2
I1
I1
I1
I1
I2
I1
I-1
I1
I-1
I-2
I-1
I2
I-1
I-2
I0
I-2
I-2
I-2
I-2
I-2
I-2
I-2
I-2
I-1
I2
I2
I2
I1
I2
I2
I1
I1
I1
I-1
I2
I1
I0
I2
I-1
I-1
I1
I1
I2
I2
I1
I2
I-1
I1
I2
I1
I1
I-1
I-2
I1
I-2
I-2
I-1
I-1
I-1
I-2
I-1
I-1
I-2
I-2
I1
I1
I-1
I1
I1
I-2
I-1
I2
I2
I1
I2
I2
I2
I2
I2
I2
I1
I0
I2
I-2
I-2
I1
I1
I-2
I-1
I2
I-2
I-2
I-1
I-1
I-2
I-1
I1
I-1
I-1
I1
I1
I2
I1
I1
I2
I-1
I1
I-1
I-1
I2
I-2
I1
I-2
I-1
I1
I-2
I2
I2
I-1
I1
I-1
I1
I-1
I1
I2
I1
I-1
I2
I-1
I-2
I-1
I-1
I-2
I-2
I-2
I-1
I-2
I-2
I-2
I-2
I-2
I-1
I1
I-2
I-2
I-2
I-1
I-1
I2
I2
I2
I2
I1
I2
I2
I1
I1
I-1
I-2
I2
I1
I0
I-1
I-1
I-2
I-2
I-2
I-2
I1
I2
I2
I-1
I1
I1
I-2
I1
I-1
I-1
I1
I-1
I-2
I1
I2
I2
I2
I2
I1
I2
I2
I-2
I1
I2
I2
I-1
I-1
I1
I1
I-2
I-1
I-1
I-1
I-2
I0
I2
I1
I-1
I1
I2
I1
tp62
sS'60fa5cfa908e9630.jpg'
p63
(I1
I-2
I-1
I-1
I1
I-2
I-2
I-2
I-1
I-1
I-2
I-2
I-2
I1
I-2
I-2
I-2
I-2
I2
I1
I0
I-1
I-1
I-1
I0
I-2
I-1
I-1
I0
I-1
I-1
I-1
I1
I1
I-1
I1
I2
I-1
I1
I2
I1
I2
I2
I1
I-1
I-2
I1
I2
I2
I-1
I-1
I-2
I-2
I-2
I2
I2
I2
I1
I1
I-2
I-1
I-2
I2
I2
I0
I-1
I-1
I-2
I-2
I-2
I2
I1
I2
I1
I1
I-1
I-1
I-1
I1
I1
I1
I-1
I1
I-2
I-1
I2
I1
I1
I-1
I-1
I1
I-2
I1
I2
I-1
I-2
I-2
I-1
I-2
I-1
I1
I1
I1
I-1
I2
I2
I2
I1
I2
I-1
I2
I2
I2
I2
I2
I1
I1
I2
I2
I2
I2
I1
I2
I-1
I-1
I2
I2
I2
I2
I2
I1
I1
I-1
I2
I2
I2
I2
I1
I2
I1
I1
I2
I2
I0
I1
I1
I2
I-1
I2
I2
I-1
I-1
I-2
I-1
I1
I-2
I1
I-2
I-2
I-2
I-2
I-1
I-2
I-1
I-1
I-2
I-2
I-2
I-1
I-2
I1
I-2
I-1
I-2
I-2
I1
I1
I2
I-2
I-2
I-2
I-1
I1
I-1
I1
I1
I-2
I-2
I-2
I-1
I-1
I0
I1
I0
I-2
I-2
I-2
I1
I-1
I2
I2
I-1
I-2
I-2
I-2
I1
I-2
I2
I-1
I-1
I0
I1
I2
I2
I-1
I2
I2
I2
I1
I2
I2
I1
I2
I2
I2
I2
I2
I2
I2
I-2
I2
I2
I2
I1
I2
I1
I-2
I1
I-1
I-1
I1
I1
I-2
I-2
I-2
I-1
I0
I-1
I1
I-2
I-2
I-2
I-1
I-1
I-2
I-1
I-1
I-2
I-2
I-2
I0
I-2
I-2
I1
I-2
I-2
I-2
I-2
I1
I1
I-2
I2
I-1
I-1
I-2
I-2
I1
I-2
I-2
I1
I1
I-2
I-2
I-1
I-2
I-2
I-2
I-1
I1
I-2
I-1
I2
I-2
I-2
I-1
I-1
I-1
I-2
I1
I-2
I-1
I1
I1
I2
I-1
I2
I2
I2
I1
I1
I2
I2
I2
I-2
I-1
I-1
I-1
I-1
I2
I2
I2
I1
I1
I1
I1
I1
I2
I2
I1
I-1
I-1
I0
I0
I-1
I2
I2
I2
I1
I0
I1
I1
I-2
I2
I2
I2
I0
I1
I1
I-2
I2
I1
I1
I2
I-1
I2
I-2
I1
I2
I-2
I-1
I-2
I-2
I-2
I-1
I-1
I-2
I2
I1
I2
I2
I1
I-1
I1
I0
I2
I2
I-1
I1
I-1
I0
I0
I2
I2
I2
I1
I-1
I0
I0
I0
I2
I2
I2
I-1
I0
I-1
I0
I-1
I2
I2
I2
I1
I-1
I-1
I1
I-2
I2
I2
I1
I2
I2
I2
I2
I2
I2
I2
I2
I-2
I-1
I1
I-2
I1
I-1
I-2
I-1
I-2
I1
I-2
I-1
I-1
I-2
I-2
I-1
I2
I-1
I1
I-1
I1
I-2
I-2
I1
I-1
I-1
I-2
I-2
I-2
I-1
I1
I-1
I-1
I-1
I-2
I-2
I-2
I-1
I-2
I-2
I-2
I-2
I-2
I-2
I-2
I2
I0
I-1
I-1
I-1
I-2
I-2
I-2
I0
I-1
I-1
I-1
I-1
I-1
I-2
I1
I1
I-1
I1
I0
I2
I-2
I2
I2
I1
I1
I1
I2
I2
I1
I2
I1
I-1
I1
I1
I2
I2
I1
I-1
I-2
I1
I1
I1
I1
I-1
I1
I1
I2
I1
I0
I1
I2
I1
I0
I-1
I2
I1
I1
I1
I-1
I1
I1
I-1
I1
I0
I1
I0
I-1
I0
I1
I-2
I-2
I-1
I-1
I1
I-2
I-2
I-1
I-1
I-1
I-2
I-1
I1
tp64
sS'f1a93474ca6af0ab.jpg'
p65
(I0
I0
I2
I0
I1
I0
I2
I2
I-1
I-1
I1
I2
I2
I1
I2
I2
I2
I2
I-2
I2
I2
I1
I-2
I-2
I-2
I-1
I-2
I-2
I2
I0
I-1
I-2
I0
I0
I1
I-2
I0
I-2
I-1
I-1
I-2
I0
I0
I2
I2
I2
I-2
I-2
I-1
I-2
I1
I0
I1
I1
I-2
I-2
I-2
I-1
I0
I0
I1
I-1
I-2
I-2
I-2
I0
I-1
I0
I-1
I-1
I-2
I-1
I1
I1
I-2
I1
I-1
I-2
I2
I2
I1
I2
I-2
I2
I0
I-1
I2
I2
I2
I2
I2
I2
I1
I2
I0
I0
I1
I-2
I-2
I-2
I1
I-1
I2
I2
I2
I2
I1
I-2
I0
I1
I-2
I-2
I-2
I-1
I0
I-1
I1
I-2
I-2
I-1
I-1
I-1
I0
I-1
I-1
I-2
I-2
I-1
I1
I1
I-1
I1
I-1
I-1
I-1
I-1
I1
I1
I-2
I1
I-2
I0
I-1
I-1
I2
I0
I-2
I2
I-2
I2
I1
I0
I1
I-1
I2
I1
I2
I2
I1
I2
I-2
I-1
I-2
I-2
I-2
I-2
I0
I1
I1
I-1
I2
I2
I2
I2
I2
I1
I2
I2
I2
I2
I2
I-1
I2
I1
I2
I2
I1
I2
I1
I-2
I0
I-1
I-1
I-2
I1
I1
I0
I0
I-1
I-1
I-2
I1
I1
I1
I-2
I1
I-1
I-2
I1
I2
I1
I-1
I-2
I1
I-1
I1
I2
I1
I0
I-1
I2
I1
I2
I2
I2
I0
I-2
I0
I-2
I-2
I1
I-1
I-2
I-2
I-1
I-2
I-1
I-2
I-2
I-2
I-1
I1
I1
I1
I-2
I-2
I1
I-1
I0
I1
I1
I2
I-2
I1
I1
I0
I-2
I1
I2
I2
I2
I2
I2
I2
I2
I2
I2
I2
I-1
I-1
I-1
I-2
I1
I1
I2
I-1
I-2
I-2
I-2
I-1
I-2
I1
I-2
I-2
I-1
I-2
I1
I2
I-1
I-1
I-2
I-2
I0
I2
I2
I1
I-1
I-1
I-1
I-2
I2
I2
I1
I1
I-1
I-1
I-1
I-1
I-2
I-1
I-1
I-1
I-1
I1
I1
I-2
I0
I1
I-2
I-2
I-2
I-1
I0
I-1
I-1
I-1
I-2
I-2
I-1
I0
I1
I-1
I-1
I-2
I-2
I-2
I-1
I-1
I-2
I-2
I-2
I-2
I1
I2
I1
I2
I-2
I1
I-2
I-2
I2
I2
I1
I2
I1
I1
I-1
I2
I2
I1
I-1
I-1
I-2
I-2
I2
I2
I2
I1
I2
I2
I2
I2
I2
I2
I0
I-1
I1
I0
I1
I-2
I1
I-2
I-2
I-1
I-1
I1
I1
I-1
I-1
I-2
I-1
I-2
I1
I1
I2
I1
I-1
I-1
I-1
I-2
I2
I2
I-1
I1
I-2
I-1
I-1
I1
I2
I2
I-1
I2
I-2
I1
I2
I1
I2
I1
I2
I2
I2
I2
I2
I2
I-2
I-2
I-2
I-2
I0
I-2
I0
I1
I-2
I-2
I0
I0
I1
I0
I2
I-1
I1
I2
I1
I2
I2
I1
I2
I1
I2
I2
I1
I1
I1
I-2
I-1
I1
I0
I-1
I2
I1
I1
I1
I-1
I1
I-1
I0
I2
I1
I-1
I1
I2
I-1
I1
I1
I-1
I-2
I-2
I-2
I-2
I-1
I-1
I-1
I-1
I-2
I2
I2
I2
I2
I1
I1
I-2
I0
I0
I-2
I1
I-1
I-2
I-2
I-1
I-1
I-1
I-2
I-2
I-1
I-1
I1
I-2
I-2
I-1
I-1
I-1
I-2
I0
I-1
I1
I-1
I1
I1
I1
I1
I1
I0
I-1
I1
I-1
I1
I-1
I1
I-2
I-1
I-1
I1
I-1
I1
I1
I-1
I-1
I2
I2
I1
I-2
I2
I2
I2
tp66
sS'06aafc5a4c9fbc01.jpg'
p67
(I2
I-1
I2
I-2
I1
I-2
I1
I2
I-1
I-1
I-1
I2
I2
I1
I2
I2
I2
I-1
I-2
I1
I1
I-2
I-1
I-1
I-2
I-2
I-2
I-2
I2
I-1
I-1
I-1
I-1
I1
I0
I1
I0
I1
I0
I0
I1
I1
I2
I2
I2
I2
I-2
I-1
I1
I-2
I2
I0
I1
I2
I-2
I-2
I-2
I-2
I1
I-1
I1
I-1
I-2
I-2
I-1
I-1
I-2
I0
I-1
I-1
I1
I2
I2
I2
I1
I2
I1
I2
I1
I2
I1
I-1
I-1
I1
I2
I2
I2
I1
I-1
I1
I-1
I2
I2
I1
I1
I0
I0
I1
I1
I2
I2
I1
I-1
I-1
I-1
I1
I1
I-2
I0
I1
I-2
I-1
I-2
I-1
I1
I-1
I1
I-2
I-2
I-1
I-2
I-1
I0
I-1
I-1
I-2
I-2
I-2
I1
I1
I-2
I1
I-1
I-2
I-2
I-2
I1
I-1
I-1
I1
I1
I-2
I-1
I-1
I-2
I-2
I-2
I-1
I0
I-1
I-1
I-2
I-2
I-2
I-2
I0
I-1
I-1
I-2
I-2
I-1
I-2
I-1
I1
I-1
I-2
I-2
I-2
I-1
I-1
I1
I-2
I-2
I2
I2
I2
I1
I2
I1
I2
I2
I-2
I1
I-2
I2
I2
I1
I2
I2
I-1
I-1
I1
I2
I2
I2
I2
I2
I1
I2
I2
I2
I1
I2
I1
I1
I-2
I1
I2
I-1
I1
I1
I1
I1
I-1
I-2
I-1
I0
I-1
I2
I2
I2
I2
I0
I2
I2
I1
I2
I2
I2
I0
I1
I2
I1
I2
I2
I2
I-1
I1
I2
I-1
I2
I2
I2
I2
I-2
I-2
I-1
I-2
I1
I-1
I-1
I1
I-2
I-2
I-2
I-1
I0
I-2
I-1
I1
I-2
I-2
I-2
I0
I-2
I-1
I1
I-1
I-1
I1
I1
I2
I1
I2
I2
I2
I-1
I0
I-2
I-1
I-1
I2
I2
I1
I1
I-2
I-2
I1
I-1
I2
I1
I1
I-1
I-1
I-1
I1
I1
I2
I1
I1
I-2
I-2
I-1
I1
I-1
I-2
I1
I1
I-2
I-1
I-2
I1
I2
I-1
I1
I-2
I-1
I-1
I-1
I1
I1
I-1
I1
I-2
I-1
I-2
I-1
I-1
I-2
I-1
I-1
I-2
I-2
I-2
I1
I-2
I-2
I1
I1
I-2
I-2
I-2
I-2
I-2
I-2
I-1
I-1
I-2
I-2
I-2
I-1
I-1
I-2
I1
I-1
I-1
I-2
I-2
I-1
I-1
I-1
I1
I-1
I-2
I-2
I-2
I-1
I1
I1
I-2
I-1
I2
I2
I2
I2
I2
I1
I1
I2
I-2
I1
I-1
I2
I2
I1
I1
I2
I-1
I-1
I2
I2
I2
I2
I2
I2
I1
I1
I2
I2
I1
I2
I2
I2
I-1
I0
I2
I-1
I1
I2
I2
I1
I0
I-1
I-1
I1
I1
I2
I2
I2
I1
I-1
I2
I2
I2
I2
I2
I2
I1
I1
I2
I2
I2
I2
I1
I-1
I1
I2
I-2
I1
I2
I1
I1
I-2
I-2
I-2
I-2
I1
I-2
I-2
I-2
I-2
I-2
I-2
I-1
I1
I-2
I-2
I-1
I-2
I-2
I-2
I-1
I-2
I-2
I-2
I-1
I-1
I1
I1
I2
I2
I2
I2
I2
I-1
I-1
I-2
I-2
I0
I1
I1
I-1
I-1
I-2
I-2
I0
I-1
I1
I-1
I-2
I-2
I-2
I-2
I1
I1
I-1
I-1
I-1
I-2
I-2
I-1
I-2
I-2
I-1
I2
I1
I-1
I2
I2
I-1
I1
I2
I2
I2
I-1
I2
I1
I2
I-2
I-2
I1
I1
I-2
I-1
I-1
I-1
I-2
I-1
I-1
I1
I-2
I1
I1
I1
I2
I-1
I1
I1
I2
I1
I0
I1
I2
I0
tp68
sS'8519ed15865084b3.jpg'
p69
(I1
I2
I0
I-1
I2
I2
I-1
I0
I-2
I1
I-2
I-2
I-2
I-1
I-1
I-2
I-2
I-2
I1
I-2
I-2
I-2
I-2
I2
I-2
I1
I-2
I-2
I2
I-1
I1
I-2
I-2
I1
I-1
I-1
I-2
I-2
I1
I-1
I-1
I-2
I-2
I-2
I-1
I-2
I0
I1
I2
I2
I1
I2
I-1
I1
I0
I2
I2
I-1
I1
I-1
I0
I-1
I2
I2
I2
I-1
I1
I-1
I-1
I-1
I2
I2
I-1
I-1
I-2
I-2
I-1
I-2
I2
I2
I-1
I2
I-2
I1
I1
I1
I2
I2
I1
I2
I-1
I2
I2
I-1
I2
I2
I1
I1
I-1
I2
I0
I-2
I2
I1
I1
I1
I-2
I1
I-2
I-2
I-1
I-1
I2
I1
I1
I2
I2
I2
I2
I2
I-1
I0
I1
I-2
I-1
I0
I0
I-1
I1
I1
I2
I1
I1
I1
I1
I2
I1
I1
I-1
I-1
I-1
I-1
I1
I1
I2
I-1
I-2
I1
I-1
I1
I1
I-2
I-1
I-2
I-2
I1
I-2
I2
I-2
I-2
I1
I0
I-1
I2
I-2
I2
I1
I1
I2
I2
I2
I2
I2
I1
I-2
I-1
I-1
I-1
I1
I-2
I0
I1
I0
I-1
I-1
I1
I-2
I0
I-1
I0
I-1
I-1
I1
I2
I1
I-1
I1
I1
I2
I2
I2
I2
I-2
I-1
I-1
I-2
I1
I2
I1
I-1
I-1
I-1
I-2
I-1
I-2
I1
I-1
I-2
I2
I2
I-2
I2
I-1
I2
I2
I0
I2
I-1
I-2
I1
I-1
I2
I1
I-1
I-1
I-2
I1
I1
I-1
I1
I1
I-1
I2
I-1
I1
I1
I1
I1
I2
I2
I0
I1
I-1
I-1
I-2
I-2
I2
I-2
I-2
I-1
I-2
I-2
I-2
I-2
I-2
I-2
I-2
I-2
I-2
I-1
I-1
I2
I-1
I-1
I-2
I-2
I1
I1
I-2
I1
I-1
I-1
I-2
I-2
I2
I-2
I-2
I1
I-2
I-1
I-2
I-2
I0
I-1
I-1
I2
I-2
I0
I-2
I-2
I1
I1
I2
I0
I-1
I-2
I-2
I-2
I-2
I-2
I1
I0
I2
I2
I1
I2
I0
I-2
I-1
I2
I2
I-1
I1
I-1
I-2
I-2
I1
I2
I1
I-1
I-1
I-2
I-2
I-2
I2
I2
I1
I1
I-1
I-1
I-1
I0
I2
I2
I1
I1
I-1
I0
I1
I0
I2
I2
I0
I1
I-1
I2
I1
I-2
I2
I2
I0
I1
I-1
I2
I0
I-2
I2
I1
I1
I1
I-1
I2
I-2
I-2
I-1
I-1
I2
I0
I1
I2
I-1
I2
I2
I2
I2
I2
I2
I1
I1
I2
I2
I2
I2
I2
I1
I-1
I1
I2
I2
I2
I1
I1
I0
I-1
I1
I2
I2
I2
I0
I-1
I-2
I-1
I-1
I2
I2
I-2
I0
I-1
I-2
I1
I-2
I2
I-1
I-2
I2
I0
I-1
I2
I-1
I2
I1
I1
I1
I1
I1
I2
I2
I1
I-2
I-1
I1
I-2
I1
I-2
I-2
I1
I1
I1
I-1
I-1
I-2
I-2
I-2
I-1
I0
I-2
I-2
I0
I-2
I-2
I-2
I0
I1
I-2
I1
I-1
I-2
I-2
I-2
I-1
I0
I0
I-1
I-1
I-2
I-2
I-2
I0
I-2
I-1
I-1
I-2
I2
I1
I-2
I2
I-1
I2
I1
I-2
I2
I-1
I-2
I1
I-1
I1
I-1
I-1
I-1
I-2
I1
I0
I-1
I-1
I-1
I-2
I2
I1
I2
I2
I1
I1
I2
I2
I-1
I2
I0
I-1
I0
I-2
I-1
I1
I1
I1
I1
I0
I1
I1
I-2
I0
I-2
I2
I-1
I-1
I2
I-2
I2
I1
I0
I2
I-1
I1
I1
I1
tp70
sS'400a18e302ed3ae4.jpg'
p71
(I1
I-2
I-2
I-1
I1
I-2
I-2
I-2
I-1
I-1
I-2
I-2
I-2
I1
I-1
I-2
I-1
I-2
I1
I-1
I0
I-2
I0
I1
I-2
I-1
I1
I0
I1
I2
I2
I2
I2
I-2
I-1
I-2
I0
I0
I1
I1
I1
I2
I2
I1
I-2
I-2
I2
I2
I2
I-1
I1
I-2
I-2
I-2
I2
I2
I2
I-1
I1
I-2
I-2
I0
I2
I1
I0
I-1
I-2
I-2
I-1
I-1
I2
I2
I1
I2
I2
I1
I1
I2
I0
I-2
I-2
I-2
I-1
I-1
I0
I-2
I0
I-2
I2
I1
I2
I1
I-1
I-2
I-2
I0
I-1
I-2
I0
I-2
I-2
I-2
I0
I-1
I0
I-2
I-2
I2
I2
I1
I2
I2
I2
I2
I2
I-1
I1
I2
I2
I2
I2
I2
I2
I-1
I2
I2
I2
I2
I0
I1
I-1
I-2
I-1
I0
I1
I1
I1
I-1
I1
I1
I1
I1
I1
I1
I-2
I0
I-1
I-1
I-2
I-1
I-1
I-2
I2
I1
I2
I2
I-1
I2
I-1
I2
I2
I2
I2
I1
I1
I1
I2
I2
I2
I2
I-1
I2
I2
I-2
I-2
I1
I-2
I-2
I-2
I-2
I-2
I-1
I-2
I-2
I-2
I-1
I-2
I-2
I0
I2
I1
I0
I2
I1
I-2
I-1
I-1
I-1
I-1
I1
I1
I1
I-1
I-1
I1
I1
I0
I1
I1
I1
I-1
I1
I-2
I0
I-2
I1
I1
I0
I2
I1
I-1
I2
I2
I2
I2
I2
I-2
I-2
I-2
I-2
I-1
I-1
I-1
I0
I-2
I-2
I1
I1
I1
I2
I2
I2
I0
I-2
I2
I2
I0
I-2
I1
I-2
I-2
I-2
I1
I-2
I-1
I-1
I-1
I-2
I-2
I-2
I-1
I-1
I-1
I1
I0
I-2
I-2
I-2
I-1
I-1
I-1
I0
I0
I-2
I-2
I1
I-1
I-1
I-2
I0
I-1
I-2
I1
I0
I0
I-2
I1
I1
I1
I1
I1
I0
I-2
I1
I-1
I-1
I1
I1
I-1
I0
I0
I-1
I-1
I-1
I0
I0
I2
I-2
I1
I-1
I2
I2
I2
I2
I1
I2
I1
I2
I2
I2
I2
I-1
I1
I1
I2
I2
I2
I2
I2
I-1
I0
I1
I2
I1
I2
I2
I2
I0
I2
I2
I1
I2
I-1
I-1
I-1
I-2
I-1
I-2
I-2
I-2
I0
I-1
I-1
I1
I-1
I-1
I-1
I-1
I0
I1
I1
I1
I1
I-1
I1
I-1
I0
I0
I-1
I0
I-2
I-1
I-2
I-2
I2
I2
I1
I-1
I-1
I2
I2
I2
I2
I2
I-2
I-2
I-1
I-2
I0
I2
I2
I1
I-2
I-2
I-2
I0
I-1
I2
I1
I-1
I-1
I-1
I2
I1
I1
I1
I-1
I1
I-2
I2
I1
I-1
I0
I-1
I0
I-1
I2
I1
I1
I0
I1
I0
I-1
I2
I1
I-1
I0
I-1
I-2
I-2
I2
I-1
I1
I2
I2
I2
I2
I-2
I-2
I1
I-2
I-2
I-2
I-2
I-2
I-1
I-1
I-2
I-2
I-1
I-2
I-2
I-2
I1
I-2
I-2
I-1
I-1
I-1
I-1
I-1
I2
I-1
I1
I1
I1
I1
I1
I1
I1
I1
I2
I2
I1
I-1
I0
I0
I-1
I-1
I1
I1
I1
I1
I1
I2
I1
I2
I2
I2
I2
I-2
I-2
I-2
I-2
I-2
I-1
I-2
I-1
I1
I-2
I2
I1
I1
I2
I2
I2
I2
I2
I2
I-2
I2
I1
I1
I-1
I-2
I-1
I1
I-1
I-2
I1
I-1
I-1
I-2
I-1
I1
I-1
I-1
I-1
I-2
I1
I1
I-1
I-2
I1
I-1
I-1
I-2
I2
I-1
I1
I1
I1
I-1
I-1
tp72
sS'4d25f1a03f1fc946.jpg'
p73
(I-2
I0
I-2
I2
I2
I2
I-1
I2
I-2
I1
I-2
I1
I-1
I-1
I1
I-1
I-1
I-1
I-1
I-1
I-2
I-2
I-2
I1
I1
I-1
I-2
I-2
I-1
I-1
I-2
I-2
I-2
I1
I-1
I-2
I-2
I-2
I1
I-2
I-1
I0
I-2
I-2
I-2
I-1
I2
I1
I2
I2
I2
I0
I2
I2
I-2
I-1
I1
I-2
I-1
I-1
I0
I-1
I1
I1
I2
I1
I1
I1
I0
I0
I1
I2
I1
I-1
I-1
I-1
I0
I-1
I2
I2
I2
I1
I-1
I1
I0
I-1
I2
I2
I2
I1
I-1
I1
I1
I2
I2
I2
I2
I1
I2
I1
I2
I2
I2
I1
I-2
I2
I2
I2
I0
I2
I2
I1
I1
I-2
I1
I-2
I1
I1
I-2
I-2
I-2
I0
I-1
I-1
I-1
I-2
I-2
I-2
I1
I0
I1
I1
I1
I-2
I-2
I-2
I0
I0
I-1
I-1
I-1
I-2
I-2
I-1
I1
I0
I-1
I1
I-1
I-2
I-1
I2
I1
I-1
I-1
I1
I2
I0
I2
I2
I-2
I-2
I-2
I-2
I-1
I0
I0
I-2
I-2
I-2
I1
I1
I-1
I-2
I-1
I-2
I1
I-2
I-1
I2
I2
I2
I-1
I2
I-1
I2
I2
I2
I2
I1
I0
I1
I2
I2
I2
I2
I2
I0
I0
I2
I2
I2
I2
I2
I2
I0
I1
I2
I2
I1
I1
I1
I0
I-1
I2
I1
I-1
I2
I-2
I-2
I0
I-2
I0
I-2
I-1
I0
I-2
I0
I-1
I0
I-2
I-1
I0
I-1
I2
I1
I2
I2
I0
I-1
I-2
I-2
I-1
I-2
I2
I1
I-1
I2
I2
I2
I0
I2
I-2
I-2
I-2
I-2
I-1
I-2
I0
I-1
I-2
I-2
I-2
I1
I-1
I1
I0
I0
I-2
I-2
I-1
I1
I-1
I1
I1
I-1
I-1
I1
I2
I1
I2
I2
I1
I-1
I-2
I1
I1
I-2
I1
I-1
I-2
I-2
I0
I0
I-2
I-1
I-2
I-2
I-2
I-2
I1
I0
I1
I-2
I-1
I1
I-2
I-2
I-2
I-2
I2
I0
I2
I2
I2
I0
I1
I1
I-2
I0
I-1
I-2
I-1
I-2
I-2
I-2
I1
I0
I-1
I1
I0
I-2
I-2
I-1
I0
I-1
I-2
I0
I-1
I-2
I-1
I-2
I1
I-1
I1
I1
I-2
I-1
I-1
I2
I1
I2
I2
I2
I1
I1
I2
I2
I2
I2
I2
I-1
I1
I2
I2
I2
I2
I1
I-1
I2
I2
I2
I0
I1
I2
I1
I2
I-1
I2
I-1
I1
I2
I1
I1
I-1
I2
I2
I-1
I0
I1
I1
I1
I2
I2
I2
I0
I1
I0
I1
I1
I1
I1
I1
I-1
I0
I1
I1
I1
I2
I1
I-1
I0
I2
I1
I1
I2
I-2
I-2
I-2
I-2
I2
I-1
I-1
I0
I-2
I-2
I-2
I-2
I-2
I-2
I-2
I-2
I-2
I-2
I2
I-1
I-1
I-2
I-2
I-2
I0
I-2
I-1
I-1
I-1
I2
I0
I2
I-1
I2
I-1
I-1
I0
I0
I1
I-1
I2
I1
I-1
I-1
I-1
I-1
I0
I1
I-1
I-1
I-1
I-1
I-1
I0
I-1
I-1
I-1
I-2
I-1
I-1
I1
I1
I1
I-1
I-2
I-1
I-2
I1
I2
I-1
I1
I-2
I-2
I0
I0
I2
I1
I-1
I-1
I-2
I-1
I-1
I2
I1
I1
I0
I0
I0
I-2
I-2
I2
I1
I1
I2
I2
I-2
I-2
I-1
I-2
I-1
I-1
I1
I1
I1
I-1
I1
I1
I1
I1
I-1
I2
I2
I2
I1
I1
I1
I2
I2
I-1
I2
I0
I1
I0
I-2
I0
I1
I0
I0
tp74
sS'e194372001f7eba6.jpg'
p75
(I1
I2
I1
I-1
I0
I0
I-1
I1
I0
I-1
I-1
I1
I1
I1
I1
I2
I2
I2
I-1
I1
I2
I2
I1
I-1
I-1
I1
I-1
I1
I1
I-1
I1
I2
I2
I1
I-1
I2
I2
I2
I1
I2
I2
I-2
I0
I-1
I-1
I-2
I-1
I1
I1
I1
I2
I0
I-2
I1
I-1
I-1
I-2
I-2
I0
I-2
I-1
I1
I-1
I-2
I-2
I0
I1
I-1
I1
I1
I-2
I-2
I-1
I-1
I-1
I1
I1
I0
I-1
I1
I-1
I1
I2
I2
I1
I1
I-1
I-2
I-2
I-2
I1
I-1
I-1
I1
I-2
I-2
I-2
I-1
I-2
I-2
I-1
I1
I-2
I-2
I2
I1
I2
I1
I0
I-2
I-1
I-1
I2
I2
I2
I2
I2
I1
I2
I2
I-1
I1
I1
I-2
I1
I-2
I-1
I-2
I-1
I-1
I-1
I-1
I1
I-2
I-2
I-1
I-1
I-1
I-2
I-1
I-1
I-2
I-2
I1
I0
I-1
I1
I1
I0
I-1
I2
I-1
I-1
I1
I2
I0
I2
I2
I-1
I-1
I-1
I1
I-1
I-2
I1
I-2
I-2
I-1
I-1
I-2
I-1
I-2
I-2
I1
I-1
I1
I1
I2
I1
I-2
I2
I-1
I1
I1
I2
I2
I-2
I1
I2
I-1
I-1
I1
I1
I-1
I2
I2
I2
I1
I2
I2
I0
I2
I1
I2
I1
I-2
I2
I-2
I0
I1
I-1
I-2
I-2
I-2
I-2
I-2
I-2
I-2
I1
I1
I2
I2
I0
I1
I-1
I-1
I1
I2
I2
I0
I1
I-1
I-1
I-2
I1
I2
I-1
I-2
I-2
I-1
I-1
I1
I1
I-1
I-2
I-2
I-1
I-2
I-1
I-1
I-2
I1
I-2
I-1
I-2
I1
I-2
I-2
I1
I2
I1
I0
I2
I2
I2
I2
I2
I2
I-2
I0
I2
I-2
I1
I1
I2
I2
I-1
I2
I-1
I-1
I-1
I1
I1
I2
I2
I1
I1
I1
I-1
I2
I2
I2
I1
I1
I2
I1
I-1
I2
I2
I2
I2
I2
I1
I2
I2
I-1
I1
I-2
I-2
I-2
I1
I2
I2
I2
I2
I-1
I-1
I1
I-1
I-1
I-2
I-2
I1
I-2
I-2
I-2
I-2
I-2
I-1
I-1
I1
I-2
I-2
I-2
I-2
I-2
I-1
I-1
I0
I-2
I-2
I-2
I-2
I-1
I-2
I0
I1
I-2
I-2
I-2
I-2
I-2
I-2
I-1
I0
I-2
I-2
I-2
I-2
I-2
I-2
I0
I-1
I-2
I-2
I-1
I-2
I-2
I1
I-2
I-1
I2
I1
I-1
I0
I1
I2
I1
I2
I1
I2
I1
I2
I2
I-1
I2
I2
I-2
I-1
I-1
I1
I-1
I2
I2
I2
I1
I1
I2
I1
I2
I2
I2
I2
I-1
I-1
I0
I2
I2
I2
I2
I2
I1
I1
I2
I2
I2
I2
I2
I2
I-1
I2
I2
I2
I2
I2
I2
I2
I-2
I1
I-2
I-1
I-2
I1
I1
I-1
I-2
I-2
I0
I-1
I1
I1
I2
I-1
I-2
I1
I-1
I1
I1
I2
I1
I-2
I-1
I-2
I-1
I-1
I1
I0
I0
I1
I-1
I0
I1
I2
I1
I1
I2
I-2
I-2
I-2
I-2
I2
I-1
I1
I1
I-2
I-2
I-2
I-2
I-2
I-1
I-2
I-2
I-2
I-2
I2
I2
I1
I2
I0
I1
I-2
I1
I2
I-1
I-1
I-1
I0
I-2
I2
I2
I1
I1
I-1
I-1
I-1
I1
I-2
I-2
I-1
I-2
I-1
I-1
I0
I-1
I1
I0
I0
I-1
I1
I0
I2
I-2
I-1
I1
I-2
I-1
I-1
I2
I-2
I1
I-2
I2
I0
I1
I2
I1
I-1
I0
I-1
I-1
I-2
I2
I1
I2
tp76
sS'807dce9e0f633f51.jpg'
p77
(I0
I2
I2
I0
I1
I2
I2
I0
I-1
I2
I1
I-1
I0
I-2
I1
I-2
I-2
I1
I-1
I0
I-2
I1
I2
I0
I2
I1
I2
I0
I-2
I-2
I1
I-2
I-2
I2
I0
I1
I1
I0
I0
I0
I0
I-2
I-2
I-1
I1
I1
I-2
I-2
I-1
I1
I-2
I1
I1
I1
I0
I1
I2
I2
I1
I2
I2
I2
I0
I2
I2
I-1
I2
I2
I2
I2
I-1
I-1
I-1
I-2
I1
I1
I1
I2
I-2
I-2
I-1
I-1
I-2
I0
I1
I-1
I0
I1
I-1
I2
I-1
I2
I1
I1
I2
I-1
I0
I1
I-1
I2
I2
I2
I0
I0
I1
I2
I2
I-1
I-1
I0
I-2
I-1
I-1
I-1
I-2
I0
I0
I-2
I-1
I1
I-1
I-2
I-2
I0
I1
I-1
I1
I2
I-2
I-2
I-1
I-1
I1
I-1
I1
I-1
I-2
I-1
I0
I-1
I1
I-1
I-2
I-2
I-2
I-1
I-2
I-1
I-2
I-2
I-2
I0
I1
I-1
I-2
I2
I0
I-1
I2
I0
I-1
I-2
I-2
I0
I1
I2
I0
I-1
I-2
I-2
I-1
I-1
I-2
I2
I2
I1
I-1
I-1
I1
I1
I1
I-1
I1
I-1
I-2
I-1
I-1
I-1
I1
I-1
I1
I-2
I-2
I-1
I-2
I-1
I1
I-1
I-1
I-2
I-2
I-2
I1
I2
I2
I1
I-1
I-1
I-1
I-1
I2
I2
I1
I1
I2
I-1
I-1
I2
I0
I-2
I-2
I-2
I-2
I-2
I-1
I-2
I0
I0
I1
I2
I-1
I1
I-2
I-2
I1
I2
I1
I-1
I-2
I1
I1
I-1
I2
I2
I1
I2
I2
I1
I2
I2
I2
I0
I1
I2
I2
I-2
I1
I1
I-1
I2
I1
I2
I1
I-1
I1
I-2
I1
I2
I2
I1
I1
I-1
I0
I0
I2
I2
I1
I1
I2
I0
I2
I2
I2
I1
I-2
I1
I-1
I-2
I-2
I1
I-2
I-2
I2
I2
I1
I2
I0
I2
I1
I1
I2
I2
I0
I1
I1
I-2
I-2
I-1
I-1
I-1
I-2
I-2
I-1
I1
I-2
I1
I1
I1
I0
I1
I2
I2
I2
I2
I2
I2
I-2
I-1
I0
I-2
I2
I1
I2
I2
I-2
I-2
I-2
I-2
I1
I-1
I0
I-1
I-2
I-2
I-1
I-1
I-2
I-1
I-1
I-2
I-1
I2
I-2
I2
I-1
I2
I1
I-2
I2
I-1
I-1
I1
I-1
I2
I-1
I1
I-1
I-1
I1
I-1
I2
I1
I-1
I1
I-2
I-2
I1
I-1
I-2
I-1
I1
I-2
I-2
I-1
I-1
I-2
I-1
I-1
I2
I-2
I-2
I0
I-2
I-2
I1
I-2
I1
I-2
I-2
I-2
I-2
I0
I1
I-1
I-1
I-2
I-2
I-2
I1
I1
I-2
I1
I-1
I-2
I-2
I0
I2
I-1
I-2
I1
I-2
I-1
I1
I-1
I2
I1
I1
I2
I2
I2
I2
I2
I-1
I-2
I-2
I-1
I-1
I2
I2
I0
I1
I0
I2
I2
I2
I0
I2
I1
I0
I1
I1
I2
I2
I-2
I2
I-2
I-1
I-1
I0
I2
I2
I-2
I-1
I-2
I-2
I-1
I2
I2
I2
I1
I1
I-2
I-1
I-1
I2
I2
I1
I-1
I2
I-1
I-1
I1
I0
I-1
I-2
I-2
I-2
I-2
I-1
I-2
I1
I-2
I1
I2
I0
I1
I-2
I-2
I-2
I1
I0
I-2
I-2
I-1
I-1
I-1
I0
I0
I2
I1
I1
I-1
I1
I2
I-1
I0
I1
I2
I2
I0
I1
I1
I1
I1
I-1
I1
I1
I1
I2
I-1
I2
I-1
I1
I-1
I-2
I-2
I2
I2
I2
I2
I0
I2
I2
I0
tp78
sS'f82907598202c966.jpg'
p79
(I1
I1
I0
I-1
I0
I-1
I-1
I-1
I0
I-1
I-1
I-1
I-1
I1
I0
I0
I1
I0
I0
I1
I0
I-1
I1
I-1
I2
I-1
I1
I1
I-2
I-2
I-2
I-2
I-2
I2
I-2
I1
I-1
I-2
I2
I2
I1
I-1
I1
I-1
I-1
I-2
I0
I1
I1
I1
I1
I1
I-2
I-1
I1
I1
I0
I-1
I0
I-2
I-2
I1
I1
I-1
I0
I0
I-1
I-2
I1
I1
I0
I1
I1
I1
I1
I1
I1
I0
I-1
I-1
I2
I-1
I0
I0
I-1
I-2
I-1
I2
I-1
I0
I-2
I-1
I-2
I2
I2
I1
I-2
I2
I-2
I0
I2
I-1
I2
I-1
I2
I2
I2
I1
I-1
I-2
I-1
I-2
I2
I2
I2
I2
I1
I1
I0
I2
I1
I2
I2
I-1
I2
I-1
I1
I2
I-1
I-1
I-1
I-2
I0
I-2
I-1
I-2
I-1
I-1
I0
I0
I-1
I-1
I-2
I-2
I0
I1
I1
I1
I-2
I-1
I-1
I2
I2
I2
I0
I2
I2
I1
I2
I2
I-2
I-2
I-2
I-2
I-2
I-2
I-1
I-2
I1
I-2
I2
I2
I-2
I1
I-1
I-1
I1
I2
I2
I0
I1
I1
I2
I2
I2
I2
I-2
I-1
I2
I-2
I1
I1
I2
I1
I-2
I1
I1
I-1
I-1
I1
I0
I-1
I2
I2
I1
I1
I-1
I1
I-1
I1
I2
I1
I-1
I1
I2
I0
I2
I2
I-2
I-2
I2
I-2
I1
I-2
I-1
I-2
I-2
I1
I-2
I-1
I-2
I-1
I-2
I-2
I2
I2
I2
I2
I-1
I-1
I-2
I1
I1
I-2
I-2
I-2
I-1
I-1
I1
I0
I-2
I-1
I-2
I-2
I-1
I-1
I-1
I-2
I-2
I0
I-1
I0
I-1
I1
I-1
I-1
I1
I1
I1
I1
I0
I1
I2
I2
I2
I1
I-1
I-2
I2
I-2
I2
I0
I-1
I-1
I-2
I1
I1
I-2
I-2
I-2
I-2
I-2
I2
I2
I-2
I2
I-2
I2
I2
I-1
I2
I1
I2
I2
I2
I-1
I0
I-2
I-1
I-2
I2
I2
I2
I2
I2
I2
I-1
I1
I1
I2
I1
I-2
I1
I-2
I-1
I1
I0
I-1
I-2
I-1
I1
I-2
I0
I0
I-1
I-2
I0
I-1
I-1
I0
I-1
I-1
I-1
I1
I2
I1
I0
I1
I1
I-2
I1
I2
I-2
I0
I-1
I1
I-2
I2
I2
I-2
I-2
I1
I-2
I-2
I2
I-2
I1
I-2
I2
I2
I1
I1
I-2
I-2
I-1
I-1
I2
I1
I2
I2
I1
I2
I1
I2
I-1
I1
I2
I-1
I2
I1
I2
I2
I-2
I0
I0
I-2
I0
I-1
I-1
I-1
I0
I1
I-1
I0
I0
I-1
I-1
I-1
I1
I-1
I-1
I0
I-2
I-1
I-1
I2
I2
I2
I2
I2
I2
I2
I2
I2
I-2
I-2
I-2
I-2
I-2
I-1
I-2
I-2
I2
I-1
I2
I2
I-2
I1
I-2
I-1
I1
I1
I1
I-1
I-1
I1
I1
I2
I2
I2
I-2
I-2
I1
I-1
I0
I1
I1
I0
I-2
I1
I1
I0
I-1
I1
I0
I-1
I1
I1
I1
I1
I1
I1
I-1
I2
I1
I1
I-2
I-1
I2
I-1
I2
I2
I-2
I-2
I1
I-2
I-2
I-2
I-2
I-2
I-2
I2
I-2
I2
I-2
I-1
I-2
I-2
I2
I2
I2
I2
I-1
I-1
I-2
I0
I-1
I-2
I-1
I0
I0
I-2
I-1
I-1
I0
I-1
I0
I0
I-1
I1
I-1
I1
I1
I1
I1
I2
I-2
I-2
I2
I-2
I1
I-2
I2
I1
I-1
I-2
I2
I2
I-2
I2
I-2
I2
I1
I2
tp80
sS'f84eadf8b5cdd82e.jpg'
p81
(I2
I2
I2
I-2
I1
I0
I1
I1
I-1
I2
I-1
I1
I-2
I-2
I-1
I-2
I-2
I-2
I1
I-2
I-2
I-2
I-2
I2
I1
I-2
I-2
I-2
I-1
I2
I-2
I-2
I-2
I-2
I-2
I-2
I-2
I-2
I2
I-1
I2
I-2
I0
I1
I-1
I1
I-2
I-1
I1
I-1
I1
I-2
I1
I2
I-1
I-1
I2
I-1
I-2
I0
I2
I-1
I2
I2
I2
I2
I-1
I2
I2
I1
I2
I2
I2
I1
I1
I2
I2
I2
I2
I2
I2
I-1
I1
I2
I2
I1
I2
I2
I2
I-1
I-1
I1
I1
I2
I2
I2
I1
I1
I2
I1
I2
I2
I2
I-2
I-2
I1
I-1
I1
I2
I2
I1
I1
I-1
I-1
I0
I-2
I2
I-2
I-2
I-1
I-2
I-2
I-2
I-2
I-2
I-2
I-2
I-2
I1
I-2
I-2
I2
I-2
I0
I0
I-1
I-1
I-2
I-2
I2
I0
I2
I2
I1
I-2
I-2
I-1
I0
I-1
I2
I1
I1
I-1
I-1
I-1
I1
I2
I1
I1
I2
I-2
I-2
I-1
I-2
I-2
I-1
I-1
I-2
I-2
I1
I2
I2
I-1
I-1
I2
I1
I1
I2
I-1
I2
I2
I-1
I1
I1
I2
I2
I1
I2
I0
I-2
I0
I1
I1
I-2
I2
I0
I-2
I0
I-1
I1
I-2
I-2
I1
I-2
I-2
I1
I-2
I-2
I-2
I-2
I-1
I-1
I-1
I2
I1
I-1
I-1
I-1
I-1
I-1
I1
I-1
I1
I-2
I-2
I-2
I-2
I1
I-2
I-1
I-2
I-2
I-2
I1
I2
I1
I2
I-1
I2
I-1
I-1
I1
I-2
I1
I-2
I-2
I-1
I-1
I1
I-2
I-1
I1
I-2
I-1
I-1
I-1
I-2
I-2
I1
I-1
I2
I2
I2
I2
I-1
I2
I2
I2
I2
I2
I1
I1
I1
I2
I2
I1
I2
I1
I2
I-1
I1
I2
I1
I1
I1
I2
I2
I-1
I-1
I1
I1
I2
I2
I2
I1
I1
I2
I1
I2
I1
I-1
I-2
I-2
I1
I-2
I2
I2
I2
I2
I1
I-1
I1
I2
I-2
I2
I-1
I-1
I1
I-1
I-1
I-2
I-2
I-1
I-2
I-1
I-2
I1
I-2
I-2
I1
I-2
I-1
I-2
I-2
I-2
I-2
I-2
I2
I-1
I-1
I-1
I-1
I-1
I-1
I-1
I1
I-1
I-1
I1
I-1
I-1
I-1
I-1
I1
I2
I1
I-1
I0
I-2
I-2
I-1
I-2
I-2
I-2
I-2
I-2
I-1
I2
I2
I1
I2
I-2
I1
I-1
I0
I2
I-1
I1
I2
I1
I2
I1
I2
I2
I-1
I1
I1
I-2
I-2
I1
I2
I-2
I2
I2
I1
I2
I-1
I2
I-1
I-1
I2
I1
I1
I1
I1
I1
I1
I1
I1
I-1
I-1
I-1
I-1
I-1
I-1
I-1
I1
I1
I2
I1
I1
I1
I1
I-1
I0
I2
I-1
I-1
I1
I1
I-1
I2
I2
I-2
I-1
I-2
I1
I0
I-1
I2
I-2
I-1
I-2
I-2
I-1
I-2
I1
I-2
I-2
I-1
I-2
I-2
I-2
I-1
I-2
I-2
I-1
I-1
I2
I1
I-1
I2
I0
I2
I2
I2
I1
I-1
I1
I0
I1
I2
I2
I1
I-1
I1
I-1
I-1
I-1
I2
I1
I1
I1
I-1
I-1
I1
I-1
I1
I1
I2
I1
I1
I2
I1
I2
I2
I2
I1
I-2
I-1
I-2
I1
I-2
I2
I2
I2
I1
I2
I2
I-2
I1
I1
I1
I-2
I-1
I1
I1
I-2
I-2
I-1
I-1
I-2
I-2
I-2
I1
I-1
I-1
I-1
I-1
I1
I1
I-1
I-1
I-2
I-1
I2
I-2
I-2
I-1
I-2
I-2
I-1
I2
I2
tp82
sS'f327b447b0c5f093.jpg'
p83
(I-2
I-2
I-2
I2
I-2
I2
I2
I2
I2
I2
I2
I2
I2
I-2
I1
I-1
I-1
I1
I-1
I-1
I-2
I-1
I2
I1
I-1
I-1
I2
I2
I1
I-1
I2
I2
I2
I1
I2
I2
I2
I1
I-2
I2
I0
I2
I-2
I1
I2
I1
I2
I-2
I-2
I-1
I-1
I2
I-1
I-1
I-2
I-2
I1
I1
I1
I1
I-1
I2
I-2
I1
I2
I-1
I1
I-1
I1
I2
I-1
I1
I1
I-1
I2
I1
I2
I2
I-2
I-2
I-2
I-2
I1
I-1
I1
I2
I-2
I-2
I-2
I-1
I1
I1
I1
I1
I-2
I-2
I-2
I-1
I-2
I1
I1
I-1
I-2
I0
I2
I2
I1
I-2
I-2
I-2
I-2
I-2
I-1
I1
I-1
I2
I-1
I-1
I-2
I-1
I1
I1
I1
I1
I2
I-1
I-1
I2
I-2
I-1
I-1
I-2
I1
I-2
I-1
I1
I-2
I-2
I1
I-1
I2
I-2
I-1
I-1
I-2
I-1
I-1
I-2
I1
I-2
I-2
I-2
I-2
I-1
I-1
I-1
I-1
I-2
I-2
I-2
I-1
I-1
I-2
I1
I-2
I-2
I-2
I-1
I1
I-1
I2
I-2
I2
I2
I1
I-2
I2
I-2
I2
I2
I1
I2
I1
I2
I0
I-1
I1
I1
I2
I-1
I2
I-1
I-2
I2
I-2
I1
I2
I-2
I1
I-2
I0
I1
I-1
I1
I2
I-1
I1
I-1
I1
I0
I1
I2
I2
I-1
I-1
I1
I-1
I-1
I2
I2
I2
I1
I0
I1
I1
I0
I2
I2
I2
I0
I2
I1
I0
I1
I1
I-2
I-2
I-2
I-2
I-2
I-2
I-2
I-2
I-2
I2
I0
I1
I2
I-1
I2
I2
I2
I1
I2
I2
I1
I2
I2
I2
I2
I-2
I0
I1
I-2
I1
I-1
I-1
I-1
I-1
I-1
I-1
I-1
I-1
I-2
I-2
I1
I0
I1
I-1
I1
I0
I-1
I1
I2
I1
I-1
I-1
I0
I-1
I1
I2
I2
I0
I0
I2
I1
I1
I2
I2
I1
I-1
I2
I-1
I2
I-1
I2
I-2
I1
I-1
I-2
I2
I-2
I-2
I-1
I-1
I-1
I-2
I1
I-2
I-2
I1
I1
I-1
I-2
I1
I1
I-2
I1
I2
I1
I1
I1
I1
I2
I1
I2
I1
I-1
I2
I1
I2
I2
I-1
I-1
I-1
I-2
I1
I-1
I0
I1
I-2
I-2
I-2
I-1
I0
I-1
I-1
I0
I-2
I-2
I-2
I0
I-2
I-1
I0
I-1
I-1
I1
I2
I2
I2
I1
I1
I-1
I1
I-2
I2
I2
I1
I1
I2
I2
I-1
I-1
I-1
I-1
I-1
I-2
I1
I-2
I-2
I0
I-1
I-1
I-1
I-1
I1
I-2
I-1
I-1
I-2
I-2
I1
I-1
I1
I-2
I-2
I-2
I-2
I0
I1
I-1
I1
I-2
I-2
I-2
I-1
I1
I1
I-1
I1
I-2
I-2
I-2
I0
I0
I-2
I-1
I-1
I-2
I-2
I0
I1
I-2
I1
I-2
I1
I-1
I-2
I-2
I1
I-2
I2
I1
I2
I2
I1
I2
I1
I1
I1
I2
I2
I-1
I2
I1
I0
I2
I0
I1
I2
I-2
I-1
I-2
I0
I1
I1
I2
I2
I1
I1
I1
I1
I2
I2
I2
I2
I-1
I-1
I1
I1
I2
I2
I2
I2
I1
I-1
I2
I2
I2
I2
I2
I2
I1
I2
I2
I2
I2
I0
I-1
I-2
I-2
I-2
I-1
I-2
I-2
I2
I-1
I-1
I2
I-1
I-1
I0
I2
I1
I2
I-2
I0
I-1
I-2
I1
I-1
I-1
I-1
I-1
I1
I-2
I-1
I-2
I-1
I1
I-2
I-2
I-2
I-1
I-1
I-2
I-2
I2
I1
I-1
I-2
I2
I1
tp84
sS'11eef0277d15e594.jpg'
p85
(I1
I2
I1
I-1
I-1
I1
I-1
I-1
I1
I1
I-1
I0
I2
I-1
I0
I-1
I2
I-2
I0
I-1
I2
I-2
I0
I1
I-1
I-2
I1
I-1
I1
I1
I1
I0
I-1
I-1
I-1
I-1
I-2
I-2
I1
I-2
I-1
I-2
I-1
I-1
I0
I1
I-1
I1
I1
I1
I0
I2
I2
I2
I1
I0
I1
I0
I2
I2
I2
I1
I-2
I-2
I-2
I-2
I-2
I-1
I-2
I-1
I2
I2
I2
I2
I2
I2
I2
I2
I0
I-1
I-1
I-2
I-1
I1
I-1
I1
I1
I0
I1
I1
I-1
I1
I1
I2
I1
I2
I2
I1
I1
I2
I2
I2
I2
I1
I-1
I2
I2
I0
I-2
I1
I-2
I-2
I-1
I-2
I-2
I-1
I1
I-2
I-2
I-2
I-2
I-2
I1
I-1
I-2
I-2
I-2
I-2
I-1
I2
I-2
I2
I1
I-1
I1
I1
I1
I-2
I-1
I-1
I-1
I-1
I-1
I-2
I-2
I1
I-1
I1
I1
I0
I-2
I0
I-1
I-1
I-2
I-1
I1
I-2
I-1
I-1
I-2
I-2
I-2
I-1
I2
I-2
I-1
I-2
I-2
I-2
I-2
I-2
I-2
I2
I2
I1
I2
I1
I2
I2
I2
I-1
I-1
I2
I1
I-1
I2
I2
I1
I1
I2
I1
I1
I2
I1
I-1
I1
I-2
I0
I-2
I2
I-2
I-1
I1
I0
I0
I-2
I2
I-2
I0
I2
I2
I2
I2
I2
I-1
I2
I2
I0
I1
I2
I-2
I1
I1
I1
I-1
I1
I1
I2
I-1
I-1
I0
I-2
I-1
I2
I2
I1
I-1
I1
I-2
I-2
I-2
I-2
I-2
I-1
I-1
I-1
I2
I-1
I-1
I-1
I1
I1
I-1
I2
I1
I2
I1
I1
I2
I-2
I-2
I-2
I-2
I-2
I-2
I-2
I-2
I2
I2
I1
I2
I2
I2
I2
I2
I0
I-2
I-1
I-2
I1
I0
I1
I1
I-2
I-1
I0
I-1
I-2
I0
I0
I-1
I1
I2
I1
I2
I1
I2
I1
I2
I1
I-1
I-1
I1
I2
I2
I1
I1
I1
I0
I2
I1
I-1
I-1
I1
I-1
I-1
I-1
I-1
I-1
I2
I-1
I1
I-1
I-2
I1
I-2
I2
I-2
I-1
I0
I-2
I1
I0
I2
I-2
I0
I0
I1
I1
I1
I-2
I-2
I-1
I0
I-1
I0
I0
I-2
I-1
I-1
I0
I-2
I0
I-1
I-2
I-1
I1
I1
I-1
I-1
I1
I2
I-1
I1
I-1
I-2
I-2
I-2
I-2
I-2
I-1
I1
I-1
I2
I2
I0
I1
I1
I1
I-1
I2
I2
I2
I1
I2
I2
I1
I2
I2
I2
I2
I-1
I-1
I-1
I-2
I0
I-1
I1
I-2
I0
I-1
I0
I0
I-2
I2
I-2
I-2
I2
I2
I2
I2
I2
I1
I1
I2
I1
I1
I1
I-2
I1
I-1
I2
I1
I-1
I-1
I2
I-1
I-1
I1
I-1
I1
I1
I2
I1
I1
I2
I-2
I-2
I-2
I-2
I-2
I-2
I-2
I-2
I2
I-1
I-2
I-2
I-2
I-2
I-2
I1
I1
I2
I-1
I-1
I1
I-2
I-1
I-2
I-2
I-2
I-2
I-2
I-2
I2
I2
I-1
I2
I1
I2
I2
I2
I2
I-1
I1
I-1
I2
I1
I2
I1
I-2
I-2
I-1
I-2
I-2
I-1
I-2
I-2
I-1
I1
I-1
I2
I2
I-1
I-1
I1
I-1
I-2
I-2
I-2
I-1
I2
I2
I2
I2
I2
I1
I-2
I-1
I2
I1
I2
I1
I2
I-1
I2
I-2
I-2
I-1
I2
I-2
I-1
I1
I1
I-2
I-2
I1
I-1
I-2
I-1
I2
I1
I2
I0
I2
I1
I2
I0
I1
I-1
I1
I-1
tp86
sS'f3723b69e2ca5245.jpg'
p87
(I-1
I-1
I-1
I1
I2
I-1
I-1
I2
I-2
I1
I-2
I-1
I-1
I-1
I-1
I-1
I-2
I-2
I1
I-2
I-1
I-2
I-2
I2
I1
I1
I-1
I2
I-1
I-2
I-1
I2
I2
I2
I-1
I2
I2
I2
I1
I2
I2
I1
I1
I-1
I0
I1
I1
I1
I2
I1
I2
I1
I2
I2
I-2
I1
I1
I-2
I-1
I-1
I-1
I-1
I1
I1
I1
I1
I-1
I-1
I-1
I2
I2
I1
I-1
I1
I-1
I-1
I2
I-1
I2
I1
I1
I1
I2
I2
I-1
I-2
I-2
I-2
I-2
I-2
I2
I-2
I-2
I-2
I-2
I-2
I-2
I-2
I-1
I-2
I-2
I-2
I-2
I-2
I1
I-2
I-2
I0
I-1
I1
I-1
I-1
I-1
I-2
I1
I-1
I-1
I-2
I-2
I1
I-2
I1
I1
I1
I-1
I-2
I1
I2
I1
I1
I1
I1
I2
I1
I2
I1
I-2
I-2
I-2
I-2
I-2
I-1
I-1
I-2
I1
I1
I2
I2
I-2
I1
I-1
I2
I2
I2
I2
I2
I-1
I2
I2
I2
I2
I2
I2
I1
I0
I2
I2
I2
I2
I2
I0
I2
I2
I1
I2
I-1
I1
I1
I1
I2
I2
I1
I2
I1
I2
I2
I-1
I-1
I-1
I-2
I1
I-2
I0
I-1
I-2
I-2
I1
I-1
I-1
I-1
I-2
I-2
I-1
I1
I-1
I1
I-2
I-1
I-1
I-2
I2
I1
I-2
I2
I2
I1
I0
I2
I-2
I-2
I-2
I-2
I-1
I-2
I1
I2
I-2
I-2
I-2
I1
I-1
I2
I2
I1
I-2
I-2
I1
I2
I2
I-1
I-1
I1
I1
I2
I-1
I-2
I2
I-1
I2
I-1
I1
I1
I-2
I0
I1
I-2
I-1
I-1
I-1
I-1
I1
I2
I1
I1
I0
I-1
I-1
I2
I2
I1
I-1
I0
I-1
I-1
I2
I1
I2
I0
I2
I1
I2
I2
I1
I-2
I-2
I-1
I-2
I-2
I1
I-2
I-2
I-2
I-2
I-2
I-2
I-1
I-2
I-2
I-2
I-2
I-1
I-2
I2
I-2
I-2
I-1
I1
I2
I-2
I-1
I-2
I-1
I1
I-2
I-1
I-2
I-2
I-1
I-1
I1
I1
I1
I0
I-2
I1
I1
I1
I1
I1
I0
I2
I1
I1
I1
I-2
I-2
I-2
I-2
I-2
I-2
I-1
I-2
I-1
I-1
I2
I2
I-2
I1
I-2
I1
I2
I2
I2
I2
I-1
I2
I2
I2
I2
I2
I2
I1
I1
I2
I2
I2
I2
I2
I-1
I2
I2
I2
I2
I1
I1
I2
I1
I2
I2
I-1
I2
I1
I2
I2
I1
I-1
I-1
I-2
I1
I0
I0
I-1
I-1
I-1
I2
I-1
I1
I-1
I-1
I-1
I-1
I1
I-1
I-1
I-2
I-1
I-2
I-2
I2
I2
I-2
I2
I2
I1
I0
I2
I-1
I-2
I-2
I-2
I-1
I-2
I0
I-1
I-2
I-2
I-2
I1
I-1
I1
I-1
I-2
I-2
I-2
I1
I1
I-2
I-1
I-1
I2
I1
I2
I-2
I-2
I0
I-2
I0
I-1
I-1
I-1
I-2
I0
I1
I0
I-1
I-1
I-1
I1
I1
I1
I1
I1
I-1
I-1
I1
I2
I1
I2
I-1
I1
I-1
I1
I2
I1
I2
I0
I2
I1
I2
I2
I2
I0
I-2
I0
I-1
I-2
I-1
I-1
I-2
I-2
I1
I1
I-1
I1
I-2
I-2
I-2
I-2
I2
I2
I2
I-1
I-1
I-1
I1
I1
I-2
I1
I1
I-1
I-1
I1
I1
I1
I1
I1
I-1
I-1
I-1
I-1
I2
I-2
I-2
I-2
I-2
I-2
I-1
I-2
I1
I2
I-2
I0
I2
I2
I2
I-1
I2
I2
I1
I1
I-1
I2
I1
I1
tp88
sS'632969dee39ef445.jpg'
p89
(I-1
I2
I2
I1
I1
I2
I2
I2
I-1
I2
I2
I1
I0
I-2
I-2
I-2
I-2
I-2
I2
I-2
I-2
I-2
I1
I2
I1
I-1
I2
I2
I-1
I-1
I2
I1
I0
I1
I2
I2
I1
I2
I-2
I-1
I1
I-2
I-2
I0
I0
I-1
I-2
I-2
I-2
I0
I-1
I0
I-1
I1
I-2
I-1
I2
I1
I-1
I-1
I2
I2
I0
I2
I2
I1
I0
I2
I2
I1
I2
I2
I1
I0
I2
I2
I1
I1
I-1
I-2
I-2
I-2
I-2
I-2
I-2
I-2
I-2
I-1
I-2
I2
I-1
I-1
I-1
I-1
I0
I-1
I1
I1
I2
I1
I1
I2
I-2
I-1
I-2
I-1
I2
I0
I0
I-1
I-1
I0
I1
I1
I1
I1
I2
I1
I1
I-2
I-1
I-2
I-2
I-2
I1
I-1
I-2
I-1
I-2
I-2
I-2
I-1
I-2
I-2
I-1
I0
I-1
I-1
I2
I2
I1
I2
I2
I-1
I-1
I2
I1
I-1
I0
I2
I-2
I-1
I2
I1
I-1
I0
I0
I-2
I-1
I2
I1
I-1
I1
I0
I2
I-1
I2
I2
I-2
I-2
I-2
I-2
I-2
I1
I-1
I1
I-1
I-2
I0
I-1
I1
I-1
I-2
I-2
I-2
I-1
I1
I2
I2
I2
I2
I-1
I2
I2
I1
I1
I-2
I-2
I1
I-2
I1
I1
I0
I-2
I-2
I-1
I-2
I-1
I-1
I-2
I1
I2
I2
I2
I1
I2
I1
I1
I1
I1
I1
I-1
I2
I0
I0
I0
I-2
I-2
I2
I-2
I1
I-2
I-2
I-2
I-2
I2
I-1
I-2
I-2
I1
I2
I-1
I1
I2
I2
I2
I1
I1
I2
I2
I2
I2
I1
I-2
I2
I-2
I2
I1
I1
I0
I-2
I-1
I1
I-2
I0
I-2
I-2
I-2
I-1
I1
I-2
I0
I-2
I-2
I-2
I1
I2
I-1
I0
I2
I0
I-1
I2
I1
I-1
I0
I2
I0
I-1
I2
I1
I0
I0
I2
I2
I1
I1
I1
I1
I2
I2
I2
I-1
I0
I2
I-1
I-2
I1
I2
I-1
I-2
I-2
I-1
I-1
I0
I1
I-1
I-1
I-2
I-1
I2
I0
I-1
I-1
I0
I1
I0
I2
I2
I1
I0
I1
I1
I0
I2
I2
I1
I0
I2
I1
I0
I1
I-1
I-2
I-2
I-2
I-2
I-2
I-2
I-2
I-1
I-1
I-1
I2
I-1
I0
I-1
I1
I0
I-1
I0
I1
I2
I1
I2
I2
I-2
I-2
I-2
I-2
I-1
I-2
I-1
I-2
I-2
I-1
I1
I1
I1
I2
I1
I1
I1
I-1
I1
I0
I-1
I-1
I1
I1
I-2
I2
I-1
I-1
I-1
I-1
I-1
I-2
I2
I2
I0
I0
I2
I1
I1
I2
I2
I-1
I-1
I2
I0
I-1
I0
I2
I-2
I-1
I2
I1
I-1
I0
I1
I-1
I-1
I1
I-1
I-2
I2
I-1
I2
I-2
I-1
I2
I-2
I1
I-2
I-2
I-1
I2
I-1
I1
I-1
I-1
I1
I-1
I-1
I-1
I-2
I-1
I-2
I0
I1
I2
I2
I2
I2
I1
I2
I2
I-2
I-2
I-2
I-2
I-1
I-2
I-2
I-2
I-2
I-2
I-2
I1
I-2
I-2
I-2
I-2
I1
I1
I1
I2
I1
I1
I2
I1
I1
I1
I2
I-1
I1
I1
I1
I-1
I-1
I1
I2
I-1
I2
I-1
I-1
I-1
I-2
I1
I-2
I-2
I-2
I1
I1
I-1
I1
I2
I-1
I1
I1
I0
I-2
I2
I-1
I0
I-2
I2
I2
I0
I0
I2
I2
I-1
I0
I1
I2
I-2
I-1
I-1
I-1
I-1
I-1
I1
I1
I-1
I1
I1
I2
I1
I1
I1
I2
I-1
tp90
sS'afc10961050687b7.jpg'
p91
(I-1
I2
I-1
I1
I0
I2
I-1
I-2
I0
I0
I-1
I-2
I-2
I0
I0
I-2
I-2
I-2
I0
I0
I-2
I-2
I-2
I0
I0
I-2
I-2
I-2
I0
I-2
I-2
I-2
I-2
I2
I-1
I-1
I-2
I-1
I1
I-2
I-1
I-2
I-2
I-2
I-2
I-2
I1
I1
I1
I2
I-2
I0
I-1
I-1
I2
I2
I2
I2
I1
I2
I1
I1
I2
I2
I2
I-1
I0
I1
I1
I0
I2
I2
I2
I0
I1
I1
I0
I-1
I2
I2
I2
I-1
I-2
I-1
I-1
I-1
I2
I2
I1
I2
I-2
I1
I1
I-1
I2
I2
I2
I2
I1
I2
I1
I0
I1
I1
I-1
I-1
I-1
I2
I0
I-1
I1
I1
I2
I1
I-2
I1
I-1
I1
I1
I1
I1
I-1
I-1
I1
I0
I2
I2
I2
I-1
I-1
I-1
I0
I-1
I2
I2
I2
I0
I0
I1
I1
I-1
I2
I2
I2
I1
I1
I-1
I1
I1
I2
I2
I2
I1
I-1
I-2
I-1
I-2
I2
I2
I1
I1
I-1
I1
I2
I-1
I2
I2
I1
I0
I1
I1
I2
I2
I-1
I-1
I1
I1
I1
I-1
I-1
I-2
I-1
I1
I1
I0
I-1
I-2
I-2
I-2
I-1
I2
I-1
I-1
I-2
I-2
I-2
I-2
I-2
I0
I-2
I-2
I-2
I-2
I-2
I-2
I0
I-1
I-2
I-2
I-2
I-2
I-2
I-2
I1
I-1
I-2
I-2
I-2
I-2
I-2
I-2
I1
I-2
I-2
I-2
I-2
I-1
I-2
I-2
I2
I-1
I1
I-1
I-2
I-1
I-2
I1
I0
I-1
I-1
I-1
I-1
I-1
I-2
I-1
I0
I1
I1
I-1
I1
I-1
I-2
I1
I1
I2
I1
I-1
I-1
I-1
I-1
I2
I2
I2
I1
I-1
I-1
I-1
I-1
I2
I2
I2
I1
I1
I1
I0
I0
I2
I2
I2
I-1
I1
I-1
I-1
I-2
I2
I2
I-1
I-1
I-2
I-1
I-2
I-2
I2
I1
I0
I2
I-1
I-1
I-2
I-2
I2
I1
I1
I-2
I-1
I1
I-1
I-2
I0
I-1
I2
I1
I1
I2
I-1
I2
I1
I0
I2
I1
I1
I1
I0
I2
I1
I1
I1
I1
I-1
I0
I0
I1
I2
I2
I1
I0
I1
I0
I-1
I2
I2
I2
I0
I1
I1
I1
I-2
I2
I2
I2
I2
I2
I1
I2
I-1
I2
I2
I2
I2
I2
I2
I1
I0
I2
I2
I1
I2
I1
I0
I2
I1
I0
I-2
I-1
I-1
I-1
I1
I-1
I-2
I1
I-1
I0
I-1
I0
I0
I-1
I-1
I1
I1
I1
I1
I2
I-1
I-2
I-2
I-1
I1
I1
I2
I2
I-2
I-2
I-2
I-1
I1
I2
I2
I2
I-2
I-2
I-2
I-1
I-1
I1
I1
I0
I-2
I-2
I-2
I1
I-1
I2
I1
I-2
I-2
I-2
I-2
I1
I-2
I2
I-1
I-2
I-1
I-1
I2
I2
I1
I1
I0
I0
I2
I1
I1
I1
I-1
I0
I1
I2
I1
I-2
I0
I-1
I-1
I-1
I1
I1
I-2
I-2
I-2
I-2
I-2
I-1
I1
I-2
I-2
I-2
I-2
I-2
I-1
I-1
I-1
I-2
I-2
I-2
I-2
I-1
I-2
I1
I-1
I-2
I-2
I-2
I0
I-1
I-2
I1
I-2
I-2
I-2
I-2
I2
I1
I-2
I2
I-1
I-1
I-2
I-1
I2
I-1
I1
I-1
I0
I-2
I-2
I-1
I-1
I-1
I-1
I1
I-2
I2
I2
I2
I2
I-1
I2
I2
I2
I1
I0
I2
I2
I2
I0
I1
I2
I2
I2
I-1
I-1
I2
I2
I1
I1
I-1
I2
I2
I1
I1
I1
I1
I0
I-1
tp92
s.