(dp0
S'a21469c16d8ec24f.jpg'
p1
(I-2
I1
I-1
I2
I-1
I2
I1
I1
I1
I-2
I2
I2
I2
I2
I1
I2
I2
I2
I-1
I1
I2
I2
I2
I-1
I1
I2
I2
I1
I-1
I1
I1
I0
I-1
I-1
I1
I-1
I-2
I-2
I-1
I-2
I-2
I-1
I-2
I-2
I-2
I-2
I1
I-1
I-2
I2
I1
I0
I-1
I1
I-1
I-2
I-2
I-1
I1
I-1
I1
I-2
I-2
I-2
I-2
I-1
I-1
I-1
I-2
I-2
I-2
I-2
I-2
I1
I0
I-2
I-2
I-2
I-2
I-2
I-1
I0
I-1
I-2
I-2
I-2
I-1
I0
I1
I1
I-1
I-2
I-2
I-2
I1
I2
I2
I1
I-1
I-2
I-2
I-1
I2
I2
I1
I-1
I1
I2
I0
I-1
I1
I-1
I2
I1
I1
I1
I2
I1
I0
I-1
I-1
I-1
I1
I-2
I-2
I-2
I-2
I-2
I2
I2
I2
I2
I-1
I0
I1
I1
I2
I2
I2
I1
I-1
I2
I2
I2
I2
I2
I2
I1
I1
I2
I2
I2
I2
I2
I2
I-1
I1
I2
I2
I2
I2
I2
I1
I-1
I1
I2
I2
I2
I1
I-1
I-1
I2
I2
I-1
I-1
I-1
I1
I-1
I1
I0
I2
I1
I-1
I2
I1
I2
I1
I2
I0
I1
I1
I2
I2
I2
I2
I-1
I-2
I-1
I1
I2
I2
I1
I-1
I-2
I-2
I-1
I1
I2
I-1
I-2
I-2
I-2
I-2
I-1
I1
I-1
I-2
I-2
I-2
I-2
I-2
I-1
I1
I-2
I-2
I-2
I-2
I-2
I-2
I-1
I1
I-2
I-2
I-2
I-2
I-2
I-1
I-2
I-2
I-1
I-2
I-1
I-2
I-2
I1
I-1
I-2
I1
I1
I-1
I-1
I1
I-2
I-2
I-2
I-1
I1
I-2
I-1
I-2
I-2
I-2
I-2
I-1
I-2
I-1
I-2
I-2
I-1
I1
I1
I2
I-2
I-1
I-1
I-2
I2
I2
I2
I2
I-1
I1
I-1
I-1
I2
I2
I2
I1
I2
I-1
I-1
I1
I2
I2
I2
I-2
I-1
I-2
I-1
I0
I2
I2
I1
I-1
I1
I2
I1
I-1
I1
I0
I2
I1
I2
I1
I1
I2
I1
I1
I-1
I1
I1
I-1
I-2
I-1
I-1
I0
I2
I2
I1
I2
I-1
I1
I2
I2
I2
I1
I-1
I1
I-2
I2
I2
I2
I2
I1
I1
I2
I0
I2
I2
I2
I1
I1
I2
I0
I1
I2
I2
I2
I-1
I1
I1
I-1
I1
I2
I2
I2
I0
I-1
I-1
I2
I2
I-1
I-2
I-1
I1
I-1
I0
I-1
I1
I1
I0
I2
I1
I1
I-1
I1
I-1
I0
I1
I1
I1
I1
I0
I-2
I-2
I-1
I-1
I1
I-1
I-2
I-2
I-2
I-2
I1
I-1
I-1
I-2
I-2
I-2
I-2
I-2
I1
I1
I-2
I-2
I-2
I-2
I-2
I-2
I-1
I1
I-2
I-2
I-2
I-2
I-2
I-2
I-1
I1
I-2
I-2
I-2
I-2
I-2
I-1
I-2
I-2
I-1
I-2
I-1
I-1
I-2
I1
I-1
I-1
I1
I1
I1
I-1
I-1
I-1
I-1
I-1
I-1
I-1
I-1
I-1
I-2
I-1
I1
I1
I1
I-2
I0
I-2
I-2
I2
I2
I2
I2
I-1
I1
I1
I-1
I2
I2
I2
I1
I1
I1
I-1
I0
I2
I2
I2
I-1
I1
I-1
I-1
I1
I2
I2
I2
I-1
I1
I-2
I0
I2
I2
I2
I-1
I-1
I2
I1
I-1
I-1
I2
I1
I1
I1
I1
I1
I1
I0
I-1
I-2
I2
I2
I-2
I2
I-1
I2
I-1
I-1
I1
I-1
I1
I1
I1
I1
I1
I0
I1
I2
I-1
I2
I-1
I0
I1
I-2
I2
I-2
I-2
I-2
tp2
sS'6bbfeda20a69c57e.jpg'
p3
(I-1
I2
I-1
I1
I1
I2
I1
I2
I-1
I-1
I-1
I2
I-1
I1
I-1
I2
I1
I-1
I1
I-2
I1
I1
I1
I2
I0
I2
I2
I1
I0
I1
I2
I1
I-1
I-1
I-2
I1
I-2
I-1
I2
I2
I2
I-2
I-2
I-2
I1
I-1
I1
I-1
I1
I2
I2
I2
I1
I1
I-2
I-2
I-2
I-2
I-2
I-1
I-2
I-1
I1
I-1
I-1
I2
I-1
I0
I1
I-1
I1
I-1
I-2
I1
I1
I2
I-1
I1
I-1
I-2
I-2
I-1
I-2
I-1
I1
I1
I-1
I-1
I-1
I2
I-2
I2
I2
I1
I1
I2
I-2
I2
I1
I2
I2
I-2
I1
I-2
I-1
I1
I-2
I-1
I-2
I-1
I-2
I-1
I1
I-1
I1
I1
I-1
I-2
I-1
I1
I-1
I2
I0
I1
I1
I1
I2
I-2
I1
I-1
I-2
I-1
I-2
I1
I-2
I-2
I1
I1
I1
I2
I2
I-2
I-2
I-2
I-1
I-1
I-2
I-2
I1
I-2
I-2
I-2
I-1
I-2
I-2
I-1
I-2
I-2
I-2
I1
I-1
I-2
I-2
I2
I-2
I-2
I2
I-1
I2
I2
I2
I2
I2
I2
I2
I1
I1
I-1
I1
I1
I-1
I-1
I1
I1
I-2
I-1
I-1
I-2
I-1
I-1
I-2
I-2
I-2
I-1
I2
I2
I2
I2
I-1
I2
I2
I2
I2
I2
I2
I1
I0
I2
I2
I1
I2
I2
I2
I0
I1
I2
I1
I0
I2
I2
I2
I-1
I2
I-1
I-1
I1
I-1
I-2
I-2
I-2
I-2
I-2
I-2
I-2
I1
I-2
I2
I-1
I-2
I-1
I-1
I-2
I1
I0
I1
I2
I2
I2
I1
I2
I2
I2
I1
I2
I-2
I-1
I1
I1
I1
I1
I1
I-2
I-2
I-1
I-1
I0
I-1
I-1
I-2
I-2
I-2
I1
I-2
I1
I1
I2
I-1
I-1
I1
I2
I-1
I2
I2
I2
I0
I1
I2
I1
I1
I2
I2
I0
I-1
I2
I1
I-1
I-2
I2
I-1
I-1
I2
I2
I2
I2
I2
I-1
I-2
I-1
I-1
I-1
I0
I-2
I-1
I1
I-1
I1
I1
I-1
I-2
I-1
I0
I1
I-1
I1
I-1
I0
I-1
I1
I-1
I1
I-1
I0
I1
I-2
I1
I-1
I-2
I1
I2
I1
I-1
I1
I-2
I-2
I-2
I-2
I-2
I-2
I-1
I-1
I-2
I-2
I-2
I2
I-2
I2
I2
I1
I0
I1
I-2
I2
I1
I2
I2
I1
I1
I-2
I-1
I2
I1
I1
I-1
I-1
I-2
I-1
I1
I-1
I-1
I1
I-1
I-2
I-1
I-1
I1
I1
I0
I1
I1
I1
I1
I-2
I0
I-1
I-1
I-1
I-2
I0
I-2
I-2
I2
I1
I2
I2
I2
I-2
I-2
I-2
I-1
I1
I-2
I-2
I0
I-2
I-2
I-2
I1
I-2
I-2
I0
I-1
I-2
I-2
I-1
I-1
I-2
I-2
I1
I-2
I-2
I0
I-1
I-1
I-1
I2
I2
I2
I2
I2
I2
I2
I1
I1
I1
I-1
I-2
I-1
I1
I-1
I-1
I1
I-1
I0
I1
I-2
I-1
I-1
I0
I2
I2
I2
I2
I1
I2
I2
I2
I2
I2
I2
I-1
I-1
I2
I2
I1
I2
I2
I2
I1
I1
I2
I2
I1
I2
I2
I2
I-1
I2
I1
I0
I-1
I1
I0
I-2
I-2
I-2
I-2
I-2
I-2
I1
I-2
I2
I-2
I-2
I-2
I-1
I-2
I-1
I1
I1
I2
I0
I1
I1
I-2
I0
I1
I0
I-2
I-2
I-1
I-1
I-2
I-2
I-2
I1
I-2
I-1
I-2
I-1
I2
I-1
I-1
I0
I2
I1
I-1
I1
I2
I2
I1
I-1
I2
I2
I1
tp4
sS'531fa899c8a17be8.jpg'
p5
(I-1
I-2
I-2
I1
I-2
I-1
I-2
I-2
I2
I-1
I-1
I-2
I-2
I1
I-1
I-1
I-1
I-2
I1
I0
I0
I-1
I-2
I0
I1
I-1
I-2
I-2
I-1
I2
I-2
I-2
I-2
I-2
I-2
I-2
I-2
I-2
I2
I-2
I-2
I2
I1
I-2
I1
I1
I2
I2
I1
I1
I-2
I2
I2
I1
I2
I2
I1
I2
I0
I2
I2
I1
I2
I1
I0
I0
I-1
I2
I1
I-1
I2
I1
I1
I1
I-1
I1
I-1
I-1
I2
I2
I2
I1
I-1
I1
I1
I1
I2
I2
I2
I1
I1
I2
I2
I2
I2
I2
I2
I-1
I1
I2
I1
I1
I2
I2
I-1
I1
I-1
I-1
I-2
I1
I1
I-1
I-1
I-2
I-2
I-1
I-2
I0
I-2
I-2
I-1
I-2
I-2
I2
I-2
I1
I-1
I-2
I-1
I-1
I-1
I2
I-2
I1
I0
I-1
I1
I1
I-1
I2
I1
I2
I1
I1
I1
I-1
I-2
I-1
I1
I1
I1
I1
I-1
I-2
I-2
I-1
I-1
I0
I0
I2
I-2
I-1
I-1
I1
I-1
I1
I2
I2
I-1
I1
I1
I2
I2
I-1
I0
I-2
I-1
I-2
I1
I2
I-1
I2
I-1
I1
I-2
I-1
I2
I1
I-1
I1
I-1
I-1
I1
I-1
I2
I0
I-2
I1
I-1
I1
I1
I1
I1
I-1
I-1
I1
I-1
I1
I1
I-1
I-1
I-1
I0
I1
I-1
I1
I1
I-2
I-1
I0
I-1
I1
I2
I1
I-2
I-2
I-2
I-2
I-2
I-2
I-1
I-2
I-2
I-2
I-2
I-2
I1
I-2
I-2
I1
I-1
I-2
I1
I2
I2
I2
I1
I2
I1
I2
I2
I1
I1
I-1
I-1
I-1
I-1
I2
I1
I-2
I1
I-1
I-1
I1
I-1
I1
I-2
I-2
I-1
I-1
I-1
I1
I-1
I-2
I-2
I-2
I1
I-1
I-1
I1
I-2
I-2
I-2
I0
I2
I2
I2
I2
I-1
I-1
I2
I2
I2
I2
I2
I1
I1
I2
I2
I2
I2
I2
I-1
I2
I2
I-1
I-2
I1
I-1
I-2
I-2
I-2
I-2
I-1
I-2
I-2
I-2
I-2
I-1
I-1
I-1
I2
I-2
I-1
I-2
I-2
I2
I2
I2
I2
I-2
I1
I0
I-1
I2
I2
I2
I2
I1
I2
I2
I1
I2
I2
I1
I-1
I2
I1
I1
I1
I0
I-2
I-2
I-2
I1
I-2
I-2
I-1
I-2
I-2
I-2
I-1
I-2
I-2
I-2
I-2
I-2
I-2
I2
I-1
I-1
I1
I2
I-2
I-1
I-2
I2
I2
I1
I2
I-1
I1
I0
I1
I2
I2
I-1
I1
I-1
I1
I2
I1
I2
I0
I-2
I1
I-1
I2
I2
I1
I1
I-2
I-1
I1
I-1
I2
I1
I1
I-1
I-1
I2
I1
I0
I2
I1
I1
I-1
I2
I2
I0
I1
I1
I1
I-1
I1
I2
I1
I-1
I1
I1
I-2
I-2
I2
I1
I-1
I-2
I-2
I1
I-1
I-1
I2
I2
I2
I0
I-1
I1
I1
I2
I2
I1
I-1
I-2
I-2
I-1
I-1
I2
I1
I-2
I-1
I-2
I-2
I1
I-1
I1
I-2
I-2
I-1
I-2
I-2
I1
I-1
I-1
I-2
I-2
I-1
I-1
I-1
I1
I-1
I-2
I-2
I1
I-1
I-1
I-1
I1
I-2
I-1
I1
I2
I1
I2
I2
I2
I1
I2
I2
I2
I2
I2
I-1
I2
I2
I-2
I-2
I1
I-2
I-2
I-2
I-1
I-2
I-1
I-1
I-1
I2
I-2
I2
I2
I1
I2
I-1
I2
I2
I2
I1
I0
I2
I2
I1
I0
I2
I-1
I-1
I-2
I-2
I2
I-2
I-2
I-2
I-2
I-2
I-2
I-2
I2
tp6
sS'7c3039336d2d9cd4.jpg'
p7
(I1
I-2
I-2
I-1
I1
I-2
I-2
I-2
I-1
I0
I-2
I-2
I-2
I0
I1
I-2
I-2
I-2
I-1
I-2
I-2
I-2
I-2
I2
I-1
I-2
I-2
I-2
I1
I2
I-2
I-2
I-1
I-2
I-1
I-2
I-2
I-2
I1
I-1
I-2
I2
I2
I-1
I2
I2
I2
I2
I2
I1
I-1
I2
I2
I2
I2
I2
I2
I1
I-1
I2
I2
I2
I2
I2
I2
I1
I-1
I2
I2
I2
I2
I2
I2
I1
I1
I2
I2
I2
I2
I2
I2
I-1
I1
I2
I2
I2
I2
I2
I2
I-1
I1
I2
I2
I2
I1
I2
I1
I-1
I-1
I2
I1
I2
I2
I2
I1
I1
I2
I-2
I-2
I0
I-2
I-2
I-2
I-2
I-2
I0
I1
I-2
I-2
I1
I-2
I-2
I-2
I-1
I1
I-2
I-1
I-1
I-2
I-2
I-2
I-1
I-1
I-1
I-1
I-1
I-2
I-2
I-2
I1
I-1
I-1
I0
I-1
I-2
I-2
I-2
I1
I1
I1
I1
I1
I-2
I-2
I-2
I-1
I-1
I1
I1
I1
I-2
I-1
I-1
I1
I2
I1
I2
I-1
I-2
I-2
I-2
I0
I-2
I2
I2
I1
I-1
I-1
I2
I2
I2
I-1
I2
I-2
I-2
I-2
I-1
I1
I1
I-2
I-1
I-2
I-2
I-2
I1
I1
I1
I1
I1
I-2
I-2
I-2
I1
I0
I-1
I-1
I-1
I-2
I-2
I-2
I1
I-1
I-1
I1
I1
I-2
I-2
I-2
I-1
I-1
I-1
I-1
I1
I-2
I-2
I-2
I-1
I-2
I0
I-1
I-2
I-2
I-2
I-2
I1
I2
I2
I-1
I-1
I1
I2
I-1
I2
I2
I1
I2
I2
I1
I1
I2
I2
I2
I2
I2
I2
I-1
I-1
I2
I2
I2
I2
I2
I2
I1
I-1
I2
I2
I2
I2
I2
I2
I1
I1
I2
I2
I2
I2
I2
I2
I-1
I1
I2
I2
I2
I2
I2
I2
I-1
I1
I1
I1
I1
I2
I2
I1
I-1
I0
I1
I1
I2
I2
I1
I0
I1
I2
I-2
I-2
I1
I-2
I-2
I-2
I-2
I-2
I-1
I1
I-2
I-2
I1
I-2
I-2
I-2
I-1
I1
I-2
I-1
I-1
I-2
I-2
I-2
I-1
I-1
I-1
I-1
I-2
I-2
I-2
I-2
I1
I-2
I-1
I-2
I-1
I-2
I-2
I-1
I2
I-1
I1
I1
I1
I-2
I-1
I-1
I1
I-1
I1
I1
I1
I-1
I-1
I-1
I1
I2
I1
I2
I1
I-2
I-2
I-2
I1
I-1
I2
I2
I1
I1
I1
I1
I2
I2
I-1
I2
I-1
I-1
I-1
I-1
I1
I1
I-2
I-1
I-2
I-2
I-2
I1
I1
I1
I1
I-1
I-1
I-1
I-2
I2
I2
I-1
I1
I1
I-1
I-2
I-1
I1
I-1
I-1
I-1
I-1
I-2
I-2
I-1
I-1
I-1
I-1
I1
I1
I-1
I-1
I-1
I-1
I-2
I-1
I-1
I-2
I-2
I-2
I-1
I-1
I1
I2
I-1
I1
I-1
I1
I1
I2
I2
I-1
I1
I2
I-1
I1
I2
I2
I2
I1
I2
I1
I-1
I-1
I2
I2
I2
I2
I1
I1
I1
I-1
I2
I2
I2
I2
I2
I2
I1
I1
I2
I2
I1
I1
I2
I1
I-1
I1
I2
I-1
I-1
I1
I1
I2
I-1
I-1
I-1
I-1
I-1
I1
I2
I1
I1
I1
I-1
I-1
I1
I1
I-1
I-1
I-1
I1
I-2
I-2
I1
I-2
I-2
I-2
I-1
I1
I-2
I-2
I-2
I-1
I1
I-2
I-2
I-2
I-1
I1
I-2
I-2
I-2
I-1
I-2
I-1
I1
I1
I2
I1
I1
I1
I1
I-1
I1
I1
I1
I1
I-1
I1
I-1
I-1
I-1
tp8
sS'4aa755831de33ed3.jpg'
p9
(I-2
I-1
I-1
I2
I-1
I1
I1
I2
I1
I2
I2
I2
I2
I-2
I-1
I2
I2
I1
I1
I-1
I2
I2
I1
I1
I1
I2
I1
I2
I-1
I1
I1
I2
I2
I-1
I2
I1
I2
I2
I-2
I-2
I-1
I1
I-1
I1
I2
I0
I1
I-1
I-2
I-1
I1
I1
I-1
I0
I-2
I-2
I-2
I-1
I0
I-2
I-1
I-1
I-2
I-2
I-2
I0
I-1
I-1
I-1
I-2
I-1
I-2
I-2
I1
I-2
I0
I-2
I-1
I-1
I-1
I-1
I2
I1
I-1
I1
I2
I-2
I-2
I-1
I-2
I2
I-1
I1
I2
I-2
I-2
I2
I-2
I1
I-1
I0
I2
I-2
I1
I-1
I-1
I1
I-2
I-1
I-2
I-1
I-1
I0
I1
I2
I2
I1
I2
I2
I-1
I0
I1
I1
I-1
I0
I1
I-2
I-2
I1
I1
I0
I0
I-2
I-2
I-2
I-2
I2
I2
I1
I2
I1
I0
I-1
I2
I1
I-1
I1
I-1
I2
I-2
I2
I1
I-2
I-1
I1
I-2
I1
I0
I-1
I2
I-2
I0
I1
I-1
I2
I-1
I2
I1
I-2
I-1
I-2
I-1
I-1
I1
I-2
I0
I-1
I-1
I1
I-2
I-1
I0
I-2
I-1
I-1
I-1
I1
I2
I2
I2
I0
I1
I1
I1
I2
I2
I0
I0
I-1
I1
I1
I-1
I2
I1
I2
I1
I2
I1
I1
I1
I-2
I-2
I0
I-2
I-1
I-2
I-2
I-2
I-1
I1
I1
I1
I2
I-2
I-1
I-1
I-2
I-2
I1
I-2
I-1
I-2
I-2
I-2
I-1
I1
I1
I-2
I-1
I1
I1
I0
I-1
I2
I1
I1
I-1
I0
I0
I-1
I2
I2
I1
I-1
I-1
I0
I-1
I2
I2
I1
I-1
I-1
I-1
I1
I-1
I2
I2
I1
I1
I-1
I2
I1
I0
I2
I2
I2
I-1
I2
I2
I0
I2
I2
I2
I2
I2
I1
I2
I-2
I1
I1
I1
I2
I1
I2
I2
I-1
I2
I1
I2
I2
I2
I1
I-2
I-1
I1
I1
I1
I2
I2
I1
I-2
I-2
I-2
I-2
I-1
I0
I-2
I0
I-2
I-2
I-2
I1
I-1
I-2
I1
I-1
I-1
I-2
I-2
I1
I-1
I2
I1
I-1
I-1
I-2
I-2
I1
I1
I1
I1
I1
I-2
I-2
I-1
I-1
I0
I0
I1
I2
I-2
I-1
I-1
I0
I1
I1
I2
I2
I-2
I-2
I1
I-1
I1
I1
I2
I2
I-2
I-1
I-1
I2
I2
I-2
I0
I-2
I-1
I-2
I-1
I2
I2
I2
I2
I2
I1
I-2
I0
I-1
I-2
I-2
I-1
I-2
I-2
I-2
I1
I-1
I-1
I1
I-1
I-2
I-2
I-2
I1
I-1
I0
I1
I1
I-2
I-2
I-1
I-1
I-1
I-1
I-1
I1
I-2
I-2
I-1
I-2
I-2
I-1
I-1
I2
I-2
I-2
I-1
I-2
I-2
I-2
I-2
I2
I-2
I-2
I-2
I-2
I-2
I-2
I-2
I-2
I1
I-2
I-1
I-2
I-2
I2
I-1
I2
I1
I-2
I-1
I-1
I0
I2
I2
I2
I2
I0
I2
I2
I1
I2
I2
I2
I0
I-2
I2
I1
I1
I2
I2
I2
I2
I2
I2
I2
I2
I1
I2
I2
I-2
I1
I-1
I-1
I1
I1
I2
I2
I-1
I2
I-2
I-1
I1
I1
I2
I2
I-2
I1
I-2
I-1
I1
I2
I2
I-1
I-2
I1
I2
I1
I1
I2
I1
I-2
I-1
I1
I0
I-2
I-2
I-1
I-2
I-1
I-1
I-2
I2
I0
I-1
I-2
I1
I0
I0
I-2
I1
I2
I0
I1
I-1
I1
I2
I-1
I1
I-1
I1
I2
I-1
I2
I-1
I-1
I-2
tp10
sS'd5c03bbd0f306475.jpg'
p11
(I-1
I2
I1
I1
I1
I2
I1
I2
I-1
I-1
I-1
I1
I-1
I1
I-1
I2
I0
I-1
I1
I-2
I1
I1
I2
I2
I0
I2
I2
I1
I0
I1
I2
I1
I-1
I-1
I-2
I1
I-2
I1
I2
I2
I2
I-2
I-2
I-1
I1
I0
I-1
I-1
I1
I1
I2
I2
I1
I0
I-2
I-2
I-2
I-2
I-2
I-1
I-2
I-1
I1
I0
I-1
I2
I-1
I0
I1
I-1
I1
I-1
I-2
I1
I1
I2
I-1
I1
I-2
I-2
I-2
I-1
I-2
I-2
I1
I1
I-1
I-1
I-1
I2
I-2
I2
I2
I1
I1
I2
I-2
I2
I2
I2
I2
I-2
I-1
I-2
I-2
I1
I-2
I-1
I-2
I-1
I-2
I-1
I0
I-1
I1
I1
I-1
I-2
I-1
I1
I0
I2
I0
I1
I1
I1
I2
I-2
I1
I-1
I-2
I-1
I-2
I1
I-2
I-2
I1
I1
I2
I2
I2
I-2
I-2
I-2
I-1
I-1
I-2
I-2
I1
I-2
I-2
I-2
I-1
I-2
I-2
I-1
I-2
I-2
I-2
I1
I-1
I-2
I-1
I2
I-2
I-2
I2
I-1
I2
I2
I2
I2
I2
I2
I2
I1
I1
I-1
I1
I1
I-1
I-1
I1
I0
I-2
I-1
I-1
I-2
I-1
I-1
I-2
I-2
I-2
I-1
I2
I2
I2
I2
I-1
I2
I2
I2
I2
I2
I2
I1
I-1
I2
I2
I1
I2
I2
I2
I1
I1
I2
I1
I1
I2
I2
I2
I-1
I2
I0
I-1
I1
I-1
I-2
I-2
I-2
I-2
I-2
I-2
I-2
I1
I-2
I2
I-1
I-2
I-1
I0
I-2
I1
I1
I1
I2
I2
I2
I1
I2
I2
I2
I1
I2
I-2
I-1
I1
I1
I1
I1
I1
I-2
I-2
I-1
I-1
I1
I-1
I-1
I-2
I-2
I-2
I1
I-2
I1
I0
I2
I-1
I-1
I0
I2
I-1
I2
I2
I2
I-1
I1
I2
I1
I1
I2
I2
I0
I-1
I2
I1
I-1
I-2
I2
I-1
I-1
I2
I2
I2
I2
I2
I-1
I-2
I-1
I-1
I-1
I-1
I-2
I-1
I1
I0
I1
I1
I-1
I-2
I-1
I-1
I0
I-1
I1
I-1
I-1
I-1
I1
I-1
I1
I-1
I0
I1
I-1
I1
I0
I-2
I1
I2
I1
I-1
I1
I-2
I-2
I-2
I-2
I-2
I-2
I-1
I-1
I-2
I-2
I-2
I2
I-2
I1
I1
I1
I0
I1
I-2
I2
I1
I2
I2
I1
I1
I-2
I-1
I2
I0
I1
I-1
I0
I-2
I-1
I1
I-1
I-1
I0
I-1
I-2
I-1
I-1
I1
I1
I0
I1
I1
I1
I1
I-2
I1
I-1
I-1
I-1
I-2
I1
I-2
I-2
I1
I1
I2
I2
I2
I-2
I-2
I-2
I-1
I1
I-1
I-2
I0
I-2
I-2
I-2
I1
I-1
I-2
I0
I-1
I-2
I-2
I-1
I-1
I-2
I-2
I1
I-2
I-2
I-1
I-2
I-1
I0
I2
I2
I1
I2
I2
I2
I2
I1
I1
I1
I-1
I-2
I0
I1
I-1
I-1
I1
I-1
I-1
I0
I-2
I-1
I-1
I0
I2
I2
I2
I2
I1
I2
I2
I2
I2
I2
I2
I-1
I-1
I2
I2
I0
I2
I2
I2
I1
I1
I2
I1
I1
I2
I2
I2
I-1
I2
I1
I0
I0
I1
I1
I-2
I-2
I-1
I-2
I-2
I-2
I2
I-1
I1
I-2
I-2
I-2
I-1
I-2
I-1
I1
I1
I2
I0
I1
I1
I-2
I0
I1
I0
I-2
I-2
I-1
I-1
I-2
I-2
I-2
I1
I-2
I0
I-2
I-1
I2
I-1
I-1
I0
I2
I1
I0
I0
I2
I2
I0
I0
I2
I2
I0
tp12
sS'4a2867650d9a594e.jpg'
p13
(I1
I2
I2
I-2
I2
I2
I1
I0
I-2
I-1
I-1
I-2
I-2
I1
I-2
I-1
I-2
I-2
I2
I0
I0
I-2
I-2
I0
I0
I-1
I-2
I1
I0
I1
I-2
I1
I2
I-1
I0
I-1
I2
I2
I0
I2
I2
I-2
I-2
I-1
I-1
I-2
I-2
I-1
I1
I1
I-1
I1
I-1
I-1
I0
I2
I1
I1
I-2
I0
I0
I-1
I2
I2
I0
I2
I-2
I2
I1
I-2
I2
I2
I1
I2
I0
I2
I0
I0
I2
I2
I2
I0
I2
I1
I0
I1
I-1
I-1
I1
I-2
I2
I-2
I-2
I0
I-2
I-2
I-2
I-2
I2
I-2
I-2
I1
I-2
I-2
I-2
I-2
I-2
I1
I-1
I-2
I-2
I-2
I2
I1
I0
I2
I0
I-1
I-1
I1
I1
I0
I-2
I0
I-1
I-1
I1
I0
I1
I-1
I-2
I1
I-2
I2
I1
I-1
I2
I0
I-1
I2
I-1
I2
I2
I2
I0
I0
I2
I1
I1
I2
I2
I2
I-1
I2
I2
I-1
I2
I1
I2
I2
I0
I2
I2
I-2
I2
I-1
I1
I1
I-1
I2
I-2
I-2
I-2
I2
I1
I-1
I1
I1
I2
I1
I1
I1
I2
I1
I1
I2
I-1
I-1
I-2
I-2
I-1
I-1
I0
I-2
I0
I-1
I-2
I1
I-2
I1
I-1
I-2
I1
I-2
I-2
I2
I0
I1
I-1
I0
I-2
I-2
I-1
I0
I0
I-1
I-1
I1
I-2
I-2
I1
I0
I1
I-1
I1
I1
I-2
I-1
I2
I-1
I1
I-1
I0
I1
I-1
I2
I-1
I-1
I0
I-1
I-1
I-1
I-1
I1
I-1
I-1
I1
I1
I1
I1
I1
I1
I-2
I0
I-1
I-1
I-2
I-1
I0
I-2
I2
I1
I-1
I2
I-2
I2
I-2
I-2
I2
I1
I1
I2
I1
I1
I-1
I-2
I0
I1
I1
I-1
I1
I-2
I-2
I-1
I-1
I-1
I1
I-1
I1
I-2
I-2
I1
I-1
I0
I1
I-1
I1
I-2
I1
I2
I-1
I0
I-1
I-1
I2
I1
I-1
I1
I2
I-1
I-1
I-1
I1
I-1
I1
I2
I-2
I-2
I-1
I0
I-2
I-1
I-2
I-2
I-2
I-1
I2
I1
I-1
I2
I-2
I1
I2
I1
I2
I1
I2
I2
I-1
I2
I2
I2
I2
I2
I2
I1
I2
I2
I2
I2
I1
I2
I2
I-2
I2
I1
I1
I2
I-1
I-1
I1
I-2
I2
I-1
I0
I2
I-2
I-2
I-2
I-2
I-2
I-2
I-2
I-2
I-2
I-2
I1
I2
I2
I2
I-1
I-2
I1
I2
I2
I2
I-1
I1
I1
I1
I2
I1
I1
I-2
I-2
I-1
I-2
I2
I1
I-2
I-1
I-2
I-2
I2
I-1
I2
I0
I-1
I-2
I-2
I-1
I1
I1
I0
I-1
I-1
I-2
I-1
I1
I-1
I1
I-1
I-1
I0
I-2
I0
I2
I-1
I2
I-2
I-1
I-2
I-2
I2
I-2
I-2
I-2
I2
I2
I2
I2
I2
I2
I-1
I-1
I-2
I2
I2
I1
I2
I-2
I-2
I-2
I-2
I-2
I-1
I-1
I-2
I-1
I-1
I-2
I2
I-2
I1
I-1
I-2
I2
I0
I0
I2
I-1
I1
I-1
I1
I1
I1
I1
I1
I0
I0
I1
I1
I1
I1
I2
I0
I1
I1
I1
I2
I0
I1
I2
I-1
I-1
I1
I1
I2
I2
I2
I1
I2
I2
I-2
I-2
I-1
I-2
I-1
I1
I1
I0
I-2
I1
I-1
I0
I-2
I2
I1
I-1
I2
I-1
I2
I1
I0
I1
I1
I-1
I-1
I-1
I-1
I1
I-1
I-1
I-1
I-1
I1
I-2
I-1
I-2
I-1
I2
I-2
I-2
I-2
tp14
s.