(dp0
S'4d0644ddf94d206f.jpg'
p1
(I1
I2
I-1
I-1
I-1
I1
I-1
I-2
I1
I-1
I-1
I-2
I-2
I1
I-1
I-2
I-1
I-1
I1
I2
I-1
I-1
I1
I-2
I0
I-2
I-1
I2
I0
I1
I-1
I2
I2
I-1
I-2
I2
I1
I-2
I2
I2
I1
I-2
I-1
I-2
I-1
I-1
I1
I1
I1
I2
I-2
I1
I1
I1
I2
I2
I2
I2
I0
I2
I2
I2
I2
I1
I1
I0
I1
I2
I2
I2
I1
I1
I2
I-1
I2
I2
I2
I2
I-1
I1
I1
I-2
I2
I2
I2
I2
I-2
I-2
I-2
I-2
I-1
I-1
I0
I-2
I-2
I-1
I-2
I1
I-2
I1
I-2
I-2
I2
I-1
I2
I-1
I-2
I1
I-1
I1
I0
I0
I1
I-1
I-2
I-1
I-1
I-1
I-1
I-1
I-1
I-2
I-2
I1
I-1
I0
I-1
I-2
I-2
I-2
I-2
I1
I2
I-1
I-1
I-2
I-2
I-2
I-2
I-2
I1
I-2
I-2
I-2
I-2
I-2
I1
I-1
I0
I-2
I-2
I-2
I-2
I0
I-1
I0
I-2
I-2
I-2
I-1
I2
I2
I1
I2
I-2
I2
I2
I2
I2
I2
I2
I2
I2
I0
I1
I0
I1
I-1
I0
I1
I0
I0
I-1
I1
I-1
I-2
I1
I1
I1
I1
I-1
I1
I-1
I0
I2
I1
I2
I1
I-1
I-1
I1
I1
I2
I2
I2
I1
I2
I1
I1
I2
I2
I2
I2
I-2
I1
I-1
I1
I2
I2
I2
I-2
I-1
I1
I-1
I1
I-1
I1
I-2
I-2
I-1
I-2
I0
I-2
I-2
I-2
I-2
I2
I0
I-2
I-1
I-1
I-2
I-2
I-1
I1
I1
I-1
I2
I-1
I0
I1
I1
I2
I1
I1
I1
I1
I2
I2
I1
I0
I-1
I-1
I-1
I0
I1
I-1
I1
I-1
I-1
I1
I0
I1
I-1
I1
I2
I-2
I-1
I1
I-1
I1
I0
I2
I2
I-2
I-1
I0
I-1
I-2
I0
I0
I-2
I1
I2
I0
I2
I-2
I2
I-1
I-2
I2
I2
I2
I1
I-2
I2
I0
I1
I1
I0
I1
I-1
I-2
I-1
I-1
I-1
I-1
I-1
I-1
I-2
I-1
I1
I-1
I-1
I-1
I-2
I-1
I1
I1
I1
I2
I1
I-1
I-1
I-1
I-1
I0
I-2
I2
I-2
I-2
I-1
I-2
I-2
I0
I-2
I0
I-2
I-2
I-2
I-2
I0
I-2
I0
I-2
I-2
I-2
I1
I2
I1
I-1
I2
I-2
I2
I2
I2
I2
I2
I2
I2
I2
I-1
I1
I-1
I1
I1
I0
I1
I1
I1
I0
I1
I1
I1
I1
I1
I-1
I0
I-2
I1
I1
I2
I2
I1
I2
I1
I-1
I2
I2
I2
I1
I2
I2
I1
I1
I2
I2
I2
I1
I2
I2
I-1
I1
I2
I2
I2
I2
I1
I-2
I-1
I2
I1
I1
I-2
I-1
I-2
I-2
I-2
I-2
I-1
I-2
I-2
I-2
I-2
I2
I-2
I-2
I-1
I-1
I-1
I-1
I-1
I-1
I-1
I-1
I1
I0
I-1
I0
I0
I-1
I-1
I-2
I0
I1
I1
I0
I-2
I-2
I-2
I-2
I-1
I1
I-1
I-2
I-2
I-2
I-2
I-2
I-1
I1
I-2
I-2
I-1
I-2
I-2
I-1
I-1
I-1
I-2
I-1
I-1
I-2
I-1
I1
I1
I-2
I-1
I-1
I-2
I2
I2
I2
I2
I-2
I2
I2
I-1
I2
I2
I2
I2
I1
I1
I1
I1
I1
I0
I-1
I-1
I-1
I0
I0
I1
I1
I-2
I2
I2
I2
I2
I1
I2
I2
I2
I-1
I2
I1
I1
I1
I-2
I0
I1
I1
I-2
I0
I-2
I2
I-2
I-2
I2
I-2
I1
I-1
I2
tp2
sS'f328261d600b78cb.jpg'
p3
(I1
I0
I2
I-1
I1
I-1
I1
I2
I-1
I-2
I1
I1
I-1
I2
I1
I2
I2
I2
I-1
I1
I1
I1
I2
I-1
I-1
I1
I1
I-2
I1
I-2
I2
I-1
I-2
I2
I2
I2
I1
I2
I-2
I-2
I1
I0
I1
I2
I-2
I1
I-2
I-1
I-1
I-2
I1
I-2
I-1
I-2
I-2
I-1
I-2
I-1
I-2
I-2
I-2
I-2
I1
I-2
I-1
I2
I1
I-2
I-2
I-2
I-2
I-1
I-1
I-1
I1
I-2
I-2
I-1
I-2
I-1
I-2
I-1
I-2
I-2
I-1
I-2
I2
I1
I-2
I2
I-2
I2
I-1
I-1
I2
I-1
I2
I2
I2
I1
I1
I2
I-2
I-1
I-2
I-2
I1
I2
I2
I2
I1
I2
I-1
I1
I2
I-2
I-2
I-2
I1
I-2
I2
I2
I2
I2
I-1
I2
I1
I0
I2
I2
I2
I1
I1
I2
I1
I2
I2
I2
I2
I-1
I1
I-1
I0
I0
I1
I1
I-2
I-1
I-2
I-1
I-1
I-2
I2
I1
I-1
I2
I-1
I1
I0
I-1
I1
I-1
I2
I1
I2
I1
I1
I2
I-2
I-1
I-2
I-2
I0
I-1
I2
I2
I2
I2
I-2
I-1
I-2
I-2
I-2
I-1
I-1
I-1
I2
I-1
I-2
I2
I-1
I2
I2
I-1
I0
I-1
I1
I1
I1
I2
I1
I2
I-2
I0
I1
I-1
I-1
I-1
I1
I2
I0
I1
I-1
I1
I-1
I1
I2
I1
I2
I0
I-1
I1
I-1
I2
I2
I-2
I1
I-1
I2
I1
I2
I2
I-1
I1
I-2
I0
I-2
I-2
I-1
I-2
I1
I0
I-2
I0
I-2
I1
I-2
I0
I0
I-2
I-1
I-2
I1
I-2
I-2
I0
I-2
I-1
I-2
I-2
I1
I-1
I1
I2
I1
I1
I1
I2
I-2
I-1
I-1
I-1
I1
I0
I2
I2
I-2
I-2
I-2
I-1
I-1
I1
I1
I-1
I-1
I-2
I-2
I1
I-2
I2
I0
I-1
I2
I1
I2
I2
I2
I2
I2
I2
I-2
I1
I-2
I0
I1
I2
I2
I2
I1
I2
I0
I1
I1
I-2
I-1
I-2
I1
I-2
I2
I2
I-1
I1
I0
I1
I-1
I-1
I2
I-1
I0
I0
I2
I-1
I-1
I1
I-2
I-2
I-1
I-2
I1
I-2
I-2
I-2
I-2
I-1
I-2
I-1
I-2
I-2
I-2
I-2
I1
I0
I-2
I2
I-1
I-1
I-2
I-2
I1
I-2
I0
I1
I1
I-1
I-1
I1
I-2
I-1
I-1
I-2
I0
I-1
I2
I2
I0
I2
I-2
I-1
I-1
I-2
I-2
I-2
I0
I-1
I2
I1
I1
I2
I-1
I2
I1
I-1
I1
I1
I2
I1
I2
I2
I0
I1
I-1
I2
I2
I-2
I-1
I-2
I-1
I0
I2
I2
I1
I1
I-1
I0
I1
I1
I2
I2
I1
I1
I1
I2
I2
I-1
I2
I1
I2
I-1
I1
I1
I-1
I1
I-1
I0
I-1
I-2
I-1
I0
I2
I2
I2
I2
I-2
I0
I-2
I-2
I-1
I0
I0
I-1
I1
I-2
I-2
I1
I-2
I1
I0
I-2
I1
I0
I2
I2
I1
I2
I0
I1
I-1
I1
I0
I-1
I1
I-1
I1
I2
I0
I-1
I-2
I-1
I-1
I0
I1
I-1
I-1
I-2
I-1
I1
I-2
I1
I0
I-2
I1
I1
I2
I2
I2
I2
I-1
I2
I-1
I1
I-2
I-2
I0
I-2
I0
I1
I-2
I0
I-1
I-1
I-1
I1
I0
I-2
I1
I-2
I2
I0
I1
I2
I1
I-1
I-1
I0
I-1
I1
I-2
I-1
I-1
I-1
I-1
I1
I0
I-2
I1
I-2
I2
I1
I2
I2
I2
I-2
I0
I-2
tp4
s.