(dp0
S'1fda966c9da64a41.jpg'
p1
(I1
I1
I-1
I-1
I-1
I1
I-1
I-1
I1
I1
I-1
I-1
I2
I-1
I-1
I-1
I1
I1
I1
I1
I2
I2
I0
I-1
I-1
I1
I-1
I-1
I1
I1
I-1
I-1
I-2
I-1
I1
I-2
I-2
I-2
I-1
I-2
I-2
I-1
I-1
I-2
I-2
I-1
I1
I1
I1
I2
I1
I-1
I1
I2
I1
I1
I1
I-1
I2
I1
I2
I1
I-2
I-1
I-2
I-2
I0
I1
I-1
I-2
I-1
I-2
I-1
I0
I-2
I-2
I-2
I-2
I0
I1
I1
I2
I-1
I0
I1
I1
I1
I1
I2
I1
I-2
I1
I2
I0
I2
I2
I2
I2
I-1
I2
I2
I1
I2
I2
I1
I2
I2
I2
I1
I2
I1
I1
I1
I-1
I-1
I-2
I2
I-1
I-1
I-1
I-2
I-2
I-1
I-2
I-2
I-2
I-2
I1
I-1
I1
I2
I2
I-1
I-1
I2
I0
I2
I2
I0
I1
I1
I2
I1
I1
I2
I-1
I-1
I-1
I1
I0
I1
I1
I-1
I-2
I-2
I-1
I-2
I-1
I-1
I1
I0
I-2
I-2
I2
I-1
I1
I2
I-1
I-1
I-2
I1
I2
I0
I-1
I1
I1
I2
I-1
I-1
I1
I2
I-1
I0
I2
I-1
I2
I1
I2
I1
I0
I2
I-1
I2
I1
I-1
I-2
I-2
I-2
I-2
I-1
I-1
I-1
I0
I-1
I0
I2
I1
I1
I2
I-1
I-1
I-1
I1
I-1
I-1
I1
I-2
I-2
I-1
I1
I-1
I1
I1
I-1
I-2
I-2
I-1
I-2
I-2
I-1
I-2
I-2
I-2
I-2
I1
I0
I2
I-1
I-2
I-2
I-2
I-2
I-2
I-1
I1
I1
I1
I2
I2
I0
I2
I2
I-2
I-2
I1
I-2
I-1
I-1
I1
I-2
I-1
I1
I-1
I1
I1
I2
I-2
I0
I1
I-2
I-1
I-1
I-2
I-2
I-1
I-1
I1
I2
I1
I2
I-2
I2
I2
I2
I2
I2
I2
I2
I1
I2
I2
I2
I2
I2
I1
I-1
I-2
I2
I1
I2
I2
I2
I2
I2
I2
I2
I0
I2
I1
I2
I1
I-2
I1
I-2
I2
I-2
I-1
I-1
I-2
I-1
I-2
I-2
I-2
I-2
I-2
I-1
I2
I2
I2
I2
I2
I2
I2
I2
I0
I1
I-2
I-2
I-1
I1
I1
I1
I1
I-2
I-2
I1
I1
I1
I1
I-1
I-2
I-2
I-2
I-2
I-2
I-1
I-2
I-2
I-2
I-1
I-2
I2
I1
I1
I1
I-2
I-2
I-2
I-1
I0
I-2
I-1
I2
I1
I2
I-1
I-2
I1
I2
I-1
I0
I1
I-2
I1
I1
I2
I-2
I0
I1
I-2
I1
I2
I1
I-2
I-1
I-1
I1
I-1
I2
I1
I-2
I-1
I-1
I-1
I-1
I2
I-1
I-2
I-1
I-1
I1
I1
I-1
I1
I-2
I-2
I1
I2
I-1
I1
I-1
I0
I-2
I-2
I2
I-1
I0
I1
I-2
I-2
I-1
I-2
I2
I2
I2
I1
I-2
I-2
I-1
I-2
I-1
I0
I1
I2
I2
I2
I2
I1
I2
I2
I-1
I-1
I1
I-2
I2
I-1
I1
I-2
I-2
I-2
I-2
I-2
I-2
I-1
I-2
I-2
I-1
I1
I-1
I2
I-2
I-2
I0
I-1
I2
I2
I0
I2
I-2
I2
I1
I1
I2
I2
I2
I2
I1
I2
I2
I2
I2
I1
I-1
I-1
I-2
I2
I1
I2
I2
I2
I2
I2
I2
I1
I-1
I1
I0
I-2
I1
I-1
I2
I-2
I-1
I1
I-2
I-2
I2
I2
I2
I2
I2
I2
I0
I-2
I-2
I-1
I1
I-1
I-2
I1
I1
I-1
I-2
I-2
I-1
I-1
I-2
I-1
I-2
I1
I1
I-2
I-2
I-1
tp2
sS'f01a393069ca6f71.jpg'
p3
(I-1
I-2
I0
I1
I1
I-1
I1
I2
I-1
I-1
I-1
I2
I1
I1
I0
I2
I2
I-1
I0
I1
I2
I-1
I-2
I-1
I-2
I-1
I-2
I-1
I2
I1
I1
I2
I2
I-1
I-2
I1
I2
I-1
I2
I2
I2
I2
I1
I2
I-2
I2
I0
I-1
I1
I-2
I2
I-2
I0
I-1
I-2
I-2
I-2
I-2
I-1
I-2
I-2
I-2
I-1
I-2
I-2
I1
I-2
I-1
I-1
I-2
I1
I1
I1
I2
I-1
I1
I-1
I-1
I2
I2
I-1
I1
I1
I1
I1
I2
I1
I-2
I-1
I-1
I2
I-1
I1
I-2
I-2
I-2
I-2
I-2
I-2
I-1
I-2
I-2
I1
I-2
I2
I-1
I-1
I2
I2
I2
I2
I1
I-2
I0
I2
I-2
I-1
I1
I-2
I1
I1
I2
I1
I1
I1
I-2
I2
I1
I2
I1
I-1
I-1
I-1
I1
I1
I-1
I2
I1
I-1
I1
I-1
I1
I1
I0
I1
I-1
I1
I1
I2
I2
I1
I-1
I-2
I-1
I1
I-2
I-2
I-2
I-2
I-2
I2
I2
I1
I2
I0
I1
I2
I-2
I2
I1
I0
I2
I-2
I-2
I-1
I-2
I-2
I-1
I-1
I2
I2
I2
I2
I-1
I2
I2
I-1
I-2
I-1
I-2
I-1
I-1
I1
I1
I-1
I-1
I-1
I1
I-1
I1
I1
I-1
I1
I-1
I-2
I1
I-1
I2
I-1
I-1
I0
I-1
I1
I1
I-1
I1
I1
I0
I1
I2
I-1
I1
I1
I1
I1
I2
I2
I-2
I-2
I-1
I-2
I1
I2
I0
I2
I2
I2
I2
I2
I2
I1
I2
I2
I2
I1
I-2
I1
I-2
I2
I-2
I-1
I-1
I-2
I-1
I-1
I-2
I-1
I-2
I-2
I-2
I-1
I-1
I-2
I1
I-2
I-2
I-2
I-1
I1
I1
I-1
I2
I0
I-1
I1
I-1
I1
I-1
I-1
I0
I-1
I1
I-1
I2
I0
I-1
I-1
I1
I1
I0
I2
I-2
I-2
I-2
I-2
I-1
I-2
I1
I-2
I-2
I0
I-2
I1
I-2
I-2
I-2
I2
I1
I2
I-1
I-2
I1
I2
I-1
I-1
I2
I-1
I2
I1
I2
I2
I1
I1
I-1
I2
I2
I2
I2
I1
I-1
I1
I2
I1
I1
I1
I-1
I-1
I-1
I-2
I0
I-1
I-2
I1
I1
I0
I2
I2
I1
I-2
I-1
I-2
I-2
I-1
I-2
I-2
I-2
I-2
I-2
I2
I2
I2
I2
I-1
I2
I2
I-2
I2
I2
I1
I2
I-2
I-2
I-2
I-2
I-2
I-1
I1
I1
I1
I2
I2
I-2
I2
I2
I-2
I-2
I-2
I-2
I-2
I-2
I-1
I0
I-2
I-1
I0
I2
I-1
I1
I2
I-1
I-1
I1
I-1
I1
I-2
I2
I-1
I-1
I2
I2
I2
I2
I1
I2
I1
I2
I1
I2
I-2
I-1
I1
I1
I1
I0
I2
I-2
I-2
I-1
I-2
I1
I-1
I-1
I2
I2
I2
I2
I2
I2
I2
I2
I2
I2
I1
I-2
I2
I-2
I2
I-1
I-1
I-1
I-2
I1
I-1
I-2
I1
I-2
I-2
I-2
I0
I-2
I-2
I-1
I-2
I-2
I-2
I-1
I1
I1
I-2
I2
I-1
I-1
I2
I1
I1
I-1
I-1
I1
I1
I2
I1
I1
I-2
I-1
I-1
I-1
I-1
I1
I1
I-2
I0
I1
I-2
I1
I0
I1
I-1
I-2
I1
I-2
I0
I-1
I-2
I-2
I1
I-1
I-2
I1
I2
I1
I-1
I1
I2
I2
I1
I0
I2
I2
I1
I0
I2
I1
I-2
I-2
I-2
I-2
I-1
I-1
I-1
I2
I-1
I-1
I-1
I-1
I1
I-2
I2
I1
I1
I2
I-2
I2
I2
I2
tp4
sS'a7fb2a1cd3d52f3d.jpg'
p5
(I-1
I1
I-1
I1
I-1
I2
I1
I1
I1
I1
I2
I2
I2
I-1
I2
I1
I2
I2
I-2
I1
I1
I-1
I-2
I-1
I-2
I-2
I-2
I-1
I2
I1
I-2
I1
I-1
I-1
I1
I1
I-1
I-2
I-1
I-2
I-2
I-1
I-2
I-1
I-1
I-2
I1
I-1
I-2
I1
I0
I-1
I-2
I-2
I-1
I-2
I-1
I0
I2
I-2
I-2
I-1
I-2
I-2
I-1
I-2
I-1
I-2
I-2
I-2
I-2
I1
I2
I1
I-2
I-2
I-2
I1
I2
I2
I2
I2
I2
I1
I2
I2
I1
I-1
I-1
I-2
I-2
I1
I1
I-2
I1
I1
I2
I2
I-2
I2
I-2
I-1
I2
I2
I2
I-1
I2
I1
I1
I-2
I0
I0
I2
I2
I2
I2
I1
I2
I2
I1
I2
I2
I2
I-1
I1
I2
I1
I1
I1
I2
I2
I-1
I0
I-1
I-1
I2
I2
I2
I-1
I0
I2
I-1
I2
I2
I-1
I-2
I-1
I-2
I1
I-1
I0
I-2
I-2
I-1
I-2
I-1
I-2
I-1
I-2
I-1
I2
I2
I1
I2
I2
I2
I2
I2
I1
I-2
I-2
I2
I-1
I0
I-2
I0
I1
I0
I0
I-2
I-2
I0
I-1
I1
I0
I1
I-1
I-1
I1
I1
I-1
I1
I1
I2
I-1
I1
I1
I1
I2
I1
I2
I1
I-2
I-2
I1
I-2
I1
I1
I-2
I-2
I-2
I0
I1
I-1
I-2
I-2
I-2
I1
I2
I2
I-2
I2
I1
I-1
I2
I-1
I1
I-2
I-2
I-1
I-2
I2
I-2
I-2
I-2
I1
I2
I1
I-1
I-1
I-1
I-1
I-1
I-2
I0
I0
I-1
I1
I1
I0
I-1
I-1
I-1
I-1
I-1
I-1
I2
I-1
I-1
I-1
I-2
I-2
I-1
I-2
I-2
I-2
I-2
I-2
I-1
I2
I2
I2
I-1
I0
I1
I2
I2
I2
I1
I1
I2
I1
I2
I2
I-1
I-2
I-2
I-2
I-2
I1
I-1
I-2
I1
I2
I-1
I2
I-1
I2
I-2
I1
I2
I1
I1
I-1
I2
I1
I0
I-1
I-1
I-1
I2
I1
I1
I1
I1
I1
I1
I2
I1
I1
I2
I-1
I1
I0
I1
I1
I1
I2
I0
I-1
I1
I1
I1
I2
I2
I-1
I-1
I-1
I2
I0
I2
I2
I-2
I-2
I-1
I-2
I-1
I-1
I-2
I-2
I-2
I1
I-2
I1
I-2
I-1
I-2
I-2
I2
I2
I1
I2
I2
I2
I2
I-2
I-1
I-2
I-2
I-1
I-2
I1
I-1
I0
I1
I-1
I1
I-1
I0
I0
I1
I1
I-1
I1
I-2
I-1
I-1
I-1
I-1
I-2
I1
I2
I-1
I-1
I0
I1
I2
I1
I2
I-1
I-2
I-2
I1
I-2
I-1
I-1
I-2
I-2
I-2
I2
I1
I1
I-1
I-2
I-1
I2
I2
I2
I-2
I1
I-1
I-1
I2
I-1
I2
I-2
I1
I1
I-2
I2
I-1
I0
I2
I2
I2
I2
I2
I-1
I-1
I-2
I1
I-1
I1
I1
I2
I2
I2
I2
I1
I1
I-1
I-1
I-1
I-2
I2
I-1
I-2
I-1
I-2
I-2
I1
I-2
I-2
I-2
I-2
I-2
I1
I2
I2
I2
I1
I1
I2
I2
I2
I1
I1
I-1
I2
I1
I2
I2
I-2
I-2
I-2
I-2
I-2
I1
I-1
I-2
I1
I1
I-2
I2
I1
I2
I1
I2
I0
I-2
I-1
I-1
I1
I-1
I-2
I-1
I1
I-1
I1
I1
I-1
I-1
I2
I2
I1
I1
I1
I2
I-1
I-1
I1
I1
I-2
I-1
I-1
I2
I-2
I-2
I-1
I-2
I-1
I-2
I1
I-2
I1
I-2
I2
I-1
I1
I2
I2
I-2
I-2
I-2
tp6
s.