(dp0
S'bedd6d3eae8df882.jpg'
p1
(I0
I2
I2
I0
I2
I2
I2
I2
I-2
I1
I-2
I1
I2
I-1
I2
I1
I2
I2
I-2
I2
I-1
I1
I-1
I-2
I0
I-2
I-2
I-2
I0
I-1
I-2
I-2
I-2
I1
I-1
I-2
I-1
I-2
I1
I1
I-1
I-2
I-2
I1
I0
I1
I-2
I-2
I2
I-1
I2
I-1
I1
I2
I-2
I-1
I-1
I-2
I1
I-2
I2
I2
I-2
I-2
I1
I-1
I1
I2
I2
I1
I-2
I-1
I2
I-2
I-2
I2
I-1
I-1
I1
I2
I2
I2
I1
I1
I1
I1
I2
I2
I2
I-1
I2
I0
I1
I2
I2
I1
I-1
I-2
I-1
I-1
I-1
I-1
I2
I1
I1
I1
I1
I0
I1
I1
I-1
I-2
I-1
I-1
I2
I-1
I2
I-1
I-2
I2
I-2
I-2
I-2
I-2
I1
I-2
I-1
I-2
I-2
I-2
I-2
I-1
I-2
I-2
I-2
I-2
I-1
I1
I-1
I2
I-1
I-1
I0
I1
I1
I-1
I0
I1
I1
I1
I1
I2
I-1
I-1
I1
I-1
I1
I1
I2
I0
I-2
I1
I-1
I-1
I-1
I2
I-1
I1
I1
I-1
I1
I0
I1
I1
I1
I-2
I-1
I-2
I2
I2
I2
I2
I2
I1
I-1
I2
I-2
I1
I2
I-2
I-1
I-2
I-2
I-1
I2
I2
I1
I1
I1
I-1
I-1
I0
I2
I0
I-1
I-1
I1
I-1
I-1
I1
I-1
I-2
I-1
I-1
I2
I-1
I-1
I1
I-2
I-2
I-2
I-2
I-2
I-2
I-1
I-2
I0
I1
I0
I2
I2
I1
I1
I1
I-1
I-1
I-2
I-1
I-1
I1
I-1
I-1
I2
I2
I2
I1
I2
I1
I2
I2
I2
I2
I-2
I2
I1
I-2
I1
I-2
I0
I1
I1
I1
I1
I-1
I1
I-1
I1
I2
I0
I1
I1
I-1
I1
I1
I1
I0
I-1
I1
I2
I-1
I1
I1
I-1
I-2
I-1
I1
I-1
I-1
I-1
I-2
I-2
I1
I2
I-1
I1
I1
I1
I-2
I1
I-1
I-1
I1
I-1
I1
I-1
I-2
I-2
I1
I-1
I1
I-2
I-2
I2
I-1
I2
I-1
I-1
I2
I-2
I0
I1
I-2
I1
I-2
I2
I2
I-1
I-1
I-1
I-1
I1
I2
I2
I1
I-2
I-1
I-1
I-1
I-2
I2
I0
I1
I0
I1
I2
I2
I-1
I2
I2
I2
I2
I2
I2
I1
I2
I2
I2
I2
I-1
I-1
I-1
I-2
I-2
I-1
I-1
I0
I1
I1
I2
I1
I2
I1
I1
I1
I-2
I-2
I-1
I1
I2
I-1
I2
I-2
I-2
I2
I-2
I-2
I-2
I-2
I1
I-2
I-2
I-2
I-2
I-2
I-2
I-1
I-2
I-2
I-2
I-2
I-1
I0
I-2
I2
I1
I-2
I-1
I2
I-1
I-2
I-2
I-1
I-1
I-1
I1
I2
I-2
I-2
I1
I1
I1
I2
I2
I1
I-2
I1
I-1
I-1
I1
I2
I1
I1
I0
I-2
I-1
I0
I1
I2
I2
I-1
I1
I-1
I2
I2
I2
I1
I2
I2
I1
I2
I-2
I2
I2
I-2
I-1
I-2
I1
I1
I2
I2
I2
I1
I2
I2
I2
I2
I2
I1
I1
I-2
I2
I-1
I-1
I-1
I-2
I-1
I-2
I-2
I2
I-2
I-2
I-2
I-2
I-2
I-2
I-2
I-2
I-2
I-2
I-2
I-1
I-1
I0
I2
I1
I-2
I-2
I-1
I-1
I-1
I-1
I-2
I-1
I-1
I-2
I-2
I1
I-1
I2
I2
I2
I-2
I-1
I-2
I-2
I0
I-1
I-2
I1
I0
I1
I-2
I1
I2
I-1
I-1
I1
I2
I2
I1
I-1
I2
I2
I2
I1
I2
I2
I2
I2
I-2
I2
I1
I1
I-2
tp2
sS'649bc572913426f9.jpg'
p3
(I2
I-1
I2
I-2
I0
I-2
I1
I0
I0
I-2
I1
I0
I-1
I2
I-2
I2
I1
I-2
I2
I1
I2
I0
I1
I-1
I-1
I-1
I0
I2
I1
I-1
I1
I2
I2
I1
I1
I2
I2
I2
I-1
I2
I2
I1
I2
I2
I-1
I2
I-2
I-1
I-1
I-2
I-1
I-2
I-1
I-2
I0
I0
I-2
I1
I-1
I-1
I-2
I-2
I1
I-1
I-2
I1
I-2
I-2
I-2
I-2
I2
I0
I1
I2
I1
I1
I1
I1
I-1
I0
I-1
I-1
I2
I0
I0
I0
I-2
I-2
I-2
I-2
I-1
I-2
I-2
I-2
I-2
I-2
I-2
I1
I0
I-1
I-2
I1
I-2
I-2
I0
I-2
I1
I1
I2
I2
I1
I2
I-2
I1
I1
I-2
I-2
I-2
I1
I-1
I2
I2
I2
I2
I-1
I2
I2
I2
I2
I2
I-1
I1
I1
I2
I2
I0
I2
I-1
I0
I-1
I0
I2
I0
I-1
I-1
I0
I2
I0
I0
I0
I-1
I0
I0
I2
I1
I0
I-1
I-1
I0
I-2
I2
I2
I2
I1
I2
I1
I-1
I2
I-1
I-1
I-2
I-2
I-1
I-1
I2
I2
I-1
I2
I-2
I-1
I-2
I-2
I-1
I-2
I0
I1
I1
I-2
I-2
I1
I-1
I1
I2
I-1
I-2
I-2
I-2
I1
I-2
I2
I1
I-2
I0
I0
I0
I2
I-1
I2
I-1
I1
I1
I1
I1
I1
I1
I1
I2
I1
I0
I0
I-1
I-1
I-2
I1
I-1
I-2
I2
I1
I2
I2
I2
I1
I0
I-1
I-2
I1
I-2
I-2
I-2
I1
I2
I2
I-1
I2
I-2
I0
I-1
I-2
I1
I-2
I-1
I1
I-1
I-2
I-2
I-1
I-2
I-1
I-1
I-2
I1
I-1
I-2
I2
I-2
I2
I0
I-2
I2
I1
I-1
I2
I1
I2
I-1
I1
I-1
I-2
I-1
I-1
I-1
I-2
I-1
I1
I-1
I1
I-1
I1
I-1
I1
I2
I2
I1
I0
I2
I1
I-1
I2
I2
I2
I1
I2
I1
I2
I2
I1
I2
I2
I1
I2
I-2
I1
I1
I-2
I1
I-2
I1
I-2
I-1
I1
I-2
I-1
I-2
I0
I-2
I-2
I2
I0
I-2
I2
I-2
I-2
I-1
I-2
I2
I1
I2
I2
I1
I2
I1
I2
I-1
I1
I-1
I-1
I2
I1
I1
I1
I-1
I-2
I-2
I-2
I-1
I-1
I-2
I-2
I-2
I-2
I-2
I1
I0
I-1
I-2
I1
I-2
I-2
I0
I-2
I1
I-1
I2
I2
I1
I2
I-2
I-1
I0
I-2
I-2
I-2
I1
I-2
I2
I2
I2
I2
I1
I2
I2
I2
I2
I1
I-2
I-1
I-1
I1
I1
I-1
I2
I-1
I-1
I1
I1
I2
I-1
I-1
I-2
I-1
I1
I-1
I-1
I-1
I-2
I-1
I-1
I2
I1
I1
I-1
I-1
I-1
I-2
I2
I2
I2
I1
I2
I1
I-1
I1
I-1
I-1
I-2
I-2
I-2
I-1
I2
I2
I-1
I2
I-2
I-1
I-2
I-2
I-2
I-2
I0
I0
I2
I-2
I-1
I2
I1
I2
I2
I0
I-2
I-1
I-2
I-1
I-2
I2
I-1
I-2
I1
I1
I1
I2
I-1
I2
I-1
I1
I1
I2
I1
I1
I1
I1
I2
I2
I1
I1
I-1
I-1
I-1
I1
I1
I1
I1
I1
I2
I1
I1
I2
I1
I1
I-1
I2
I-1
I1
I0
I1
I2
I2
I-2
I0
I-2
I-2
I0
I0
I-2
I-2
I0
I-2
I0
I1
I-2
I2
I-2
I2
I1
I-1
I2
I1
I-1
I-2
I-1
I-1
I-1
I-2
I-1
I-2
I1
I-1
I-1
I-1
I-1
I1
I-1
I-1
I0
I1
tp4
sS'3fcb130d33d02c17.jpg'
p5
(I2
I0
I2
I-2
I2
I-2
I-2
I-1
I-2
I-1
I-2
I-2
I-2
I1
I-1
I-2
I-1
I-1
I1
I-1
I-1
I-1
I-2
I1
I-1
I1
I-2
I-1
I1
I1
I-2
I-1
I-2
I-1
I-2
I-2
I-2
I-2
I2
I-2
I-1
I0
I2
I2
I1
I2
I-2
I2
I2
I-2
I1
I-1
I0
I1
I1
I2
I2
I-1
I1
I-1
I1
I1
I2
I1
I1
I-1
I0
I-1
I-1
I-1
I1
I1
I-1
I0
I-2
I-1
I-1
I-2
I2
I2
I2
I2
I1
I2
I1
I-2
I1
I1
I2
I-1
I-2
I-1
I-2
I-1
I2
I2
I2
I2
I1
I-2
I1
I1
I2
I1
I-1
I-1
I1
I-1
I1
I1
I1
I2
I-2
I0
I1
I-1
I1
I-1
I2
I2
I-1
I-1
I1
I-1
I1
I1
I2
I2
I-1
I1
I1
I-1
I0
I2
I1
I2
I1
I1
I-2
I0
I-2
I1
I2
I0
I2
I-1
I1
I2
I-2
I2
I2
I2
I2
I2
I2
I2
I2
I2
I2
I2
I1
I-1
I1
I-2
I1
I2
I2
I2
I-1
I-1
I-1
I2
I2
I-1
I1
I2
I-1
I2
I-2
I-2
I-1
I-2
I1
I-2
I-1
I-1
I-2
I-2
I-2
I-1
I-1
I-2
I-2
I-2
I-2
I-1
I-1
I1
I0
I-1
I-1
I-1
I-2
I-2
I-2
I0
I-2
I-1
I-1
I-2
I0
I-2
I-2
I2
I-1
I1
I-1
I-2
I-2
I-2
I-2
I1
I1
I-1
I-1
I1
I-2
I-2
I-2
I-1
I0
I-2
I-1
I-2
I-2
I-2
I0
I-1
I-2
I1
I2
I2
I0
I1
I-2
I1
I2
I-2
I1
I-2
I-1
I-1
I1
I2
I1
I-1
I0
I-2
I-2
I-1
I2
I1
I1
I0
I0
I-2
I0
I-1
I1
I1
I-1
I0
I-2
I-1
I-1
I-2
I2
I1
I1
I1
I-1
I1
I-2
I-1
I2
I1
I2
I1
I2
I-1
I-1
I-2
I-1
I1
I1
I-2
I-2
I-2
I-2
I-2
I2
I2
I2
I-1
I1
I0
I2
I1
I1
I2
I-1
I1
I2
I-1
I1
I-1
I1
I2
I1
I2
I2
I-1
I1
I0
I1
I-1
I1
I0
I1
I-1
I-1
I0
I-2
I-1
I1
I1
I-1
I1
I-2
I-2
I-1
I-2
I2
I2
I1
I2
I0
I2
I0
I-1
I1
I1
I2
I0
I-2
I0
I-1
I2
I2
I2
I1
I2
I2
I1
I2
I2
I2
I-1
I-2
I2
I2
I-1
I1
I1
I0
I2
I-2
I-1
I0
I-1
I1
I-1
I2
I2
I-2
I-1
I0
I-1
I-2
I1
I2
I1
I1
I2
I2
I2
I1
I2
I2
I2
I1
I1
I-2
I-1
I-2
I2
I2
I0
I2
I0
I0
I2
I-1
I2
I2
I2
I1
I1
I-1
I1
I2
I2
I2
I2
I-2
I-2
I-2
I-2
I1
I0
I1
I1
I-2
I-2
I-1
I1
I0
I0
I1
I2
I-1
I1
I-2
I-2
I-1
I-2
I2
I-2
I-1
I-1
I-2
I-2
I-2
I-2
I-1
I-2
I-2
I-2
I-1
I-2
I-2
I1
I-1
I-1
I-2
I-1
I-2
I-2
I-2
I1
I-2
I-2
I-1
I-2
I0
I-2
I-2
I2
I0
I2
I-1
I-1
I-2
I-2
I0
I0
I1
I0
I-1
I1
I-2
I-1
I-1
I-1
I-1
I-2
I-1
I-2
I-1
I0
I1
I0
I-2
I1
I2
I2
I-1
I1
I2
I-2
I1
I1
I2
I1
I-1
I-1
I2
I2
I2
I1
I1
I1
I1
I-2
I-1
I-2
I2
I1
I0
I2
I-1
I1
I1
I2
I1
I2
I-1
I1
I0
I-2
I-2
I2
I2
I2
tp6
sS'4ba5abb0b84bf418.jpg'
p7
(I1
I1
I1
I-1
I-1
I-1
I-1
I-2
I1
I-2
I0
I-2
I-1
I2
I2
I-1
I1
I2
I-2
I-1
I-2
I-2
I1
I1
I1
I-2
I1
I1
I-1
I-1
I1
I-1
I-1
I1
I0
I0
I-1
I1
I0
I-1
I1
I-1
I1
I1
I2
I1
I-1
I1
I0
I-1
I-2
I2
I1
I-2
I2
I2
I1
I2
I1
I2
I1
I1
I1
I-1
I2
I-1
I2
I-1
I0
I-1
I-2
I2
I2
I-2
I2
I-2
I-2
I-2
I-1
I-1
I-1
I-2
I-1
I-2
I-2
I-2
I-1
I1
I0
I1
I-1
I-2
I-2
I2
I1
I1
I1
I1
I2
I-2
I2
I2
I-1
I-1
I-2
I1
I1
I-2
I-2
I-2
I-2
I-2
I-1
I-1
I-2
I2
I-2
I-1
I0
I1
I2
I-1
I1
I2
I1
I2
I2
I1
I-1
I0
I2
I-1
I0
I2
I0
I2
I1
I2
I2
I0
I0
I0
I2
I2
I2
I2
I2
I0
I2
I2
I2
I2
I2
I2
I2
I-2
I2
I1
I2
I2
I-2
I-2
I-1
I-2
I1
I-2
I-1
I-1
I-2
I-1
I-1
I-2
I-2
I2
I1
I1
I-1
I1
I2
I0
I-2
I-1
I1
I-1
I-1
I-2
I-1
I-2
I-2
I-1
I-2
I-1
I-2
I-2
I-1
I0
I0
I2
I2
I1
I1
I2
I-2
I-2
I-2
I-2
I0
I-2
I2
I2
I-2
I-2
I-1
I0
I2
I2
I2
I2
I-2
I-2
I2
I-2
I1
I-1
I0
I-1
I-2
I1
I2
I-1
I1
I-1
I-1
I1
I1
I2
I-1
I-2
I1
I1
I1
I1
I2
I-2
I-1
I1
I1
I-1
I-1
I2
I-2
I-2
I2
I2
I-1
I1
I-1
I-1
I-2
I0
I2
I-1
I2
I1
I2
I-2
I0
I0
I-2
I-2
I-2
I-2
I0
I-2
I-2
I-1
I-2
I-2
I1
I0
I1
I-2
I-1
I1
I-2
I0
I1
I-1
I-1
I-1
I1
I-1
I1
I1
I2
I1
I2
I1
I0
I1
I-1
I-1
I-2
I-2
I-1
I-2
I-2
I-2
I1
I-2
I2
I2
I1
I2
I-1
I2
I2
I1
I2
I2
I2
I1
I2
I2
I2
I2
I0
I0
I2
I-2
I-1
I1
I1
I1
I0
I2
I2
I1
I2
I1
I2
I1
I1
I1
I1
I-2
I1
I-2
I-2
I-2
I-1
I-1
I-1
I-1
I-2
I-2
I-2
I-1
I1
I0
I2
I1
I2
I-2
I1
I2
I-1
I1
I-2
I-1
I2
I-1
I-2
I-2
I-2
I-2
I2
I-2
I-2
I2
I-1
I-1
I-1
I1
I-1
I-2
I-1
I1
I1
I1
I2
I-1
I-2
I-1
I-1
I-1
I1
I1
I-2
I2
I-2
I-2
I2
I-1
I-2
I-2
I2
I2
I-1
I2
I2
I2
I1
I2
I2
I2
I2
I2
I2
I-1
I2
I2
I2
I2
I1
I-1
I1
I-2
I2
I1
I1
I1
I-2
I-2
I-2
I-2
I-2
I2
I1
I0
I-1
I1
I2
I1
I-1
I0
I1
I-1
I0
I-1
I-1
I-2
I-1
I-1
I-2
I-1
I-2
I-1
I1
I2
I2
I2
I2
I1
I2
I2
I-2
I-2
I-2
I-2
I1
I-2
I1
I1
I-2
I-2
I-2
I-1
I-1
I-1
I1
I-1
I-2
I-2
I-1
I1
I0
I1
I-1
I-1
I-2
I-1
I2
I0
I0
I-1
I-1
I2
I-1
I2
I0
I-1
I2
I1
I1
I1
I-1
I0
I1
I-1
I-2
I1
I2
I-1
I2
I1
I1
I-2
I2
I-1
I2
I-2
I-1
I1
I-2
I1
I-1
I-1
I-1
I-1
I-1
I1
I1
I1
I1
I-1
I1
I1
I1
I1
I2
I-2
I-2
I-2
tp8
sS'e7e6725a5f3018e4.jpg'
p9
(I2
I0
I2
I-2
I-2
I-2
I-2
I-2
I2
I2
I-1
I0
I2
I-2
I1
I-2
I-1
I1
I-1
I-2
I-1
I0
I0
I2
I-1
I2
I2
I2
I1
I1
I2
I2
I2
I-1
I2
I2
I1
I2
I-2
I-2
I1
I0
I2
I2
I-1
I2
I-2
I2
I1
I-2
I1
I-2
I2
I1
I2
I0
I2
I-1
I2
I2
I1
I1
I-2
I1
I1
I-2
I1
I-1
I-2
I-2
I-1
I0
I-2
I-1
I0
I-2
I-2
I-2
I0
I-2
I-2
I0
I1
I-2
I-2
I-1
I-2
I-2
I-2
I-1
I-1
I-2
I-1
I-2
I-2
I-1
I2
I1
I2
I1
I-1
I-1
I-2
I-1
I-2
I-2
I-2
I1
I2
I2
I1
I2
I-2
I-2
I-2
I-2
I-1
I-2
I-1
I-2
I-1
I-1
I1
I1
I-1
I-1
I-2
I-1
I-1
I2
I2
I1
I1
I-1
I-1
I2
I2
I2
I2
I-1
I1
I-1
I1
I2
I2
I2
I2
I-1
I2
I1
I1
I2
I1
I1
I-1
I-2
I-2
I-1
I-1
I1
I2
I1
I2
I2
I1
I1
I2
I2
I1
I2
I-1
I1
I1
I-1
I2
I2
I1
I2
I-2
I1
I1
I-2
I-2
I-2
I2
I-1
I2
I2
I1
I2
I1
I2
I1
I2
I1
I1
I1
I-1
I2
I0
I2
I2
I-2
I-1
I-1
I-2
I1
I1
I1
I1
I-2
I-1
I1
I-1
I1
I1
I-1
I-2
I-2
I1
I-1
I-1
I1
I-1
I-2
I1
I-1
I-2
I-1
I-1
I1
I-2
I1
I2
I-2
I-1
I-1
I-1
I1
I-1
I2
I2
I-1
I2
I-2
I-2
I-2
I-2
I-2
I-2
I-2
I-2
I1
I-1
I0
I2
I2
I1
I1
I2
I-2
I-2
I-1
I-2
I1
I-2
I1
I-1
I-2
I-1
I-1
I-1
I-1
I-1
I-1
I1
I-1
I1
I1
I1
I-2
I0
I2
I2
I2
I2
I2
I2
I2
I2
I2
I1
I-1
I-1
I1
I-2
I2
I1
I-2
I1
I-2
I-1
I-2
I-2
I-1
I1
I2
I2
I-1
I2
I-2
I2
I-1
I-2
I0
I-2
I2
I1
I2
I-1
I2
I0
I2
I2
I1
I-1
I-2
I-1
I1
I-2
I-1
I-1
I-2
I-2
I1
I1
I0
I1
I2
I-2
I-2
I-1
I-1
I-2
I-2
I-2
I1
I-2
I-2
I-1
I-2
I-2
I-1
I-1
I-2
I-2
I-2
I-2
I-1
I2
I2
I2
I2
I1
I-1
I1
I-1
I1
I-2
I-2
I-2
I1
I2
I2
I1
I2
I-2
I-2
I-2
I-2
I-1
I-2
I-1
I-2
I-1
I-1
I1
I1
I-2
I1
I-2
I1
I1
I2
I2
I2
I-1
I-1
I2
I2
I2
I2
I2
I1
I2
I2
I2
I2
I1
I2
I2
I-2
I1
I1
I0
I1
I1
I2
I-1
I-1
I-1
I-1
I-1
I-1
I2
I1
I2
I1
I1
I1
I1
I2
I-1
I2
I-1
I-1
I1
I-2
I2
I2
I1
I2
I-2
I1
I-1
I-2
I-2
I-2
I-1
I-2
I2
I2
I1
I2
I2
I1
I1
I2
I-1
I-2
I-2
I-2
I-1
I-2
I0
I1
I-2
I-2
I-1
I1
I-1
I1
I1
I1
I-2
I0
I1
I1
I1
I1
I1
I1
I-1
I1
I-1
I-1
I1
I1
I1
I1
I1
I-1
I1
I-1
I2
I0
I1
I2
I-2
I-2
I-2
I-1
I2
I-1
I2
I2
I-2
I1
I-1
I-2
I-1
I2
I-1
I2
I1
I2
I-2
I0
I-1
I-2
I1
I-1
I-1
I-1
I-1
I0
I-1
I-1
I-1
I0
I-1
I-1
I-1
I0
I1
I1
I-1
I-1
I1
I-1
I2
I-2
I-2
I-2
tp10
sS'e65d32a4e55d60e9.jpg'
p11
(I1
I-1
I-1
I-1
I1
I-2
I-2
I-1
I-1
I-1
I-2
I-2
I-2
I1
I-2
I-1
I-2
I-2
I2
I-2
I-1
I-2
I-2
I2
I2
I1
I-1
I0
I-2
I-2
I-2
I-2
I-2
I2
I1
I0
I0
I1
I-1
I-1
I-1
I1
I2
I1
I2
I2
I1
I2
I2
I-1
I1
I1
I1
I2
I1
I2
I1
I-1
I-2
I1
I2
I2
I2
I2
I1
I2
I-2
I2
I2
I1
I2
I2
I-1
I2
I-1
I2
I2
I2
I2
I1
I2
I1
I1
I2
I2
I2
I0
I2
I0
I-1
I0
I2
I2
I1
I2
I0
I1
I0
I1
I2
I1
I2
I-1
I1
I-1
I1
I2
I-2
I-1
I1
I-2
I0
I-2
I-2
I-1
I-1
I1
I-2
I-1
I1
I-2
I-2
I-2
I-1
I1
I-1
I0
I-2
I-2
I-2
I-2
I-1
I-2
I-1
I-2
I-2
I-1
I-2
I-2
I2
I1
I1
I-2
I-2
I-2
I-2
I-2
I-1
I-2
I-2
I-2
I-2
I-2
I-2
I-2
I2
I-2
I-2
I-2
I-2
I-1
I-1
I-1
I2
I1
I0
I-1
I1
I-2
I-2
I-1
I-1
I-1
I2
I2
I2
I0
I1
I0
I1
I1
I-2
I1
I-2
I-2
I-2
I-1
I0
I1
I-1
I-2
I-2
I-2
I-2
I2
I2
I-1
I2
I-2
I-1
I-1
I-2
I2
I2
I2
I2
I-2
I1
I-2
I-2
I2
I2
I2
I2
I1
I0
I-1
I1
I2
I2
I0
I-1
I-1
I-1
I-1
I-1
I2
I1
I1
I1
I1
I1
I0
I1
I-1
I1
I-1
I-1
I1
I0
I2
I1
I2
I2
I-1
I2
I2
I-1
I1
I1
I2
I2
I2
I2
I1
I-1
I-1
I2
I2
I2
I2
I1
I-1
I1
I-2
I2
I2
I0
I2
I2
I0
I2
I-1
I2
I2
I2
I2
I1
I1
I1
I1
I2
I2
I2
I-1
I1
I-1
I-1
I0
I2
I2
I1
I1
I0
I1
I0
I1
I2
I1
I1
I-1
I-1
I-1
I0
I1
I-2
I-1
I1
I-2
I1
I-2
I-2
I-2
I-1
I1
I-2
I-1
I1
I-2
I-2
I-2
I-1
I1
I-1
I0
I-2
I-2
I-2
I-2
I-1
I-2
I-1
I-2
I-2
I0
I-2
I-2
I2
I-1
I1
I-2
I-2
I-2
I-2
I-2
I1
I-1
I-2
I-2
I-2
I-2
I-2
I-2
I1
I-2
I-2
I-2
I-1
I-1
I-1
I0
I2
I1
I0
I1
I-2
I-1
I-1
I-1
I1
I-2
I2
I2
I2
I-1
I1
I-1
I1
I1
I-2
I1
I-2
I-2
I-1
I-1
I0
I1
I-1
I-2
I-2
I-2
I-1
I2
I2
I-1
I2
I-2
I1
I1
I-2
I2
I2
I2
I2
I-1
I2
I1
I-1
I2
I2
I2
I1
I1
I2
I1
I1
I2
I2
I0
I-1
I1
I-1
I1
I1
I1
I-1
I-1
I-1
I-2
I1
I1
I1
I2
I2
I2
I2
I2
I1
I2
I1
I2
I2
I-1
I2
I2
I-1
I1
I1
I2
I2
I1
I2
I-1
I-1
I1
I1
I2
I1
I1
I-1
I-2
I-1
I-2
I1
I1
I-2
I2
I-1
I-2
I2
I-1
I2
I2
I-1
I1
I-1
I1
I1
I1
I2
I0
I1
I-1
I-1
I-1
I-1
I1
I-1
I1
I-1
I-1
I-1
I-2
I-1
I1
I0
I-1
I-1
I-1
I-2
I-1
I-2
I-2
I-2
I-1
I1
I-2
I-2
I-1
I-1
I1
I-2
I-2
I-1
I-1
I-1
I-1
I-1
I-2
I1
I-2
I2
I-2
I-2
I2
I-2
I1
I0
I1
I2
I1
I-1
I-1
I0
I-1
I-1
I1
I1
I2
I1
I1
I1
I2
I-1
tp12
sS'f421af0ac41e8133.jpg'
p13
(I1
I-1
I-1
I-1
I1
I-2
I-2
I-2
I-1
I-1
I-2
I-2
I-2
I1
I-2
I-1
I-2
I-2
I2
I-2
I-2
I-2
I-2
I2
I2
I1
I-1
I0
I-2
I-1
I-2
I-2
I-2
I1
I1
I-1
I-1
I1
I-1
I-1
I-1
I1
I2
I1
I2
I2
I1
I2
I2
I-1
I0
I1
I2
I2
I2
I2
I1
I0
I-2
I2
I2
I2
I2
I2
I2
I2
I-2
I2
I2
I2
I2
I2
I-1
I2
I-1
I2
I2
I2
I2
I1
I2
I1
I1
I2
I2
I2
I0
I2
I1
I-1
I0
I2
I2
I1
I2
I1
I1
I0
I1
I2
I1
I2
I-1
I1
I-1
I1
I2
I-2
I-1
I1
I-2
I-1
I-2
I-2
I-2
I-1
I1
I-2
I-1
I1
I-2
I-2
I-2
I-1
I1
I-1
I0
I-2
I-2
I-2
I-2
I-1
I-2
I-1
I-2
I-2
I-2
I-2
I-2
I2
I1
I1
I-2
I-2
I-2
I-2
I-2
I-1
I-1
I-2
I-2
I-2
I-2
I-2
I-2
I1
I-2
I-2
I-2
I-2
I-1
I-1
I-1
I2
I1
I-1
I-1
I-1
I-2
I-2
I-1
I-1
I-1
I2
I2
I2
I-1
I0
I1
I1
I1
I-2
I1
I-2
I-2
I-1
I-1
I0
I1
I-1
I-2
I-2
I-2
I-2
I2
I2
I-1
I2
I-2
I-1
I-1
I-2
I2
I2
I2
I2
I-2
I1
I-2
I-2
I2
I2
I2
I2
I1
I0
I-1
I1
I2
I2
I1
I-1
I-1
I-1
I0
I-1
I2
I1
I1
I1
I1
I0
I0
I1
I1
I1
I-1
I-1
I1
I1
I2
I1
I2
I2
I0
I2
I2
I-1
I1
I1
I2
I2
I1
I2
I1
I-1
I-1
I2
I2
I2
I2
I1
I-1
I1
I-2
I2
I2
I-1
I2
I2
I0
I2
I-1
I2
I2
I2
I2
I1
I1
I1
I1
I2
I2
I2
I-1
I0
I0
I-1
I0
I2
I2
I1
I1
I0
I1
I0
I1
I2
I1
I1
I-1
I-1
I-1
I1
I1
I-2
I-2
I1
I-2
I1
I-2
I-2
I-2
I-1
I1
I-2
I-1
I1
I-2
I-2
I-2
I-1
I1
I-1
I0
I-2
I-2
I-2
I-2
I-1
I-2
I-1
I-2
I-2
I1
I-2
I-2
I2
I-1
I1
I-2
I-2
I-2
I-2
I-2
I1
I0
I-2
I-2
I-2
I-2
I-2
I-2
I0
I-2
I-2
I-2
I-1
I-1
I-1
I-1
I2
I1
I-1
I1
I-2
I-1
I-1
I-1
I0
I-2
I2
I2
I2
I-1
I1
I-1
I1
I1
I-2
I1
I-2
I-2
I-1
I-1
I0
I1
I-1
I-2
I-2
I-1
I-1
I2
I2
I-1
I2
I-2
I1
I1
I-2
I2
I2
I2
I2
I-1
I2
I1
I1
I2
I2
I2
I1
I1
I2
I1
I2
I2
I2
I1
I-1
I1
I0
I1
I1
I1
I-1
I0
I-1
I-2
I1
I1
I1
I2
I2
I2
I2
I2
I1
I2
I1
I2
I2
I-1
I2
I2
I-1
I1
I1
I2
I2
I1
I1
I-1
I-1
I1
I1
I1
I1
I1
I-1
I-2
I-1
I-2
I1
I1
I-2
I2
I-1
I-2
I2
I-1
I2
I1
I-1
I-1
I-1
I0
I1
I1
I2
I-1
I1
I-2
I-1
I-1
I-1
I-1
I-2
I-1
I-1
I-1
I-1
I-2
I1
I1
I0
I-1
I-1
I-1
I-2
I-1
I-2
I-2
I-2
I-1
I1
I-2
I-2
I-1
I-1
I1
I-2
I-1
I-1
I-1
I-1
I-1
I-1
I-2
I1
I-2
I2
I-1
I-2
I2
I-2
I1
I1
I2
I2
I1
I-1
I1
I0
I-1
I-1
I1
I1
I2
I1
I1
I1
I2
I-1
tp14
sS'512d5935799f85f3.jpg'
p15
(I-2
I-1
I-2
I2
I-1
I1
I-1
I-2
I1
I2
I1
I-1
I2
I-2
I-2
I-2
I-1
I-2
I2
I1
I1
I-1
I-1
I-1
I0
I-2
I-2
I-2
I0
I-1
I-2
I-2
I-2
I1
I-2
I-2
I-2
I-2
I2
I-2
I-1
I1
I-1
I-1
I-1
I-1
I2
I1
I-1
I1
I-1
I1
I1
I2
I2
I1
I2
I1
I2
I2
I2
I2
I-2
I1
I-1
I-2
I-1
I0
I-1
I-1
I2
I1
I2
I1
I0
I0
I1
I-2
I1
I2
I2
I0
I-1
I1
I-2
I-1
I2
I2
I2
I1
I-2
I-1
I-1
I0
I2
I2
I2
I2
I1
I1
I2
I2
I2
I1
I-1
I1
I2
I1
I-1
I1
I1
I2
I1
I-1
I-2
I-1
I2
I0
I2
I0
I-2
I-2
I0
I-2
I-1
I-1
I-2
I2
I-2
I1
I0
I1
I1
I-1
I2
I2
I1
I-1
I-1
I-1
I-2
I2
I2
I2
I2
I2
I1
I2
I1
I2
I2
I2
I1
I1
I-2
I-1
I1
I2
I2
I2
I0
I-2
I-1
I-1
I1
I2
I1
I1
I-2
I-2
I-1
I1
I-1
I-1
I0
I2
I2
I-1
I-2
I-2
I1
I-2
I-1
I1
I-2
I-2
I0
I2
I1
I1
I2
I-1
I-2
I2
I-2
I-2
I-2
I-2
I1
I-2
I-1
I-2
I-2
I-2
I-2
I-1
I-1
I-2
I-2
I-2
I-2
I-2
I-2
I1
I-1
I-2
I-2
I-1
I-2
I-2
I-2
I1
I-1
I-1
I-1
I-2
I-2
I-1
I-1
I1
I-1
I1
I-1
I-2
I-1
I1
I1
I1
I-1
I-2
I-1
I-2
I-2
I-1
I1
I2
I1
I2
I-1
I1
I2
I1
I2
I2
I2
I1
I2
I2
I2
I2
I-2
I1
I2
I-2
I-2
I-2
I-2
I-2
I2
I2
I2
I2
I2
I1
I-1
I1
I2
I2
I1
I-2
I1
I-2
I-1
I-1
I1
I1
I-1
I-1
I-2
I-1
I-1
I-2
I2
I1
I-1
I2
I-1
I1
I-1
I-1
I2
I1
I1
I0
I0
I2
I-1
I1
I-1
I-1
I1
I-2
I-2
I-1
I-2
I-1
I-1
I2
I-1
I-2
I2
I2
I2
I1
I2
I2
I-2
I2
I-1
I-2
I-1
I1
I2
I2
I2
I1
I2
I1
I1
I2
I2
I1
I-1
I1
I1
I-1
I1
I2
I-1
I0
I1
I1
I-1
I-1
I-2
I-1
I-1
I1
I2
I1
I0
I2
I0
I2
I2
I1
I1
I0
I0
I2
I1
I1
I1
I-1
I1
I1
I1
I1
I-1
I1
I2
I1
I2
I-1
I-2
I-2
I-1
I-2
I2
I-1
I-2
I1
I-2
I-2
I-2
I-2
I1
I-2
I-1
I-1
I-2
I-2
I-2
I-1
I-2
I-1
I-1
I-1
I-1
I1
I1
I2
I1
I2
I2
I1
I0
I1
I-2
I-1
I1
I1
I1
I1
I-1
I-2
I-2
I-1
I-2
I-1
I-1
I-2
I-1
I-1
I2
I2
I0
I-1
I-1
I1
I2
I-1
I-1
I-2
I1
I-1
I-2
I1
I-2
I-2
I1
I2
I2
I2
I2
I-1
I-2
I2
I-1
I1
I1
I-2
I0
I-2
I-1
I-2
I1
I1
I-2
I0
I0
I-1
I-2
I-2
I1
I-2
I-1
I0
I-1
I-2
I-1
I-2
I-1
I-1
I1
I1
I0
I-1
I-2
I-2
I-1
I1
I-2
I0
I-2
I-2
I-2
I-2
I2
I0
I2
I-2
I-1
I-2
I-1
I-2
I1
I2
I1
I2
I-2
I2
I2
I2
I2
I2
I-2
I1
I1
I-2
I-1
I2
I2
I2
I1
I1
I2
I1
I1
I-1
I-1
I2
I2
I2
I1
I-2
I2
I2
I2
I2
I1
I2
I1
I-1
tp16
sS'1e36e5c1d07b3d17.jpg'
p17
(I2
I1
I2
I-2
I1
I-2
I1
I2
I-1
I1
I1
I2
I1
I-1
I-1
I2
I1
I1
I1
I-2
I2
I2
I1
I2
I1
I2
I2
I2
I-1
I1
I2
I1
I1
I-1
I-1
I-1
I0
I2
I1
I1
I2
I-1
I2
I2
I0
I2
I-2
I-1
I-1
I-2
I2
I-2
I-1
I-1
I-2
I-2
I-2
I-2
I-2
I-2
I-2
I-2
I-1
I-1
I-2
I1
I1
I-1
I-1
I-2
I-1
I-2
I-2
I-1
I-1
I-2
I-2
I-2
I-2
I-2
I-2
I1
I-2
I-2
I-1
I-2
I-2
I-1
I1
I2
I1
I1
I-1
I1
I-1
I0
I-1
I-1
I2
I-1
I-1
I-1
I-2
I-2
I-2
I-2
I-2
I0
I2
I2
I-1
I2
I-2
I1
I2
I-2
I1
I-2
I-1
I-1
I1
I2
I1
I-1
I-1
I-1
I-1
I1
I2
I1
I2
I1
I-1
I-1
I1
I1
I2
I2
I2
I1
I1
I2
I1
I-2
I2
I1
I-1
I-1
I-1
I1
I-2
I-2
I2
I1
I1
I1
I1
I-2
I-1
I1
I-1
I1
I2
I-1
I-1
I-2
I1
I-1
I1
I2
I1
I1
I-1
I1
I2
I2
I1
I2
I-2
I1
I1
I-2
I1
I-2
I1
I2
I1
I1
I1
I-1
I2
I0
I1
I1
I-1
I-1
I-2
I-2
I-1
I-1
I-1
I-1
I-1
I-1
I-1
I1
I-2
I1
I-1
I-2
I2
I2
I2
I2
I1
I2
I2
I1
I2
I1
I2
I-1
I2
I1
I-1
I1
I-1
I-1
I-1
I-2
I-2
I-2
I-1
I-1
I1
I1
I2
I1
I1
I-1
I2
I2
I1
I2
I-2
I-1
I0
I-2
I1
I-2
I1
I2
I-2
I-1
I1
I-1
I1
I-1
I2
I1
I-1
I1
I-1
I-1
I-1
I2
I1
I1
I1
I1
I-2
I1
I-2
I2
I2
I2
I2
I-2
I-1
I2
I-1
I2
I2
I2
I-1
I1
I2
I1
I1
I2
I2
I2
I-1
I1
I-1
I-1
I1
I2
I2
I2
I1
I-1
I-1
I2
I2
I-1
I2
I2
I0
I2
I-2
I-1
I1
I-2
I2
I-2
I-1
I-1
I-2
I-2
I-2
I-2
I-1
I-2
I-2
I-2
I-1
I-1
I-2
I1
I1
I-2
I-2
I-2
I-1
I-2
I-2
I-1
I-1
I-2
I-2
I-2
I-2
I-2
I-2
I1
I-1
I-2
I-2
I-2
I-2
I-2
I-2
I1
I1
I-1
I-2
I-1
I-2
I-2
I-2
I-1
I0
I-2
I-2
I-2
I-2
I-2
I0
I-2
I-2
I0
I2
I2
I-1
I2
I-2
I1
I2
I-2
I1
I-2
I1
I0
I1
I2
I2
I-1
I-1
I-1
I-1
I2
I2
I2
I2
I1
I-1
I-1
I2
I1
I2
I2
I2
I1
I0
I2
I2
I-2
I2
I2
I1
I0
I-1
I2
I-2
I-2
I2
I2
I2
I1
I1
I-1
I-1
I2
I1
I2
I2
I-1
I-1
I-2
I1
I-1
I2
I2
I1
I2
I-1
I1
I2
I2
I1
I2
I-2
I-1
I1
I-2
I-1
I-2
I1
I1
I0
I1
I1
I1
I2
I1
I2
I2
I-2
I-2
I-2
I-2
I-1
I-1
I-1
I-1
I-1
I-2
I-2
I1
I-2
I-1
I-1
I-2
I2
I2
I1
I2
I1
I2
I2
I0
I2
I1
I2
I-1
I2
I2
I-1
I1
I-2
I-1
I-2
I-2
I-2
I-2
I-2
I1
I1
I1
I2
I-1
I2
I-1
I2
I2
I-2
I-1
I-1
I-2
I1
I-1
I-2
I1
I-1
I0
I-2
I1
I1
I0
I0
I1
I1
I-2
I0
I-2
I2
I-2
I-2
I2
I-2
I0
I1
I2
I2
I1
I-1
I2
I1
I-1
I2
I-1
I-2
I-2
tp18
sS'27f0b162caf7fc3a.jpg'
p19
(I-2
I-2
I-1
I2
I-2
I-1
I1
I1
I2
I1
I2
I2
I2
I-1
I2
I2
I2
I2
I-2
I-1
I2
I2
I1
I1
I1
I2
I1
I1
I-1
I-1
I1
I1
I-1
I1
I-2
I2
I1
I-2
I2
I2
I1
I2
I1
I2
I-2
I1
I1
I-1
I-2
I-2
I1
I-2
I-1
I1
I-1
I-2
I-2
I-1
I2
I-2
I-1
I1
I-2
I-2
I-2
I-2
I0
I-2
I-1
I-1
I-2
I-2
I-2
I0
I-1
I-2
I-1
I-2
I-1
I-1
I-1
I1
I-1
I-1
I-1
I0
I-1
I-1
I-2
I1
I-1
I-1
I0
I2
I1
I-1
I-2
I1
I-2
I1
I2
I-2
I2
I-1
I2
I2
I0
I2
I2
I2
I2
I1
I-1
I1
I2
I-2
I2
I-1
I-2
I-2
I-1
I1
I2
I-2
I1
I-2
I-2
I-2
I-1
I1
I1
I-1
I1
I-2
I-2
I-1
I1
I1
I1
I-1
I-1
I-2
I-1
I-1
I2
I1
I1
I1
I1
I-1
I1
I-1
I0
I0
I-1
I-1
I2
I-1
I-2
I-2
I-2
I-2
I-2
I-2
I-2
I-2
I-2
I-2
I2
I0
I2
I-1
I-1
I-2
I1
I-1
I2
I1
I-1
I2
I2
I1
I1
I2
I2
I1
I2
I2
I2
I-1
I1
I2
I1
I2
I2
I2
I2
I-1
I2
I1
I2
I2
I1
I1
I1
I-2
I1
I1
I1
I1
I1
I-1
I1
I-1
I-1
I-1
I-1
I-1
I1
I2
I2
I1
I-2
I1
I1
I1
I2
I2
I1
I2
I-1
I2
I2
I-1
I2
I1
I1
I2
I1
I-2
I-2
I-2
I-2
I-1
I-1
I-2
I-2
I2
I-2
I-1
I0
I1
I-1
I-1
I-1
I2
I2
I2
I2
I2
I-2
I-2
I-1
I-2
I1
I0
I1
I2
I-2
I-1
I1
I-1
I0
I1
I2
I2
I-1
I1
I-1
I0
I-1
I2
I2
I1
I1
I-1
I-2
I1
I0
I2
I2
I1
I-1
I-2
I-2
I0
I-2
I2
I1
I-2
I1
I-1
I2
I2
I1
I2
I1
I1
I-2
I-2
I1
I0
I-2
I-1
I1
I-2
I-2
I-1
I-1
I-2
I0
I-1
I2
I-2
I-2
I-1
I-2
I-1
I-1
I-2
I1
I-2
I-2
I-2
I-2
I-2
I-2
I-1
I1
I-2
I-2
I-2
I-2
I-2
I-2
I-1
I-1
I-2
I-2
I-2
I-1
I-2
I-2
I1
I-1
I-2
I-2
I0
I-1
I-1
I-2
I1
I-2
I-2
I1
I-2
I2
I-1
I2
I2
I-2
I2
I2
I2
I2
I2
I2
I2
I2
I-2
I2
I2
I1
I1
I1
I2
I2
I-2
I1
I-1
I-1
I-1
I1
I2
I2
I-1
I-1
I-2
I-2
I1
I2
I2
I2
I1
I1
I-1
I1
I1
I2
I2
I2
I-1
I-1
I1
I1
I1
I2
I2
I2
I1
I2
I1
I1
I-1
I0
I-1
I-2
I-2
I-2
I-1
I-2
I-2
I2
I2
I2
I2
I1
I-2
I-2
I-2
I-1
I0
I-2
I-1
I1
I2
I0
I2
I2
I2
I-1
I1
I2
I0
I1
I2
I2
I2
I1
I2
I1
I-1
I2
I1
I2
I2
I-1
I-1
I-1
I-2
I1
I1
I1
I1
I-1
I-1
I-1
I-1
I0
I1
I0
I1
I-1
I-1
I1
I0
I-2
I0
I1
I0
I1
I2
I-2
I2
I-1
I2
I2
I-1
I2
I-1
I1
I2
I-1
I1
I-2
I1
I0
I-2
I-2
I-1
I-1
I-2
I-2
I-1
I1
I2
I-2
I-2
I-1
I-2
I-1
I-2
I-1
I-1
I1
I-1
I-1
I0
I0
I1
I1
I-1
I-1
I-2
I-1
I-1
I0
I-2
I-2
I1
I-2
I1
I1
I2
tp20
s.