(dp0
S'9b05cceecd450e09.jpg'
p1
(I2
I-2
I1
I-2
I-2
I-2
I-2
I-2
I2
I-2
I1
I1
I1
I2
I-1
I2
I2
I1
I1
I2
I2
I2
I2
I-2
I-2
I-2
I-2
I-2
I2
I1
I2
I1
I2
I-1
I2
I-1
I1
I1
I-2
I-1
I-1
I2
I2
I2
I2
I2
I-1
I2
I-1
I-2
I0
I-1
I-1
I-1
I2
I-1
I-2
I0
I1
I-1
I-1
I1
I-1
I-2
I-2
I-1
I-2
I-2
I-1
I-2
I-1
I-2
I2
I2
I1
I2
I-1
I-1
I-2
I2
I-2
I-1
I-2
I-1
I-1
I-2
I2
I-1
I1
I2
I2
I1
I-1
I2
I-2
I-1
I1
I-2
I-1
I-2
I2
I1
I-1
I1
I1
I2
I1
I-2
I1
I1
I1
I2
I-2
I1
I1
I-1
I-1
I1
I1
I-2
I1
I1
I2
I1
I1
I1
I-2
I-2
I-1
I1
I-2
I-1
I-2
I-2
I-2
I-2
I2
I1
I1
I2
I0
I-1
I-1
I-1
I1
I1
I-1
I0
I-2
I-1
I-1
I1
I2
I1
I2
I2
I2
I1
I2
I2
I-2
I-2
I-2
I-2
I-2
I-2
I-2
I-2
I-1
I-1
I2
I-1
I1
I-1
I-1
I1
I-2
I1
I-2
I-1
I-1
I-1
I-2
I-2
I1
I-2
I2
I2
I2
I2
I1
I2
I2
I2
I2
I2
I1
I-1
I1
I2
I2
I2
I2
I1
I1
I-1
I1
I2
I2
I1
I1
I1
I-1
I-1
I1
I1
I1
I-1
I-1
I-2
I2
I-1
I1
I-1
I-2
I-1
I-2
I2
I1
I-1
I1
I-2
I-2
I1
I2
I-1
I-1
I-2
I-1
I2
I2
I2
I-2
I1
I-1
I-1
I-2
I-2
I-2
I-2
I-2
I-2
I2
I-2
I-2
I2
I1
I1
I1
I1
I-2
I-2
I-2
I-1
I1
I1
I-1
I-1
I-2
I-2
I-1
I-1
I-1
I-1
I-1
I-2
I-1
I-1
I1
I1
I-2
I0
I-2
I-2
I1
I2
I2
I2
I1
I0
I-1
I2
I1
I2
I2
I-1
I2
I-1
I2
I2
I-1
I1
I-2
I1
I-1
I2
I2
I2
I2
I2
I-1
I2
I-1
I-2
I0
I0
I1
I-2
I2
I-1
I-1
I0
I-1
I1
I-2
I1
I-1
I1
I1
I1
I-1
I-2
I1
I1
I1
I1
I0
I1
I-1
I1
I1
I-1
I2
I2
I0
I1
I-1
I2
I1
I1
I2
I1
I1
I1
I2
I1
I2
I2
I-2
I-2
I-1
I-2
I-1
I-2
I1
I-1
I-2
I1
I1
I2
I1
I-2
I0
I1
I1
I1
I-2
I-1
I-1
I-1
I-2
I1
I1
I-2
I2
I2
I2
I2
I2
I2
I1
I0
I-1
I-1
I-1
I-2
I-1
I-2
I-2
I-2
I-1
I-1
I-2
I1
I-2
I-2
I-2
I0
I1
I-1
I-1
I2
I1
I-1
I2
I2
I-1
I-2
I2
I-1
I2
I1
I1
I1
I-2
I-1
I-2
I-2
I-2
I-2
I-2
I-1
I1
I-1
I2
I-1
I1
I-1
I-1
I1
I-2
I-1
I-2
I-1
I-2
I-1
I-2
I-2
I-1
I-2
I2
I-1
I2
I2
I-1
I2
I1
I2
I0
I2
I2
I1
I1
I2
I2
I2
I2
I2
I1
I-1
I2
I2
I2
I2
I0
I-2
I-1
I-2
I-1
I1
I-2
I-2
I-2
I-1
I2
I1
I0
I-1
I-2
I-1
I-1
I2
I1
I0
I1
I-2
I-1
I1
I1
I-1
I-1
I-2
I-1
I2
I2
I2
I1
I1
I-2
I-2
I-2
I2
I-1
I-2
I2
I1
I-2
I-2
I-2
I-1
I1
I-2
I-2
I-1
I-1
I-2
I-2
I2
I1
I2
I-1
I2
I2
I2
I1
I2
I1
I1
I2
I-2
I2
I-1
I1
I-2
tp2
sS'287afec508d504e8.jpg'
p3
(I1
I-2
I-1
I-1
I-2
I-2
I-2
I-2
I2
I-2
I1
I-1
I-2
I2
I2
I2
I1
I2
I-2
I-2
I-2
I-2
I-1
I2
I2
I0
I2
I2
I-2
I0
I-1
I1
I-1
I0
I0
I1
I-2
I-2
I0
I-2
I-2
I2
I2
I2
I2
I2
I1
I2
I-1
I-2
I-2
I2
I0
I-2
I2
I1
I-2
I2
I-1
I2
I-2
I-1
I2
I-1
I2
I1
I1
I-1
I1
I1
I-2
I2
I0
I-1
I2
I0
I-1
I2
I1
I-2
I1
I-2
I2
I-2
I0
I-1
I-2
I-1
I-1
I-2
I-2
I-2
I-2
I-2
I1
I2
I2
I2
I-1
I-1
I-1
I-1
I2
I2
I1
I0
I0
I-2
I-2
I-2
I-2
I-2
I-2
I0
I-2
I2
I-2
I1
I0
I-1
I2
I2
I1
I2
I1
I2
I2
I1
I1
I-1
I0
I-1
I0
I1
I-1
I2
I-1
I1
I2
I0
I2
I0
I2
I2
I-2
I0
I1
I-2
I-1
I1
I1
I1
I1
I2
I1
I1
I-1
I2
I2
I1
I2
I1
I0
I1
I1
I2
I1
I2
I1
I0
I-1
I1
I2
I2
I-1
I-1
I-1
I-1
I2
I0
I-2
I1
I-1
I0
I1
I-1
I1
I-2
I-1
I1
I-1
I2
I0
I-2
I-1
I1
I0
I1
I2
I2
I0
I2
I-2
I-2
I-1
I-2
I0
I-2
I-1
I-1
I-2
I-1
I-2
I0
I1
I-1
I-1
I1
I-1
I-2
I-2
I-1
I-1
I-2
I1
I-1
I-1
I-1
I-1
I1
I1
I2
I0
I0
I-2
I-2
I-1
I-1
I-1
I1
I0
I1
I-1
I0
I1
I-1
I-2
I-1
I-2
I-1
I-1
I-1
I1
I0
I-2
I2
I-2
I1
I1
I-2
I2
I0
I2
I2
I2
I2
I-1
I-1
I-2
I1
I1
I-2
I0
I-2
I-2
I-1
I1
I1
I2
I0
I2
I-2
I0
I2
I-1
I-1
I-2
I-2
I-2
I-2
I-1
I-2
I1
I0
I1
I2
I0
I1
I-2
I-1
I0
I1
I0
I-2
I-1
I1
I1
I1
I2
I-2
I0
I1
I-1
I-1
I-1
I2
I-2
I-2
I1
I-1
I-2
I1
I-2
I-2
I-2
I-2
I2
I1
I2
I2
I0
I1
I1
I1
I1
I2
I2
I0
I2
I1
I1
I2
I1
I0
I2
I-2
I2
I-2
I1
I1
I-2
I1
I-1
I-2
I-2
I-2
I-1
I-2
I2
I1
I2
I2
I1
I2
I1
I2
I1
I1
I-1
I-1
I1
I-2
I-2
I-2
I-2
I-1
I2
I2
I2
I2
I0
I2
I2
I2
I2
I2
I-1
I0
I-1
I2
I2
I-1
I2
I-1
I-1
I1
I-1
I2
I-1
I2
I-1
I-1
I2
I1
I2
I-1
I2
I2
I-2
I-1
I2
I-2
I1
I1
I-1
I1
I-1
I1
I-2
I-1
I-1
I-1
I0
I-1
I2
I-1
I1
I1
I2
I1
I1
I2
I-2
I-1
I-2
I-1
I1
I2
I-2
I1
I-1
I0
I1
I-2
I-2
I-1
I-2
I-2
I-1
I-2
I-2
I-2
I-2
I2
I-2
I1
I-1
I-2
I1
I1
I1
I2
I2
I2
I1
I2
I-2
I-2
I-1
I-2
I-2
I-2
I-1
I0
I-2
I1
I1
I2
I2
I0
I1
I2
I-1
I0
I-1
I-2
I-1
I0
I1
I0
I1
I-1
I1
I1
I2
I2
I1
I-1
I-2
I-1
I-2
I-1
I-2
I1
I2
I1
I0
I1
I-1
I-1
I-2
I2
I1
I-2
I2
I0
I2
I-1
I2
I0
I1
I-2
I1
I0
I-1
I1
I0
I-1
I0
I-1
I1
I-2
I-1
I-2
I-1
I-1
I0
I-1
I1
I1
I-1
I1
I2
I1
tp4
sS'afb34c1f19388550.jpg'
p5
(I-2
I-2
I-2
I2
I-1
I1
I1
I2
I1
I2
I2
I2
I2
I-2
I2
I1
I1
I1
I-2
I-1
I-2
I-2
I-2
I1
I0
I-2
I-1
I2
I0
I1
I-1
I2
I2
I-1
I-1
I2
I2
I2
I1
I2
I2
I2
I-1
I-1
I-2
I-1
I2
I-1
I-2
I1
I1
I-1
I1
I-2
I-2
I-2
I-1
I-1
I1
I-1
I-2
I2
I-2
I-1
I2
I-1
I-1
I-2
I2
I-1
I-1
I2
I2
I1
I1
I2
I1
I1
I2
I1
I1
I-1
I2
I-1
I0
I1
I-2
I-2
I-2
I-2
I-1
I-2
I-2
I-2
I-2
I-2
I-2
I1
I1
I-2
I-1
I1
I-2
I-2
I-1
I-2
I1
I2
I1
I2
I2
I0
I1
I-1
I1
I-2
I-2
I1
I-2
I-1
I2
I2
I2
I2
I2
I1
I1
I2
I-2
I-2
I-2
I-2
I-2
I-2
I-2
I-2
I1
I-1
I1
I2
I1
I-1
I0
I1
I-1
I0
I2
I-1
I0
I-1
I0
I1
I-1
I2
I2
I0
I2
I0
I1
I1
I2
I1
I2
I-2
I2
I-2
I-2
I1
I-1
I-1
I-2
I-2
I-1
I-2
I-1
I-2
I2
I0
I0
I2
I-1
I2
I1
I2
I2
I0
I1
I-1
I2
I-1
I1
I1
I-1
I1
I-2
I2
I1
I-1
I1
I-1
I1
I2
I2
I0
I1
I-1
I1
I-1
I2
I-1
I-1
I0
I0
I-1
I1
I2
I-1
I1
I-1
I-1
I2
I-1
I-1
I-2
I1
I1
I-1
I2
I2
I1
I2
I1
I1
I-1
I-1
I1
I-2
I-2
I-2
I-2
I-2
I-2
I-2
I-2
I0
I-2
I-1
I2
I-2
I-1
I-2
I2
I0
I1
I1
I2
I2
I0
I2
I2
I-1
I-1
I1
I-2
I2
I1
I1
I2
I-2
I-2
I-2
I-2
I-2
I-2
I-2
I-2
I1
I1
I2
I2
I2
I1
I1
I1
I-1
I-1
I-1
I-2
I1
I-2
I-1
I2
I-1
I-1
I2
I-1
I-2
I-1
I2
I2
I1
I2
I2
I2
I2
I2
I1
I-1
I-1
I-1
I2
I1
I0
I1
I2
I1
I-1
I-1
I-2
I-2
I-1
I-2
I-1
I-2
I-2
I1
I-2
I-1
I2
I1
I1
I-2
I1
I1
I-2
I2
I-1
I-1
I-1
I0
I1
I-1
I2
I-1
I2
I1
I1
I1
I0
I1
I-1
I1
I1
I-1
I2
I-1
I-1
I0
I-2
I-2
I-2
I-2
I-2
I-2
I-2
I-2
I-2
I-2
I2
I-2
I1
I1
I-1
I-1
I2
I-1
I1
I1
I2
I1
I-1
I2
I1
I-1
I1
I2
I2
I1
I2
I1
I0
I2
I-1
I-1
I0
I-2
I1
I-2
I-2
I-1
I-1
I-1
I-1
I-1
I-1
I-2
I-2
I1
I1
I0
I1
I1
I1
I-1
I2
I1
I-1
I1
I2
I-1
I1
I2
I1
I1
I0
I2
I2
I-1
I2
I1
I-1
I1
I2
I-1
I-2
I-2
I-2
I-2
I-2
I-2
I2
I1
I1
I-1
I-1
I2
I-1
I2
I2
I0
I1
I0
I2
I1
I2
I2
I1
I2
I-2
I2
I2
I-2
I1
I-1
I1
I2
I1
I2
I1
I-1
I2
I-1
I1
I0
I-1
I-2
I-2
I-2
I-1
I-1
I-2
I2
I-1
I-1
I-1
I1
I-1
I-1
I2
I2
I-1
I1
I2
I1
I1
I2
I2
I1
I-1
I2
I-1
I2
I-1
I-2
I-2
I-2
I-1
I-2
I-2
I2
I-2
I0
I-1
I1
I2
I2
I-2
I-1
I1
I-2
I2
I-2
I-1
I1
I-2
I-1
I0
I2
I1
I1
I2
I-2
I-2
I-2
I-2
I0
I-2
I-2
I-2
I0
I-2
I-1
I1
I2
tp6
sS'ceaea9daa4a296f5.jpg'
p7
(I2
I2
I2
I-2
I-2
I-2
I-2
I-2
I2
I2
I2
I1
I2
I-2
I-2
I-2
I-1
I-2
I2
I2
I1
I-1
I1
I-2
I-2
I-2
I-1
I-1
I2
I1
I1
I1
I2
I-1
I1
I1
I2
I2
I-1
I1
I2
I-2
I2
I1
I-2
I-1
I-2
I2
I-2
I-1
I-2
I-2
I-2
I-2
I2
I-1
I2
I2
I2
I2
I-1
I2
I-2
I1
I-1
I-2
I-2
I-2
I1
I1
I2
I1
I2
I2
I1
I2
I2
I2
I-1
I1
I-1
I-1
I0
I1
I1
I-1
I1
I-1
I-1
I0
I2
I1
I-1
I-1
I-2
I-2
I-1
I-2
I1
I-2
I-2
I-1
I-2
I-2
I-1
I-2
I-1
I2
I2
I2
I2
I2
I1
I2
I-2
I-2
I-2
I-2
I2
I-2
I2
I1
I2
I2
I2
I2
I0
I1
I-2
I-1
I-2
I-2
I0
I-2
I-2
I-2
I-1
I-2
I-1
I0
I0
I-2
I-2
I-1
I-2
I-1
I-1
I0
I-2
I-1
I-1
I0
I1
I1
I2
I2
I-1
I1
I2
I-1
I1
I2
I2
I1
I2
I2
I0
I1
I1
I1
I-2
I-2
I-1
I-2
I2
I2
I2
I2
I-2
I-2
I-2
I-2
I-2
I-1
I-2
I-2
I2
I0
I2
I2
I1
I2
I0
I2
I-1
I2
I2
I-1
I1
I-1
I1
I1
I2
I2
I1
I-1
I1
I1
I0
I-1
I1
I1
I-1
I-1
I1
I-1
I-1
I-1
I0
I-2
I-2
I-1
I-2
I-2
I-1
I1
I1
I0
I2
I2
I1
I1
I2
I2
I-1
I1
I-1
I1
I2
I-2
I1
I-1
I-2
I-2
I-2
I2
I-2
I1
I-2
I-2
I-1
I-2
I2
I0
I1
I2
I2
I2
I1
I2
I-2
I-1
I-1
I-2
I-1
I-1
I1
I1
I-1
I0
I1
I1
I-1
I1
I1
I2
I1
I1
I2
I1
I1
I2
I2
I1
I1
I1
I-1
I-1
I2
I2
I0
I-1
I-1
I-2
I-1
I-2
I1
I-2
I-2
I1
I-2
I-2
I-1
I-2
I1
I2
I2
I2
I2
I2
I2
I1
I-2
I-2
I-2
I-1
I1
I-1
I2
I-1
I1
I1
I1
I2
I1
I0
I-2
I-1
I-1
I-1
I0
I-1
I-1
I-1
I-1
I-1
I-2
I0
I0
I-1
I-1
I-2
I-2
I-2
I-2
I0
I-2
I-1
I-2
I1
I-1
I0
I2
I2
I-1
I-1
I2
I1
I1
I2
I2
I1
I2
I2
I1
I1
I-1
I-1
I-2
I-2
I-2
I-2
I1
I1
I2
I0
I-2
I-1
I-2
I-2
I-1
I2
I-2
I-2
I1
I-1
I1
I1
I-1
I0
I-2
I-1
I0
I1
I1
I1
I0
I-1
I-1
I1
I1
I1
I1
I0
I-1
I-1
I1
I-1
I2
I2
I1
I1
I2
I2
I0
I0
I-1
I-2
I-2
I-2
I-2
I-2
I-2
I-2
I-1
I-1
I2
I2
I0
I-1
I-1
I1
I-1
I2
I0
I-1
I1
I-2
I-2
I-2
I-2
I-1
I0
I2
I0
I2
I-1
I-2
I2
I0
I2
I2
I1
I1
I0
I2
I1
I2
I1
I1
I1
I0
I2
I1
I2
I1
I-1
I-1
I-2
I-2
I-2
I-1
I-1
I-1
I1
I0
I2
I2
I-1
I1
I1
I-1
I0
I2
I1
I1
I1
I1
I0
I0
I2
I1
I1
I-1
I1
I-1
I-1
I2
I-1
I-1
I-1
I-2
I1
I2
I2
I2
I1
I-2
I-2
I-2
I-2
I0
I-1
I-1
I2
I1
I-2
I-2
I1
I-1
I-1
I-1
I1
I-1
I1
I0
I1
I-1
I-1
I0
I-2
I1
I0
I1
I2
I0
I0
I1
I2
I0
I2
I-2
I-1
I-2
tp8
sS'2c781cb7b47801c2.jpg'
p9
(I-2
I-2
I-2
I2
I1
I2
I2
I2
I-1
I1
I1
I1
I2
I-1
I0
I-1
I2
I-1
I0
I-1
I2
I-1
I-2
I1
I1
I-1
I-2
I1
I-1
I-1
I-2
I-1
I1
I1
I2
I1
I1
I1
I-2
I-1
I-1
I2
I-2
I1
I2
I2
I2
I-2
I-1
I-1
I1
I2
I1
I-1
I-2
I-1
I1
I-1
I2
I1
I-1
I-1
I-2
I-2
I-2
I-2
I-2
I-2
I-2
I-2
I1
I1
I1
I2
I-2
I1
I-1
I2
I2
I2
I2
I2
I2
I1
I2
I2
I-1
I1
I-1
I-2
I1
I2
I1
I1
I-1
I-1
I1
I-1
I1
I1
I0
I1
I-1
I1
I-1
I0
I1
I-2
I-2
I-2
I-2
I-2
I-2
I-1
I-1
I2
I-2
I-1
I-2
I-2
I1
I1
I2
I2
I1
I-1
I1
I2
I1
I2
I-1
I-1
I-1
I-1
I2
I1
I2
I1
I-1
I1
I2
I2
I2
I1
I-2
I-2
I-2
I-2
I-2
I-2
I-2
I-2
I-2
I-1
I-1
I2
I-1
I-1
I-2
I-2
I-1
I0
I0
I1
I1
I-1
I-2
I1
I-1
I-1
I-1
I-2
I-1
I2
I1
I-1
I1
I1
I2
I2
I1
I1
I1
I2
I1
I1
I2
I-1
I1
I-1
I2
I1
I1
I2
I-2
I-2
I-2
I-2
I-1
I-1
I2
I-2
I-1
I-2
I2
I1
I0
I2
I-2
I-2
I-1
I2
I1
I0
I-1
I-2
I-2
I-1
I2
I2
I1
I1
I-1
I-1
I1
I1
I2
I2
I2
I1
I2
I2
I2
I2
I-1
I1
I-2
I-2
I-1
I-1
I-2
I-1
I1
I-1
I-1
I-1
I-1
I1
I0
I2
I-1
I-2
I-1
I-1
I1
I0
I2
I-1
I-2
I-1
I-2
I-2
I-2
I-2
I-2
I-2
I-2
I-2
I2
I2
I2
I2
I-1
I1
I1
I2
I2
I2
I1
I1
I2
I2
I2
I2
I1
I-1
I-2
I-2
I1
I2
I1
I1
I-1
I-2
I2
I-1
I1
I1
I1
I2
I-2
I1
I-1
I1
I1
I-1
I-2
I-2
I-2
I-2
I1
I1
I1
I2
I-1
I-1
I1
I1
I2
I2
I2
I1
I1
I1
I2
I2
I1
I2
I-1
I-1
I-1
I1
I2
I1
I2
I-1
I-2
I1
I2
I2
I1
I1
I-2
I-2
I-2
I-2
I-2
I-1
I-1
I-2
I-2
I-1
I-1
I2
I1
I1
I-2
I-2
I-1
I-1
I-1
I-1
I1
I-2
I-2
I1
I-2
I-1
I-1
I-2
I1
I2
I1
I1
I2
I2
I2
I-1
I-2
I-1
I1
I2
I1
I1
I-1
I-2
I-1
I-1
I2
I1
I1
I2
I-2
I-2
I-2
I-2
I-1
I-1
I2
I-2
I-1
I-1
I1
I1
I0
I2
I-2
I-2
I-1
I1
I-1
I0
I-2
I-2
I-2
I-1
I2
I2
I2
I2
I-1
I1
I2
I2
I2
I2
I2
I1
I2
I2
I2
I2
I-1
I-1
I-2
I-2
I-1
I-2
I-2
I-1
I0
I-2
I-2
I-1
I-1
I1
I1
I1
I-2
I-2
I-1
I-1
I1
I-1
I2
I-2
I-2
I-1
I-2
I-2
I-2
I-2
I-2
I-2
I-2
I-2
I2
I2
I2
I2
I1
I2
I2
I2
I2
I2
I-1
I-1
I2
I2
I2
I2
I1
I-2
I-2
I-2
I0
I1
I1
I1
I-2
I-2
I2
I0
I1
I1
I1
I2
I-2
I1
I-1
I0
I1
I0
I-1
I-2
I2
I2
I2
I2
I-1
I2
I2
I2
I1
I2
I1
I2
I-2
I-2
I1
I2
I-2
I-2
I-1
I1
I-2
I-2
I-1
I-1
I-1
I-2
I-1
I-1
I1
I1
I-1
I-1
I0
I-1
I1
I-2
I-1
I-1
tp10
sS'e2fa574ad02f948b.jpg'
p11
(I1
I-1
I1
I-1
I1
I-1
I1
I1
I-1
I2
I1
I1
I1
I-2
I-2
I-1
I-1
I-1
I2
I1
I1
I1
I2
I-1
I-1
I1
I1
I-2
I1
I0
I2
I-1
I-2
I0
I-1
I-1
I-2
I1
I1
I-1
I2
I1
I1
I1
I-2
I-2
I-1
I-1
I-1
I-1
I1
I-2
I-2
I-1
I-1
I-1
I1
I-1
I-1
I-2
I-2
I1
I-1
I1
I-1
I1
I1
I-1
I2
I-1
I1
I-1
I-1
I-1
I1
I2
I-1
I2
I-2
I-2
I-2
I-1
I-2
I-1
I1
I1
I2
I1
I1
I2
I-1
I2
I2
I1
I2
I2
I1
I1
I2
I2
I1
I2
I-1
I-2
I-2
I-2
I-1
I2
I2
I-1
I2
I1
I2
I2
I2
I1
I2
I2
I1
I2
I1
I2
I1
I-2
I2
I-1
I1
I2
I-1
I-2
I-2
I-2
I-2
I-2
I0
I-2
I1
I1
I1
I2
I2
I2
I1
I-1
I-2
I-1
I-2
I-2
I-1
I-2
I-2
I-1
I-1
I-2
I-2
I1
I-2
I-2
I-1
I-2
I-1
I-1
I2
I2
I1
I2
I2
I-2
I-2
I1
I-1
I2
I-2
I-2
I-2
I-2
I1
I1
I-1
I-1
I1
I2
I1
I2
I2
I2
I-2
I-1
I2
I-1
I2
I1
I1
I2
I-2
I0
I-2
I-2
I-2
I-2
I1
I-2
I2
I-1
I2
I2
I-1
I2
I-1
I-1
I1
I2
I2
I1
I2
I0
I-1
I-1
I1
I1
I-2
I-2
I-1
I-2
I-2
I-2
I2
I-2
I-2
I1
I-2
I-2
I-2
I-1
I2
I2
I2
I2
I2
I-1
I-2
I-1
I-2
I-1
I-1
I-2
I-1
I1
I0
I-1
I-1
I1
I-2
I-1
I2
I0
I2
I-1
I1
I-1
I-2
I-1
I-2
I-2
I-2
I-1
I-2
I-2
I2
I1
I0
I2
I0
I1
I1
I2
I1
I1
I2
I0
I-1
I1
I2
I-1
I1
I2
I2
I1
I-1
I2
I-1
I-2
I2
I2
I-2
I1
I2
I0
I-1
I1
I1
I-2
I-2
I-2
I-1
I2
I1
I1
I-1
I-1
I1
I1
I1
I-1
I1
I-2
I-2
I-2
I-1
I-1
I1
I-1
I-1
I-2
I-2
I-1
I1
I2
I-1
I1
I0
I-2
I1
I-1
I2
I-1
I-1
I0
I1
I1
I-1
I2
I-2
I-2
I-2
I-1
I-2
I-1
I2
I1
I1
I1
I0
I2
I-1
I2
I2
I1
I2
I1
I2
I1
I2
I2
I2
I2
I-1
I1
I-2
I0
I-1
I1
I2
I-1
I0
I0
I1
I2
I2
I1
I0
I1
I1
I2
I2
I2
I2
I0
I2
I1
I2
I2
I1
I-1
I-1
I-2
I-1
I-1
I1
I-1
I1
I1
I1
I1
I2
I2
I0
I0
I-2
I-2
I-2
I-2
I-1
I-2
I-2
I-2
I-1
I-2
I-2
I1
I-2
I-2
I-2
I-2
I-1
I-2
I0
I2
I-1
I2
I2
I-2
I-2
I1
I1
I2
I-2
I0
I-1
I0
I2
I2
I0
I-1
I-1
I0
I1
I2
I2
I2
I-2
I-2
I1
I-1
I2
I1
I1
I2
I-2
I-1
I-2
I-2
I-2
I-1
I-1
I-2
I1
I0
I2
I2
I-1
I2
I0
I-1
I0
I2
I2
I1
I1
I0
I-1
I-1
I2
I2
I-2
I-1
I1
I-1
I-2
I-2
I2
I-2
I-2
I-1
I-2
I-2
I-2
I0
I2
I2
I2
I1
I2
I-2
I-2
I1
I-2
I-2
I-1
I-1
I1
I-2
I-1
I1
I-1
I1
I-2
I1
I-2
I-1
I-2
I2
I0
I0
I2
I-1
I1
I1
I1
I1
I-1
I1
I2
I2
I1
I-2
I2
I2
I-1
I2
I2
I0
I-2
I-2
tp12
sS'867d39109737803d.jpg'
p13
(I-1
I1
I-1
I1
I2
I2
I-1
I2
I-2
I-1
I-2
I-1
I-1
I1
I-2
I-1
I-1
I-2
I2
I2
I2
I-1
I2
I-2
I-2
I-2
I-2
I1
I2
I0
I1
I2
I-1
I0
I-2
I2
I-1
I1
I2
I1
I2
I-1
I-2
I-2
I2
I-1
I1
I1
I2
I2
I2
I2
I2
I1
I-2
I1
I1
I-2
I0
I-1
I-1
I1
I1
I1
I-2
I0
I-2
I-2
I1
I-2
I2
I1
I2
I2
I2
I2
I1
I2
I-2
I2
I-1
I-2
I2
I-2
I1
I1
I-1
I-2
I-2
I-2
I-2
I-2
I-1
I-2
I1
I1
I-1
I2
I1
I2
I1
I-1
I-1
I-2
I-1
I1
I-2
I-2
I-2
I-2
I-2
I-2
I1
I-2
I1
I2
I-1
I-1
I0
I1
I-1
I1
I2
I1
I2
I1
I2
I2
I-1
I-1
I-2
I-2
I-2
I1
I-1
I-2
I2
I-2
I2
I2
I2
I2
I-1
I2
I-2
I-1
I2
I-2
I1
I-2
I1
I0
I-1
I1
I-2
I-1
I-1
I0
I-1
I-1
I2
I-1
I-1
I1
I-2
I-1
I-1
I-2
I1
I2
I2
I2
I1
I2
I1
I1
I1
I1
I2
I0
I-1
I-1
I2
I1
I-1
I0
I-1
I-2
I-1
I-2
I-1
I-2
I-1
I-2
I-2
I1
I-2
I1
I-2
I-1
I-1
I-2
I2
I1
I2
I2
I2
I2
I-1
I2
I-2
I-1
I0
I-2
I-1
I-2
I-1
I-1
I0
I1
I1
I1
I-1
I0
I1
I-2
I1
I1
I-2
I1
I-2
I1
I-2
I1
I2
I-1
I2
I1
I2
I-1
I-1
I-1
I1
I-1
I-1
I1
I2
I1
I1
I2
I1
I-1
I0
I1
I1
I-1
I-1
I1
I-1
I1
I2
I1
I-2
I1
I-2
I-1
I1
I-2
I2
I1
I2
I2
I2
I2
I1
I2
I-2
I1
I0
I-2
I0
I-2
I1
I1
I1
I-1
I-1
I0
I-2
I1
I1
I-2
I2
I2
I-1
I2
I2
I2
I1
I-1
I-1
I-2
I-2
I-2
I-2
I-1
I-2
I-1
I-2
I-1
I1
I-1
I-1
I1
I-1
I-1
I1
I1
I1
I1
I1
I1
I2
I2
I2
I2
I-1
I-1
I-2
I-2
I-2
I0
I1
I-2
I2
I-1
I2
I2
I2
I2
I-1
I1
I-2
I-1
I-1
I-2
I0
I-2
I-2
I1
I-1
I-1
I-2
I0
I-2
I-2
I1
I-2
I2
I-1
I2
I2
I-1
I2
I1
I1
I1
I2
I1
I2
I1
I2
I1
I2
I2
I2
I1
I-1
I-2
I-2
I-1
I0
I0
I-2
I-1
I-2
I0
I1
I1
I1
I-1
I-2
I-2
I-1
I-2
I-1
I-2
I-1
I-2
I-2
I2
I1
I2
I2
I2
I2
I1
I2
I-1
I2
I2
I-2
I2
I-2
I0
I-1
I-1
I-1
I-2
I-2
I-2
I-2
I-2
I-2
I2
I-1
I-2
I2
I-1
I-1
I1
I1
I-1
I-1
I1
I1
I1
I-2
I0
I0
I-1
I-2
I-2
I0
I-1
I0
I-2
I-1
I-2
I-2
I2
I1
I1
I2
I-1
I-1
I1
I1
I2
I2
I-2
I1
I-2
I1
I1
I-2
I2
I-1
I2
I2
I2
I2
I-1
I2
I-2
I0
I2
I-2
I-1
I-2
I2
I1
I1
I2
I1
I1
I1
I2
I2
I-1
I2
I-1
I-1
I-1
I1
I1
I-2
I-2
I-1
I-1
I-1
I-2
I-2
I1
I1
I-1
I2
I2
I1
I1
I1
I2
I-1
I-1
I-1
I0
I-1
I-1
I-2
I0
I-2
I2
I1
I2
I2
I2
I-2
I-2
I-2
I-2
I-1
I-1
I-2
I-1
I1
I-2
I1
I2
I2
I2
I1
I2
I2
I-1
tp14
sS'1d4f437152cd3061.jpg'
p15
(I2
I2
I2
I-2
I-2
I-2
I-2
I-2
I2
I1
I2
I2
I2
I-2
I1
I2
I1
I1
I-1
I2
I-1
I-1
I-1
I-2
I1
I-2
I-2
I-1
I-1
I-2
I-2
I-2
I-2
I2
I1
I1
I-1
I2
I-1
I-2
I1
I-2
I2
I1
I-1
I-1
I-2
I2
I-2
I-1
I-1
I-2
I-1
I0
I2
I-2
I-2
I1
I-1
I-1
I0
I0
I-2
I-1
I1
I1
I-1
I1
I1
I-1
I-1
I1
I2
I1
I0
I1
I-1
I1
I1
I2
I2
I0
I2
I-1
I1
I1
I1
I2
I-1
I-2
I-2
I-1
I-1
I-1
I2
I1
I2
I2
I2
I2
I2
I-1
I-2
I-1
I-2
I-1
I-2
I1
I2
I1
I-2
I1
I1
I1
I1
I-1
I1
I-2
I1
I0
I0
I0
I-1
I-1
I-1
I-1
I-1
I2
I0
I-1
I-1
I1
I-2
I-1
I2
I1
I1
I1
I1
I2
I1
I2
I2
I2
I-1
I-1
I1
I-1
I0
I1
I2
I1
I-1
I1
I-2
I0
I1
I2
I1
I0
I1
I-2
I1
I-1
I-2
I1
I-1
I0
I1
I2
I2
I2
I2
I2
I2
I2
I2
I2
I-1
I-1
I1
I-2
I-1
I0
I2
I-2
I0
I1
I1
I1
I2
I2
I-1
I-1
I-2
I-2
I-2
I-2
I-1
I-2
I-2
I-2
I-1
I-2
I-1
I1
I1
I-2
I-1
I1
I-2
I-2
I-2
I-1
I-2
I-2
I-1
I0
I-1
I-1
I-1
I2
I-1
I1
I2
I-2
I0
I1
I-2
I1
I1
I2
I-1
I1
I0
I-2
I-1
I-1
I1
I-2
I0
I2
I-1
I0
I-2
I-2
I-2
I-2
I-2
I-2
I-2
I-2
I2
I1
I2
I2
I0
I2
I2
I1
I1
I2
I2
I0
I2
I2
I2
I1
I2
I1
I2
I-2
I1
I-1
I-2
I-2
I-1
I1
I-1
I-1
I1
I-2
I-2
I-2
I0
I-2
I-2
I-1
I-2
I-2
I-2
I-2
I2
I1
I1
I2
I2
I1
I-1
I1
I-1
I-1
I-2
I-2
I-1
I1
I2
I1
I-1
I0
I0
I2
I-2
I-1
I1
I-1
I-1
I1
I2
I-2
I-2
I-1
I-1
I-1
I1
I1
I-1
I-2
I1
I1
I-1
I1
I2
I1
I-1
I2
I2
I1
I-2
I2
I2
I2
I2
I2
I2
I2
I2
I2
I2
I2
I2
I2
I-1
I-2
I-1
I2
I1
I1
I2
I1
I2
I1
I2
I2
I2
I0
I-1
I1
I-2
I0
I-2
I1
I1
I1
I-1
I2
I0
I1
I1
I-1
I2
I-1
I2
I-1
I-1
I-1
I-1
I-2
I1
I1
I-2
I1
I-1
I-2
I-2
I-1
I0
I-2
I0
I-1
I-2
I-2
I-2
I0
I1
I0
I-1
I1
I-2
I-2
I-2
I-1
I-2
I-2
I0
I0
I-2
I-1
I-2
I2
I0
I2
I2
I-1
I-1
I-2
I0
I0
I-2
I2
I-1
I-1
I0
I2
I2
I1
I1
I1
I1
I2
I2
I2
I-2
I-2
I-1
I-2
I-2
I-1
I0
I-1
I1
I2
I2
I2
I2
I2
I2
I1
I-1
I0
I0
I-2
I-1
I-1
I-2
I-1
I1
I1
I2
I1
I2
I-2
I-1
I1
I-1
I0
I-2
I-2
I-1
I-2
I-1
I-1
I0
I-2
I-2
I1
I-2
I0
I-1
I-2
I1
I1
I-1
I2
I0
I2
I-1
I2
I1
I-1
I0
I-1
I2
I-2
I1
I1
I-2
I0
I-2
I-1
I-1
I1
I-2
I1
I1
I-2
I-1
I2
I2
I2
I2
I1
I1
I2
I-2
I2
I-1
I1
I0
I-2
I-1
I1
I1
I-2
I1
I-2
I2
I1
I1
I2
I2
I-2
I-2
I-2
tp16
sS'1ff48c7817859be7.jpg'
p17
(I-2
I2
I1
I2
I1
I2
I2
I-1
I-1
I-1
I2
I-2
I-1
I1
I-1
I-1
I1
I1
I1
I2
I2
I2
I2
I-2
I-2
I-2
I-2
I-2
I2
I2
I2
I2
I1
I-2
I1
I-1
I-2
I-1
I-1
I-2
I-2
I-2
I-2
I-1
I-1
I-2
I-1
I-2
I-2
I1
I-2
I-1
I-1
I-2
I1
I2
I1
I2
I2
I2
I1
I1
I1
I-1
I-2
I-2
I0
I-1
I-1
I2
I-1
I-2
I2
I0
I0
I-1
I2
I1
I-2
I2
I-2
I0
I-1
I2
I1
I-2
I2
I-2
I1
I1
I-1
I1
I-2
I-2
I-1
I2
I2
I1
I1
I-1
I-1
I-2
I1
I1
I-1
I-2
I-2
I1
I1
I-1
I1
I-1
I2
I1
I-2
I1
I-2
I1
I-1
I-1
I2
I-1
I1
I2
I1
I2
I2
I-1
I-1
I1
I1
I-1
I2
I2
I-1
I-1
I-2
I-2
I-2
I-2
I-2
I-2
I-2
I-1
I-1
I-1
I-1
I2
I-2
I-2
I1
I-2
I2
I2
I1
I2
I-1
I2
I0
I2
I2
I1
I2
I1
I-1
I1
I2
I2
I2
I2
I1
I2
I2
I-1
I-1
I-1
I1
I-1
I1
I1
I-2
I1
I-1
I2
I1
I-2
I1
I-2
I-2
I1
I-2
I1
I-2
I-1
I1
I1
I2
I2
I-1
I1
I2
I2
I1
I2
I2
I1
I2
I2
I2
I2
I1
I-1
I-2
I-2
I-2
I-1
I-1
I-2
I2
I0
I-1
I2
I2
I2
I1
I1
I-2
I-2
I-2
I-2
I1
I-2
I-2
I-2
I-2
I-2
I-1
I-2
I-2
I-1
I-2
I-2
I-1
I-2
I1
I-1
I-1
I2
I-2
I2
I-1
I-2
I2
I2
I-1
I2
I2
I2
I-1
I2
I1
I-2
I-2
I-2
I1
I-2
I1
I1
I-2
I-2
I1
I-1
I1
I1
I-1
I-1
I-2
I1
I-2
I-1
I-2
I-1
I-2
I-2
I2
I-1
I1
I2
I0
I1
I-1
I-1
I-1
I2
I2
I0
I-1
I-1
I-1
I-1
I2
I2
I1
I1
I-1
I1
I-2
I-2
I-2
I-1
I2
I1
I-2
I2
I-2
I1
I2
I-1
I2
I1
I2
I2
I2
I2
I2
I1
I-2
I-1
I-1
I-2
I-1
I-1
I-2
I-2
I-1
I1
I1
I1
I-1
I-2
I-2
I1
I1
I2
I-1
I1
I-2
I-2
I2
I-1
I2
I1
I1
I2
I1
I2
I1
I1
I1
I1
I-1
I-1
I-1
I0
I1
I2
I1
I1
I1
I1
I2
I2
I-1
I2
I2
I1
I1
I-2
I-2
I-2
I-2
I1
I-1
I-2
I1
I-2
I1
I2
I-1
I2
I0
I0
I-1
I2
I2
I1
I-1
I1
I1
I2
I2
I2
I2
I1
I2
I2
I2
I2
I-1
I-2
I-2
I-2
I-2
I-1
I1
I-2
I1
I-1
I0
I2
I1
I2
I-1
I-1
I-1
I-1
I-1
I-1
I2
I-1
I-1
I-1
I-2
I-2
I-2
I-2
I-2
I-2
I-1
I-1
I0
I-2
I-1
I1
I-2
I1
I-2
I1
I-2
I-2
I2
I0
I-1
I2
I1
I-1
I-1
I1
I0
I-1
I-2
I-1
I1
I-2
I1
I-1
I-2
I-2
I1
I-1
I2
I1
I-2
I-1
I-2
I-1
I-2
I-2
I-2
I-2
I-2
I-2
I2
I1
I1
I2
I-1
I2
I-1
I-1
I1
I1
I2
I1
I1
I1
I1
I1
I1
I2
I-1
I0
I1
I0
I-1
I-2
I2
I2
I1
I2
I-1
I2
I1
I2
I1
I2
I-1
I-1
I-1
I-2
I-2
I1
I2
I2
I2
I2
I1
I2
I-2
I-2
I-2
I2
I1
I-1
I2
I0
I1
I-1
I0
I0
I1
I-1
I-1
I-1
tp18
sS'ac991f72d7889da4.jpg'
p19
(I2
I2
I-2
I-2
I-1
I2
I-2
I1
I1
I1
I-2
I1
I1
I-1
I1
I-1
I-1
I-2
I-1
I-2
I-2
I-2
I2
I2
I2
I-1
I2
I0
I-2
I1
I1
I-2
I-2
I-1
I-2
I-2
I-2
I-2
I2
I2
I1
I-2
I-2
I-2
I-1
I-2
I2
I2
I2
I2
I2
I2
I2
I1
I-1
I-1
I1
I-2
I-1
I-1
I-2
I-1
I-1
I1
I2
I1
I-1
I-2
I-1
I1
I2
I2
I1
I1
I2
I1
I2
I1
I-2
I-2
I-1
I-2
I-2
I-2
I-2
I1
I0
I2
I2
I2
I1
I0
I2
I-1
I2
I2
I-2
I-1
I-1
I2
I-2
I-2
I2
I-1
I1
I-1
I-2
I1
I-2
I-1
I-1
I-1
I2
I-2
I1
I1
I-2
I1
I-1
I1
I-1
I2
I2
I2
I2
I2
I2
I2
I1
I1
I-1
I-2
I1
I2
I1
I1
I-1
I-2
I2
I-2
I-1
I-1
I-1
I2
I-1
I2
I0
I1
I2
I0
I2
I2
I-1
I-2
I-2
I-2
I-2
I-1
I-2
I-2
I1
I1
I1
I2
I-1
I2
I2
I-1
I2
I2
I1
I2
I0
I1
I-1
I-1
I-1
I-2
I1
I1
I-2
I1
I2
I-1
I-2
I1
I-1
I-2
I-2
I-2
I-1
I-2
I-1
I-1
I-2
I-1
I1
I1
I-1
I0
I1
I1
I-1
I1
I0
I1
I2
I1
I1
I-1
I-2
I-2
I1
I-2
I-1
I-2
I-2
I-2
I-2
I2
I-2
I1
I0
I-2
I-1
I-1
I2
I-2
I-2
I0
I-2
I-1
I-1
I-2
I1
I0
I2
I2
I1
I1
I1
I-1
I2
I-2
I2
I2
I2
I1
I2
I2
I-1
I2
I-1
I1
I0
I-2
I1
I-2
I-1
I-1
I1
I-1
I-1
I-1
I0
I-2
I-1
I1
I-1
I-1
I2
I0
I-2
I-1
I1
I2
I1
I2
I2
I2
I2
I2
I2
I-1
I2
I1
I1
I-2
I0
I2
I-2
I-1
I1
I1
I-2
I0
I-2
I-2
I-1
I-2
I2
I-1
I2
I2
I1
I-2
I-2
I-2
I0
I-2
I2
I1
I2
I2
I2
I2
I2
I2
I-2
I1
I2
I-2
I1
I0
I-1
I2
I1
I1
I1
I-1
I2
I-1
I2
I1
I-1
I-1
I-2
I-2
I1
I1
I-1
I2
I-2
I-2
I-2
I-1
I-2
I-2
I1
I-1
I1
I2
I2
I2
I2
I2
I2
I-2
I1
I1
I-2
I-2
I-2
I2
I-2
I-2
I2
I-1
I2
I-2
I-1
I0
I-2
I-2
I-2
I-1
I2
I-2
I0
I2
I-1
I0
I1
I1
I-2
I1
I1
I1
I2
I2
I2
I2
I-2
I-2
I-1
I-2
I-1
I-1
I-1
I-1
I-1
I1
I2
I1
I2
I1
I1
I1
I-2
I-1
I-2
I-2
I-1
I-2
I-2
I-1
I1
I-2
I-2
I1
I-2
I-1
I-1
I1
I2
I2
I2
I2
I1
I2
I2
I1
I2
I1
I-1
I2
I-1
I2
I0
I1
I1
I-2
I1
I-1
I-2
I-1
I1
I1
I-2
I1
I-1
I-2
I1
I-1
I1
I-2
I1
I-1
I-2
I1
I-1
I-1
I-1
I1
I-1
I-1
I1
I-1
I2
I1
I1
I-1
I-1
I-1
I-1
I2
I1
I-1
I1
I-1
I-1
I-1
I1
I1
I-2
I-1
I1
I-2
I-2
I-1
I-1
I-2
I-2
I-1
I-2
I-2
I-2
I-2
I-1
I1
I2
I2
I1
I-1
I-1
I-2
I2
I2
I2
I2
I2
I-1
I-1
I-1
I-2
I-1
I1
I1
I1
I1
I-1
I1
I1
I1
I1
I0
I1
I1
I2
I0
I1
I1
I2
I2
I-1
I1
I1
I2
I-2
I-1
I-2
I2
I-1
I2
tp20
s.