(dp0
S'6ae47cfd3384a657.jpg'
p1
(I-1
I-2
I-2
I1
I0
I-1
I-2
I-2
I0
I-1
I-2
I-2
I-1
I1
I-1
I-2
I-1
I-2
I1
I-2
I1
I-2
I-2
I2
I0
I0
I-1
I2
I0
I-1
I0
I2
I1
I1
I1
I2
I2
I1
I-1
I1
I0
I2
I1
I-1
I1
I0
I2
I2
I2
I1
I-1
I1
I1
I1
I2
I2
I2
I1
I2
I2
I1
I2
I1
I1
I-1
I-2
I-2
I-1
I1
I0
I2
I2
I0
I2
I-1
I2
I2
I2
I2
I1
I0
I1
I2
I2
I2
I2
I-2
I-2
I-2
I-2
I-2
I0
I2
I1
I-1
I-2
I-1
I2
I-1
I2
I2
I1
I-1
I0
I1
I2
I2
I-1
I-1
I-1
I1
I-1
I0
I-1
I-2
I1
I-1
I1
I-1
I0
I-1
I-1
I1
I1
I1
I0
I1
I1
I-2
I-1
I-2
I-1
I0
I-1
I1
I-2
I0
I-2
I-2
I0
I-1
I1
I-2
I-2
I-2
I-2
I0
I1
I2
I-1
I-2
I-2
I-2
I-2
I-2
I-2
I-1
I-2
I-2
I-2
I-1
I-2
I-2
I1
I-1
I-2
I-2
I-2
I-1
I-2
I1
I-2
I-1
I-1
I-1
I-1
I2
I1
I1
I1
I0
I1
I1
I2
I2
I1
I0
I-1
I1
I-1
I1
I2
I1
I0
I-1
I-1
I-1
I-1
I-2
I0
I-1
I-2
I2
I2
I1
I2
I-1
I2
I1
I-2
I2
I2
I2
I1
I-1
I1
I-2
I0
I2
I2
I2
I1
I-2
I-1
I1
I1
I2
I2
I2
I2
I2
I2
I2
I2
I2
I1
I-2
I-1
I-2
I-2
I-2
I-1
I-2
I-2
I-1
I-2
I-2
I1
I-1
I-1
I-2
I-2
I-1
I-1
I0
I1
I-1
I-1
I-2
I-1
I0
I1
I-2
I1
I-1
I-2
I0
I-1
I2
I-1
I-1
I1
I-2
I1
I0
I-1
I2
I2
I1
I2
I2
I2
I2
I2
I0
I-1
I-2
I-2
I-1
I1
I2
I2
I-1
I-2
I1
I1
I-1
I2
I2
I2
I-2
I2
I1
I2
I2
I2
I1
I-1
I-1
I-2
I2
I2
I1
I1
I-2
I1
I-1
I-2
I2
I2
I2
I2
I2
I1
I1
I1
I1
I0
I-1
I-2
I-2
I-2
I-2
I-1
I1
I0
I-2
I1
I-1
I-1
I1
I-1
I1
I-2
I-1
I1
I2
I1
I0
I1
I-2
I-2
I-2
I-2
I-1
I-2
I-2
I-2
I-2
I-2
I-2
I1
I-1
I-1
I-2
I-2
I-2
I-2
I1
I-1
I-1
I1
I-1
I-1
I2
I1
I2
I1
I-1
I1
I-1
I2
I2
I2
I2
I-1
I2
I1
I0
I2
I2
I2
I-1
I2
I1
I0
I1
I2
I2
I0
I1
I-1
I-1
I-1
I-1
I1
I-1
I-1
I1
I0
I2
I1
I1
I0
I0
I-2
I-1
I2
I1
I-1
I-1
I-1
I-2
I-2
I2
I2
I1
I1
I1
I-1
I-2
I1
I2
I1
I-1
I-2
I1
I-2
I-2
I-2
I1
I-1
I-1
I-2
I-2
I2
I1
I2
I1
I0
I-2
I-2
I-2
I-1
I-1
I1
I-1
I-1
I-2
I-2
I-1
I1
I-2
I1
I-1
I-2
I0
I1
I0
I2
I-1
I2
I-1
I-2
I1
I0
I1
I1
I-2
I-1
I-2
I0
I2
I2
I1
I2
I-2
I-1
I2
I1
I2
I2
I2
I2
I2
I2
I2
I2
I-1
I-1
I-2
I-2
I-2
I-1
I-2
I-2
I1
I-1
I-1
I2
I-1
I0
I1
I-1
I1
I-1
I1
I1
I-2
I1
I-2
I2
I1
I1
I2
I-2
I2
I2
I1
I2
I2
I0
I-2
I-2
I-2
I-1
I-1
I-2
I2
I1
I-1
I-2
I2
I1
tp2
sS'e086cdc089741f7d.jpg'
p3
(I-2
I0
I-2
I2
I1
I2
I1
I2
I-1
I0
I-1
I1
I2
I0
I1
I1
I2
I1
I-1
I2
I1
I-1
I0
I-2
I-1
I-2
I-2
I-2
I1
I-2
I0
I-2
I2
I2
I2
I-1
I2
I2
I-2
I-2
I-2
I0
I-2
I-2
I0
I1
I2
I-1
I1
I2
I2
I2
I2
I0
I-2
I-1
I-1
I-2
I1
I2
I-2
I0
I-2
I-2
I-1
I-1
I-1
I-2
I-1
I-2
I-1
I1
I2
I1
I1
I-1
I-1
I0
I0
I2
I0
I-1
I-2
I-2
I-1
I2
I2
I2
I1
I2
I2
I1
I2
I2
I-2
I-2
I2
I-2
I-2
I-1
I0
I1
I-2
I2
I2
I2
I2
I0
I-2
I1
I-1
I-1
I-1
I-2
I-2
I-1
I-2
I-2
I-2
I-2
I0
I2
I2
I2
I1
I2
I1
I1
I0
I1
I1
I-1
I-1
I0
I0
I1
I2
I1
I2
I1
I1
I1
I1
I2
I0
I1
I-1
I-1
I2
I1
I1
I2
I-2
I-2
I1
I-2
I1
I-2
I-2
I-2
I-2
I0
I-2
I-1
I1
I-2
I-2
I1
I-1
I-2
I-1
I-2
I1
I1
I2
I0
I0
I-2
I1
I2
I-2
I0
I-1
I0
I-2
I-1
I2
I-1
I0
I1
I0
I-2
I-1
I0
I-1
I0
I-1
I0
I1
I0
I0
I1
I-1
I-1
I-1
I-1
I1
I-1
I0
I2
I-2
I-1
I2
I-1
I1
I-1
I2
I-1
I-2
I2
I2
I-2
I-1
I1
I-2
I-1
I2
I2
I2
I1
I2
I-1
I0
I2
I-1
I-1
I-2
I-2
I1
I0
I0
I-2
I2
I-2
I2
I2
I2
I2
I2
I2
I1
I2
I1
I1
I0
I-2
I0
I-1
I0
I1
I0
I0
I1
I0
I1
I0
I1
I1
I-1
I0
I1
I-1
I2
I0
I0
I-1
I-2
I-2
I-1
I-2
I-2
I-2
I-2
I-2
I1
I2
I1
I2
I1
I-1
I0
I2
I1
I0
I2
I-1
I2
I-1
I2
I1
I-2
I-1
I-2
I-2
I-2
I-2
I-2
I-2
I-2
I-2
I2
I-1
I1
I2
I1
I2
I1
I1
I-2
I0
I0
I-1
I1
I-1
I-1
I2
I-1
I-1
I0
I-1
I0
I-2
I1
I-1
I-1
I0
I2
I0
I-1
I1
I-2
I0
I1
I2
I1
I1
I1
I-1
I1
I1
I2
I0
I1
I-1
I2
I1
I1
I2
I-2
I-2
I2
I-2
I-2
I-2
I-1
I-1
I-1
I2
I2
I2
I2
I2
I-2
I-2
I0
I-1
I2
I-1
I1
I2
I0
I1
I1
I-1
I-1
I1
I1
I0
I2
I1
I-1
I1
I-2
I-1
I-1
I-2
I-2
I-2
I-1
I-2
I1
I2
I1
I2
I2
I1
I1
I1
I0
I-1
I-1
I-2
I0
I-1
I-1
I1
I-1
I-1
I2
I0
I2
I-1
I1
I-2
I-2
I1
I-2
I-2
I0
I-2
I-2
I2
I1
I-2
I0
I-2
I2
I0
I-1
I-1
I-1
I-2
I1
I-1
I-1
I1
I-1
I-1
I-1
I0
I1
I1
I2
I1
I2
I0
I1
I2
I-1
I1
I-1
I-2
I0
I-1
I1
I0
I2
I-1
I1
I0
I0
I1
I0
I2
I-1
I1
I1
I0
I2
I0
I2
I1
I-1
I-1
I2
I-2
I-2
I0
I-1
I1
I2
I2
I2
I2
I2
I2
I2
I2
I-2
I-2
I-2
I-2
I-1
I1
I1
I-1
I2
I1
I0
I1
I1
I0
I-1
I1
I-1
I2
I-2
I-1
I-1
I-2
I-1
I0
I0
I0
I1
I2
I-2
I-2
I0
I-2
I-1
I-1
I1
I-2
I1
I2
I-1
I-2
I2
I-2
I2
I-2
I1
I-2
tp4
sS'fb10e8b22237667d.jpg'
p5
(I-1
I-2
I-2
I1
I-1
I-2
I-2
I-2
I1
I2
I-1
I-1
I2
I-2
I1
I-2
I1
I2
I-1
I1
I-1
I1
I-2
I-1
I-1
I0
I-2
I-2
I1
I-1
I-2
I-2
I-2
I1
I-2
I-2
I-2
I-1
I2
I0
I1
I2
I2
I1
I2
I2
I2
I2
I1
I-1
I1
I1
I2
I2
I2
I1
I2
I-1
I2
I1
I2
I2
I-2
I-1
I1
I-2
I1
I-1
I1
I1
I-2
I-1
I0
I-1
I-2
I-1
I0
I-2
I2
I2
I2
I2
I-1
I2
I1
I-2
I2
I2
I2
I1
I1
I2
I-2
I0
I2
I2
I0
I-1
I1
I-2
I-1
I-1
I1
I-1
I-1
I-1
I-1
I-2
I-1
I2
I2
I2
I-2
I-2
I-1
I-2
I1
I1
I1
I2
I-2
I-2
I1
I-1
I1
I1
I1
I2
I-2
I-1
I1
I-1
I1
I0
I1
I1
I-1
I0
I-2
I-1
I-2
I-1
I-1
I-1
I2
I-1
I-2
I2
I-2
I2
I2
I1
I2
I2
I2
I2
I2
I2
I2
I2
I0
I1
I1
I-2
I0
I2
I1
I0
I1
I1
I0
I1
I0
I-2
I-1
I1
I0
I-2
I-2
I-1
I-1
I-1
I1
I-1
I-2
I-2
I-2
I-1
I0
I-1
I1
I-2
I-2
I-1
I-2
I-1
I1
I-1
I0
I-2
I-2
I-2
I-1
I1
I-2
I0
I1
I-2
I-2
I-2
I1
I-2
I-2
I-1
I-2
I-2
I-2
I-1
I-1
I-2
I-2
I1
I-1
I-1
I1
I0
I-2
I-1
I-1
I1
I-1
I2
I1
I1
I0
I0
I1
I2
I1
I0
I1
I-2
I-2
I-2
I2
I2
I2
I2
I1
I1
I1
I1
I2
I2
I2
I-1
I2
I1
I1
I2
I1
I2
I2
I-2
I-1
I-2
I1
I1
I2
I2
I2
I1
I0
I2
I2
I-1
I2
I2
I1
I0
I1
I2
I0
I-1
I1
I-1
I-2
I-1
I-1
I-1
I-2
I-2
I0
I-1
I-2
I1
I-1
I-2
I-2
I0
I-1
I-1
I1
I-2
I1
I2
I-1
I1
I1
I2
I2
I-1
I-1
I-1
I-1
I-1
I2
I2
I-1
I-1
I2
I1
I2
I2
I2
I2
I-2
I-1
I-2
I-2
I0
I-2
I0
I1
I-1
I-2
I-2
I0
I-2
I0
I0
I-1
I1
I0
I1
I2
I-1
I2
I2
I-2
I1
I2
I2
I1
I1
I2
I-1
I1
I2
I2
I2
I-1
I2
I-1
I0
I0
I0
I-1
I-2
I-2
I-2
I-1
I1
I2
I2
I2
I-2
I-2
I-2
I-2
I1
I1
I1
I2
I-2
I-2
I1
I-1
I2
I1
I1
I2
I-2
I0
I0
I-2
I0
I-1
I0
I1
I-1
I0
I-2
I0
I-1
I0
I1
I1
I1
I-2
I-2
I1
I-2
I1
I2
I0
I2
I1
I1
I2
I1
I2
I2
I2
I-1
I0
I2
I-1
I1
I2
I1
I1
I0
I2
I-1
I1
I1
I-2
I-1
I1
I-2
I-2
I-2
I-1
I-1
I-1
I1
I-2
I-2
I-2
I-2
I-1
I1
I-1
I1
I-2
I-2
I1
I-2
I0
I0
I-1
I1
I-2
I0
I-1
I-1
I-1
I-1
I-1
I1
I-1
I-1
I-2
I-1
I-2
I-2
I-1
I-2
I-2
I-2
I-2
I0
I-2
I-2
I2
I-2
I-2
I-1
I-1
I-2
I-1
I-1
I2
I-1
I1
I1
I1
I-1
I-1
I1
I2
I2
I2
I2
I-1
I2
I2
I2
I1
I2
I2
I2
I2
I-2
I2
I-1
I0
I1
I-2
I-1
I1
I1
I2
I1
I-2
I2
I2
I2
I2
I1
I2
I1
I-1
I-1
I1
I1
I-1
I-2
I-1
I0
I-1
I-2
I0
tp6
sS'c192754e92314e27.jpg'
p7
(I-1
I1
I0
I1
I1
I2
I1
I1
I-1
I-2
I-1
I-1
I-1
I2
I-1
I1
I1
I2
I1
I1
I2
I2
I1
I-1
I-1
I2
I1
I-1
I1
I1
I1
I0
I-2
I-1
I-2
I-1
I-2
I-2
I2
I1
I0
I-1
I-2
I-1
I-2
I-1
I0
I-1
I1
I1
I1
I-2
I1
I2
I-1
I1
I-1
I-1
I-1
I0
I2
I2
I1
I-1
I-2
I1
I1
I2
I2
I1
I-2
I-2
I-2
I-1
I-2
I2
I1
I0
I-1
I-1
I-1
I2
I-1
I2
I2
I-1
I1
I0
I1
I1
I-2
I2
I-1
I-1
I2
I2
I-1
I2
I-1
I2
I2
I-1
I2
I0
I1
I2
I0
I2
I2
I2
I-1
I2
I1
I-1
I0
I-2
I2
I-2
I0
I2
I-2
I-2
I-2
I-2
I0
I-2
I1
I-1
I-2
I-2
I-2
I0
I-1
I0
I-1
I-1
I-2
I-1
I-2
I1
I-1
I1
I1
I1
I0
I-2
I-2
I1
I-2
I1
I1
I-1
I1
I1
I-2
I2
I0
I2
I2
I2
I1
I-2
I-2
I0
I-2
I2
I2
I-2
I1
I0
I2
I2
I0
I1
I2
I2
I2
I2
I-2
I0
I2
I-2
I2
I-1
I-1
I-2
I-2
I-1
I0
I-2
I-1
I-2
I-2
I-2
I1
I1
I-1
I1
I-1
I-2
I-2
I-2
I1
I-1
I-1
I1
I0
I-2
I-2
I-2
I-1
I-1
I-2
I0
I-2
I-2
I-2
I-2
I1
I-2
I-2
I2
I1
I-1
I-2
I-1
I-2
I-2
I-2
I-1
I-2
I-2
I-1
I-2
I2
I0
I2
I2
I-1
I-2
I1
I0
I0
I0
I-2
I1
I2
I0
I-1
I0
I0
I2
I2
I2
I2
I1
I1
I1
I2
I2
I2
I2
I2
I-1
I-1
I2
I2
I2
I2
I2
I2
I1
I1
I2
I2
I2
I2
I2
I1
I-1
I-2
I2
I1
I1
I2
I2
I2
I2
I2
I2
I2
I-1
I1
I1
I-2
I-2
I-2
I1
I-2
I-2
I2
I1
I2
I1
I1
I0
I0
I0
I-1
I1
I0
I0
I-1
I0
I2
I-1
I1
I2
I-2
I-2
I-2
I-2
I0
I-1
I1
I-1
I-2
I-2
I-2
I0
I-1
I1
I-1
I-1
I-2
I-2
I-2
I1
I-1
I-1
I-1
I0
I-2
I-1
I-2
I1
I0
I1
I1
I-2
I-1
I-2
I-1
I0
I-2
I1
I-2
I-2
I1
I2
I-1
I2
I-1
I1
I1
I-1
I2
I-1
I1
I2
I0
I1
I1
I1
I0
I1
I-1
I-1
I1
I-1
I2
I-1
I0
I2
I-2
I-1
I-1
I-2
I-2
I-2
I1
I-1
I1
I1
I1
I2
I1
I2
I1
I-1
I1
I1
I-1
I-1
I1
I1
I-1
I0
I0
I-1
I-1
I-1
I-2
I-1
I-1
I-2
I2
I2
I-1
I2
I0
I2
I2
I2
I2
I-1
I-2
I0
I-2
I2
I2
I-2
I1
I0
I2
I2
I0
I0
I1
I1
I2
I1
I-1
I0
I2
I-1
I2
I1
I-1
I-1
I-2
I-1
I-2
I-2
I-2
I-2
I-2
I-2
I1
I-1
I-1
I2
I-1
I-2
I-2
I-2
I1
I1
I1
I1
I1
I-1
I-1
I-1
I0
I1
I-2
I-1
I-1
I-1
I-1
I-2
I2
I-2
I-2
I1
I1
I-1
I-2
I-1
I-2
I-2
I-2
I-1
I-2
I-2
I-2
I-2
I2
I0
I2
I2
I0
I-2
I-1
I-1
I-1
I1
I2
I1
I0
I1
I2
I2
I0
I0
I2
I2
I1
I0
I1
I1
I1
I1
I-1
I-1
I1
I1
I1
I1
I-2
I2
I2
I2
I2
I1
I1
I2
I-2
I-1
I-2
I2
I0
I2
tp8
sS'8cab6c33714517f2.jpg'
p9
(I-2
I-2
I-2
I2
I-2
I1
I-1
I-1
I2
I-1
I1
I1
I1
I1
I-2
I2
I2
I2
I2
I2
I2
I2
I2
I-2
I2
I-1
I-2
I1
I-2
I-2
I-2
I-2
I-2
I2
I-2
I-2
I-2
I-1
I2
I-2
I1
I2
I-1
I-1
I-1
I-1
I2
I1
I-1
I1
I-1
I0
I0
I-2
I1
I-1
I-2
I1
I1
I1
I-1
I2
I-1
I-2
I-2
I-1
I1
I-2
I2
I0
I-2
I-2
I1
I-1
I-1
I1
I0
I2
I-2
I2
I2
I1
I2
I1
I2
I2
I-1
I2
I2
I-2
I-2
I2
I1
I-1
I2
I2
I2
I2
I2
I2
I2
I-1
I1
I-1
I-2
I-1
I-2
I1
I0
I0
I2
I1
I1
I0
I-1
I0
I-2
I2
I1
I-1
I2
I1
I2
I2
I2
I2
I1
I2
I-2
I-2
I-1
I-2
I-1
I-2
I-1
I-1
I0
I0
I-1
I1
I2
I0
I1
I1
I-2
I-2
I-2
I-2
I-1
I-2
I-2
I-1
I-2
I-1
I-2
I1
I-1
I-1
I1
I-1
I1
I-2
I1
I1
I-2
I1
I1
I0
I1
I2
I2
I2
I2
I-2
I-2
I-2
I1
I-2
I-1
I-1
I-2
I2
I-2
I2
I-2
I-2
I1
I-1
I2
I2
I1
I-1
I-1
I1
I-2
I1
I0
I-1
I1
I-2
I0
I-1
I1
I-1
I2
I-1
I1
I-1
I-1
I-1
I-1
I2
I1
I-1
I1
I-2
I-2
I1
I1
I-1
I-1
I-1
I-1
I-2
I-1
I2
I1
I-1
I-2
I1
I-1
I0
I2
I0
I0
I-2
I1
I2
I1
I-1
I-2
I-2
I-2
I-2
I2
I2
I1
I2
I-1
I1
I1
I2
I2
I1
I2
I1
I2
I2
I2
I1
I-1
I0
I1
I-2
I-1
I1
I-1
I-1
I1
I1
I2
I1
I0
I1
I1
I1
I1
I2
I2
I0
I2
I1
I1
I2
I-1
I1
I0
I-2
I2
I-1
I1
I1
I-2
I-2
I-2
I-2
I-2
I-2
I-2
I-2
I0
I-1
I2
I0
I-1
I2
I-1
I1
I1
I0
I2
I-2
I-2
I-1
I1
I1
I-1
I1
I-2
I-2
I-1
I-1
I-1
I-2
I-1
I1
I-1
I1
I-1
I1
I0
I1
I2
I1
I1
I-1
I-1
I0
I1
I2
I1
I2
I-1
I-1
I1
I-1
I1
I1
I2
I2
I-2
I-1
I2
I-1
I-1
I1
I1
I-2
I-1
I2
I0
I1
I-1
I1
I-2
I-2
I2
I1
I1
I-1
I-2
I-1
I-1
I-1
I2
I2
I0
I1
I1
I1
I1
I2
I2
I-1
I-1
I1
I-1
I-1
I2
I2
I-1
I-2
I-1
I-2
I-2
I-2
I-1
I-2
I-2
I-2
I-1
I-1
I-1
I1
I2
I-2
I-2
I1
I-2
I-2
I-1
I-2
I-1
I-2
I-1
I1
I-2
I-1
I-1
I1
I-2
I-1
I2
I-1
I2
I2
I1
I2
I-1
I2
I1
I2
I2
I2
I1
I2
I2
I-2
I-2
I1
I-2
I-2
I-2
I-2
I-2
I-1
I-2
I-2
I-2
I-2
I1
I1
I2
I2
I-1
I1
I0
I2
I2
I2
I2
I1
I1
I1
I2
I2
I2
I2
I2
I-1
I2
I2
I2
I2
I-1
I1
I1
I-2
I2
I-1
I-2
I-2
I-1
I-2
I-2
I-2
I-2
I-2
I-2
I-1
I1
I-1
I-2
I2
I1
I-1
I1
I0
I-2
I-2
I-1
I1
I-1
I2
I2
I-2
I2
I2
I-1
I2
I-1
I2
I0
I-1
I1
I2
I-2
I-2
I-2
I-2
I-1
I-2
I-2
I1
I1
I-1
I-2
I2
I2
I1
I1
I2
I2
I1
I-1
I2
I1
I-1
I-1
I-2
I-1
I0
I1
I1
tp10
sS'e1407b718b017f02.jpg'
p11
(I-1
I0
I1
I1
I-2
I0
I1
I-1
I2
I1
I2
I2
I1
I-1
I-1
I1
I1
I1
I1
I0
I2
I2
I2
I0
I1
I2
I2
I2
I-1
I-1
I2
I2
I1
I1
I2
I2
I2
I1
I-2
I-1
I-1
I0
I0
I1
I-2
I-2
I-1
I-1
I-2
I-1
I-2
I-2
I-2
I-1
I1
I-2
I-1
I2
I-1
I-1
I1
I2
I-1
I-1
I-2
I1
I1
I2
I2
I2
I-1
I-2
I-2
I-1
I1
I2
I2
I-1
I-2
I-2
I-2
I-1
I0
I1
I-2
I-2
I-2
I-2
I-2
I0
I-2
I-2
I-2
I-2
I-1
I-2
I1
I2
I-1
I-2
I-2
I-1
I-1
I1
I1
I-1
I1
I2
I2
I-1
I2
I1
I2
I2
I1
I1
I2
I2
I2
I-1
I1
I-1
I-2
I-2
I1
I0
I-2
I-2
I-2
I-2
I-2
I-1
I1
I-2
I-2
I-2
I-2
I-2
I-1
I-1
I-2
I-2
I-2
I-2
I1
I2
I2
I2
I-2
I-2
I-2
I-2
I2
I2
I2
I1
I0
I-1
I0
I-1
I2
I2
I1
I0
I1
I0
I-1
I2
I1
I-1
I-1
I-2
I2
I-2
I-2
I-1
I-1
I-1
I-1
I-2
I0
I1
I-2
I1
I1
I-2
I1
I2
I2
I2
I1
I2
I1
I0
I2
I2
I2
I-1
I-2
I-1
I-1
I-2
I2
I2
I2
I2
I-1
I1
I1
I1
I2
I2
I1
I1
I1
I1
I1
I2
I2
I0
I0
I-1
I-1
I0
I2
I1
I1
I1
I2
I1
I2
I2
I2
I2
I-2
I-2
I-2
I-2
I-2
I1
I-1
I0
I0
I1
I1
I-1
I-2
I0
I-2
I1
I1
I-1
I2
I-1
I1
I2
I-1
I2
I2
I1
I0
I1
I-1
I1
I-1
I2
I2
I1
I2
I-1
I-1
I1
I-1
I2
I2
I2
I-1
I-1
I0
I1
I2
I2
I2
I2
I-2
I-2
I-2
I-2
I-1
I1
I1
I-1
I-1
I-2
I2
I1
I0
I2
I1
I-1
I-2
I2
I0
I1
I-1
I0
I-1
I1
I-1
I-2
I-1
I-1
I-2
I-1
I-1
I-2
I-2
I-2
I1
I-2
I-2
I1
I-1
I-1
I-1
I-1
I-1
I-2
I-2
I1
I-1
I1
I0
I1
I-1
I-2
I-2
I1
I1
I1
I1
I-2
I-2
I-2
I-1
I-1
I-1
I-1
I-2
I-2
I-2
I-1
I-2
I1
I-1
I-2
I-2
I-2
I1
I-1
I-1
I1
I-1
I-2
I-1
I-1
I1
I1
I1
I0
I1
I1
I2
I-1
I2
I1
I2
I2
I1
I1
I1
I2
I2
I-2
I2
I1
I-1
I-1
I-1
I1
I-2
I-1
I1
I0
I-1
I1
I1
I-2
I0
I-2
I-1
I-1
I1
I-1
I-2
I-1
I-2
I-2
I2
I2
I2
I2
I-2
I1
I1
I0
I2
I2
I2
I2
I2
I2
I2
I1
I2
I1
I0
I-2
I1
I-1
I-2
I2
I1
I-1
I-1
I-2
I2
I-2
I-2
I-1
I-1
I-1
I-1
I-2
I-1
I1
I-2
I0
I0
I-2
I2
I2
I2
I2
I2
I2
I2
I1
I1
I0
I1
I-2
I-2
I-1
I-1
I-2
I2
I2
I-1
I2
I-1
I1
I-1
I1
I2
I-1
I-2
I1
I-1
I0
I1
I2
I0
I-2
I1
I1
I-1
I2
I2
I1
I-1
I2
I2
I1
I2
I2
I2
I2
I-2
I-2
I-2
I-2
I-2
I1
I0
I-1
I1
I0
I-2
I1
I-2
I2
I-2
I1
I2
I-1
I-1
I1
I-1
I1
I-1
I2
I1
I0
I1
I1
I-1
I-1
I-2
I-2
I1
I-2
I-2
I-2
I-1
I-2
I-1
I-2
I2
I2
I-1
I-2
I2
I1
tp12
sS'82c42b50cd49fe93.jpg'
p13
(I1
I-1
I2
I-1
I0
I-1
I2
I1
I0
I1
I2
I1
I1
I-1
I-1
I0
I-1
I-2
I1
I1
I1
I-1
I-2
I-1
I2
I-2
I-2
I-2
I-2
I-1
I-2
I-2
I-2
I1
I1
I-2
I-2
I0
I-1
I-2
I-1
I1
I1
I2
I0
I-1
I-2
I-2
I-2
I-2
I-1
I-2
I-2
I-2
I-1
I-1
I0
I1
I-1
I-2
I-2
I-2
I-1
I1
I-1
I1
I-2
I-1
I-2
I-2
I2
I1
I2
I2
I-1
I-1
I0
I0
I2
I2
I2
I1
I-1
I1
I1
I1
I2
I2
I2
I1
I2
I1
I2
I-1
I2
I2
I2
I-2
I2
I-1
I-2
I-1
I0
I1
I-2
I-2
I-2
I0
I2
I-1
I-1
I-2
I1
I2
I2
I1
I1
I1
I-1
I0
I2
I2
I1
I-1
I-1
I-2
I-1
I-1
I2
I2
I1
I1
I1
I-1
I0
I1
I2
I0
I-1
I-1
I0
I-1
I0
I2
I0
I-1
I-1
I0
I1
I1
I2
I2
I-1
I-2
I1
I-1
I-2
I2
I2
I2
I1
I2
I2
I2
I2
I2
I2
I2
I1
I2
I-2
I1
I2
I1
I-1
I-2
I1
I1
I2
I1
I2
I2
I1
I2
I2
I2
I0
I1
I1
I-1
I1
I2
I2
I2
I1
I0
I1
I-1
I1
I2
I2
I2
I-1
I0
I-1
I-1
I2
I2
I1
I1
I-2
I-2
I-2
I-2
I1
I-1
I-1
I0
I-2
I-2
I-2
I-1
I0
I-1
I-1
I1
I-2
I-2
I-1
I0
I1
I0
I1
I2
I-2
I-2
I-1
I-1
I1
I-1
I-2
I0
I1
I-1
I-1
I-2
I-2
I0
I2
I1
I-1
I0
I-2
I-2
I-2
I-2
I-1
I-2
I-2
I-2
I-2
I-2
I-2
I1
I-1
I-1
I-1
I-2
I-2
I-1
I1
I1
I0
I-1
I-2
I-2
I-1
I1
I1
I0
I1
I-2
I-2
I-2
I0
I1
I0
I-1
I1
I-2
I-2
I-1
I-1
I-1
I1
I-1
I1
I-2
I-1
I-2
I-2
I-1
I-1
I-2
I-2
I-1
I-1
I-1
I-2
I-2
I1
I1
I2
I1
I1
I-2
I-2
I-1
I0
I2
I1
I-1
I-1
I-2
I-2
I-1
I2
I1
I1
I1
I-2
I-1
I-1
I1
I2
I2
I2
I2
I-1
I1
I2
I2
I2
I2
I2
I1
I1
I2
I2
I2
I2
I2
I2
I-1
I2
I2
I2
I2
I1
I1
I2
I-2
I-1
I-1
I-1
I1
I2
I2
I1
I0
I2
I2
I2
I-1
I2
I0
I2
I2
I2
I1
I1
I2
I1
I1
I1
I2
I1
I-1
I1
I-1
I-1
I1
I1
I1
I-1
I-1
I1
I-1
I-1
I-1
I-1
I-2
I-2
I-1
I1
I-1
I-2
I0
I-2
I-2
I-2
I-1
I-1
I-2
I-1
I2
I-2
I-2
I1
I1
I-1
I0
I2
I2
I-2
I1
I0
I1
I2
I2
I2
I2
I-1
I-2
I-2
I-1
I0
I-2
I-2
I-2
I0
I1
I0
I-1
I1
I1
I0
I2
I2
I2
I-1
I1
I1
I0
I1
I2
I2
I2
I-1
I1
I1
I-1
I-1
I2
I1
I2
I1
I2
I2
I1
I2
I2
I2
I2
I0
I1
I0
I-2
I2
I1
I1
I-2
I-2
I-2
I-2
I-2
I-1
I-1
I-2
I-1
I-2
I-2
I1
I1
I1
I-2
I-1
I1
I-2
I0
I-1
I-1
I1
I0
I-2
I1
I-1
I-2
I-2
I-1
I2
I-2
I-2
I-2
I-2
I-2
I-2
I-1
I-2
I2
I2
I-2
I-2
I-1
I-2
I-1
I-2
I-1
I1
I1
I-2
I2
I2
I2
I2
I2
I1
I1
I1
I-2
I2
I-1
I-1
I-2
tp14
sS'1a47ec8b584fb3c8.jpg'
p15
(I1
I1
I2
I-1
I-1
I-1
I1
I-2
I1
I-1
I1
I-2
I-2
I1
I-2
I-2
I-2
I-2
I2
I2
I-1
I-2
I1
I-2
I0
I-2
I-2
I-1
I0
I-1
I-2
I-1
I1
I1
I-1
I-1
I1
I-1
I1
I2
I0
I-1
I1
I1
I-1
I-1
I-2
I-1
I-1
I-1
I-2
I-1
I-1
I-1
I2
I2
I2
I2
I-1
I2
I2
I1
I2
I2
I1
I1
I-1
I2
I2
I0
I2
I2
I2
I1
I2
I2
I1
I2
I-1
I2
I2
I-2
I1
I-2
I1
I2
I1
I1
I1
I-1
I2
I-1
I2
I0
I-1
I-1
I-2
I-2
I-2
I1
I-2
I-1
I1
I0
I2
I1
I1
I1
I1
I0
I-2
I1
I1
I1
I-2
I0
I-1
I-2
I0
I2
I1
I-2
I-2
I1
I-2
I1
I2
I2
I-1
I-2
I-2
I2
I-2
I2
I2
I2
I0
I-1
I2
I2
I2
I2
I2
I2
I-2
I-1
I1
I-2
I2
I2
I-1
I1
I-2
I-2
I-1
I-2
I-2
I-2
I-1
I-1
I0
I2
I-1
I2
I1
I1
I1
I-2
I1
I-1
I-1
I1
I-2
I1
I2
I2
I1
I2
I-1
I0
I-1
I-2
I2
I-1
I1
I-2
I-2
I-2
I-2
I-2
I-1
I-1
I-2
I-2
I-2
I-2
I-2
I1
I-1
I-2
I-2
I-2
I-2
I-2
I-2
I1
I-2
I-2
I-2
I-1
I-2
I1
I2
I2
I2
I1
I1
I2
I-1
I1
I-1
I-2
I0
I-1
I1
I0
I1
I-1
I-1
I0
I-2
I1
I-1
I-2
I2
I2
I2
I2
I1
I-1
I1
I1
I-1
I1
I-2
I-1
I1
I-1
I-2
I-2
I1
I-2
I2
I2
I2
I2
I1
I2
I-1
I-2
I2
I2
I2
I-1
I0
I-1
I-2
I-2
I2
I2
I-1
I0
I1
I-2
I-2
I-2
I1
I-1
I1
I-1
I1
I-2
I-2
I1
I-2
I-1
I-1
I-1
I-1
I-2
I-1
I1
I0
I1
I-2
I1
I-2
I-1
I1
I-2
I2
I-1
I2
I2
I1
I1
I2
I2
I0
I1
I-1
I-1
I-2
I-2
I-2
I-2
I-2
I-1
I2
I1
I1
I2
I-1
I2
I2
I2
I2
I2
I2
I1
I-1
I2
I2
I2
I2
I2
I2
I1
I1
I2
I2
I2
I2
I2
I2
I-1
I2
I1
I2
I2
I-1
I1
I1
I-2
I2
I-1
I1
I-2
I-1
I-1
I-2
I-2
I-2
I-1
I-2
I-2
I1
I-1
I2
I-1
I-2
I0
I2
I1
I1
I1
I-1
I2
I-2
I-1
I1
I-1
I-1
I2
I1
I-2
I-2
I-1
I-1
I-2
I1
I0
I-2
I-2
I-2
I1
I-2
I1
I1
I-2
I-2
I-2
I-1
I2
I1
I2
I1
I1
I-2
I-2
I1
I-1
I1
I0
I0
I1
I-2
I-1
I1
I-1
I-2
I-1
I1
I-1
I2
I2
I1
I2
I-2
I2
I2
I1
I2
I2
I2
I2
I2
I-1
I1
I0
I2
I1
I-1
I1
I2
I0
I2
I2
I1
I-2
I-2
I-1
I-1
I-2
I-1
I-1
I-2
I-2
I0
I-1
I-2
I1
I-2
I-2
I-2
I-2
I2
I-1
I0
I2
I0
I-2
I-1
I0
I-1
I0
I1
I0
I1
I-1
I0
I1
I-1
I-1
I-2
I-1
I-1
I-1
I1
I-1
I1
I-2
I-2
I1
I-1
I1
I0
I-1
I-1
I-2
I1
I1
I0
I-2
I-2
I-1
I-1
I-1
I1
I1
I-2
I2
I2
I2
I2
I0
I2
I2
I2
I0
I1
I2
I1
I1
I-1
I1
I0
I0
I1
I-1
I2
I-1
I-1
I-1
I-2
I-1
I1
I0
I-1
I1
I-1
I1
I0
I1
tp16
sS'338650342b5fd9df.jpg'
p17
(I-1
I-2
I-1
I1
I1
I-2
I-1
I-2
I-1
I-2
I-1
I-2
I-1
I2
I0
I-1
I1
I2
I0
I2
I1
I2
I2
I-2
I1
I1
I2
I1
I-1
I2
I1
I0
I-1
I-2
I-2
I-2
I-2
I-2
I2
I-1
I-2
I2
I2
I2
I2
I1
I1
I1
I1
I-2
I-2
I1
I-1
I-1
I2
I2
I1
I2
I2
I1
I1
I2
I1
I-1
I-1
I-2
I1
I-1
I1
I1
I-2
I-2
I-1
I-1
I2
I0
I-1
I0
I-2
I-2
I-1
I-2
I-1
I-2
I-2
I2
I-1
I0
I2
I1
I-1
I-1
I2
I-1
I1
I2
I1
I1
I-1
I2
I1
I-1
I2
I2
I1
I2
I0
I-2
I-1
I-2
I-1
I-1
I-1
I1
I-1
I2
I-1
I1
I1
I2
I1
I-1
I1
I1
I2
I1
I2
I2
I-2
I-1
I0
I-2
I-1
I1
I1
I2
I-1
I1
I2
I1
I1
I1
I2
I2
I0
I2
I1
I-1
I2
I2
I2
I1
I-2
I-2
I-2
I-2
I-2
I-1
I-2
I-2
I1
I-1
I-2
I2
I-2
I1
I1
I1
I1
I0
I2
I2
I2
I1
I-1
I-1
I-1
I-1
I1
I-1
I-1
I1
I2
I0
I-1
I-1
I-2
I-2
I-1
I-2
I0
I-2
I-2
I-2
I-2
I-1
I-1
I0
I1
I-2
I-2
I-2
I-2
I-2
I-2
I-1
I0
I-2
I-2
I-2
I-2
I-2
I1
I0
I-2
I-2
I-2
I-2
I-1
I2
I-1
I2
I1
I-2
I-1
I0
I2
I-1
I-2
I-1
I1
I-2
I-1
I1
I-1
I-2
I-1
I-1
I1
I1
I0
I-1
I-2
I-1
I1
I1
I2
I1
I0
I-2
I-1
I-2
I1
I2
I2
I0
I-1
I-1
I-2
I0
I2
I2
I2
I1
I0
I-2
I1
I2
I2
I2
I2
I0
I1
I1
I2
I2
I2
I2
I2
I-1
I1
I1
I1
I2
I2
I1
I2
I-1
I1
I1
I2
I0
I0
I1
I1
I-1
I1
I1
I-1
I-1
I-1
I-1
I-1
I-2
I-2
I2
I2
I2
I2
I2
I1
I1
I1
I-2
I-2
I1
I1
I1
I2
I2
I2
I2
I2
I2
I2
I2
I0
I-1
I-1
I-2
I1
I1
I-1
I-1
I-2
I-2
I-1
I-1
I1
I-2
I-2
I1
I-2
I-1
I-1
I-1
I1
I-2
I0
I1
I-2
I-2
I-1
I-1
I-2
I-1
I1
I1
I0
I1
I2
I2
I0
I2
I2
I0
I1
I2
I0
I2
I0
I-2
I-1
I0
I0
I-1
I-2
I-1
I-2
I0
I0
I0
I-1
I2
I-1
I-2
I-1
I0
I-1
I-1
I2
I2
I-2
I1
I2
I1
I-1
I2
I2
I1
I1
I2
I2
I1
I2
I2
I1
I2
I-1
I0
I1
I-2
I1
I-1
I2
I2
I-1
I-1
I-2
I-1
I1
I1
I1
I1
I-1
I-2
I-2
I-1
I-2
I0
I0
I-1
I0
I0
I2
I2
I2
I0
I0
I-1
I-1
I-2
I1
I1
I1
I1
I2
I0
I-1
I-1
I-2
I-2
I-2
I-2
I-1
I-2
I-2
I-2
I-2
I-2
I-2
I1
I-2
I-2
I-2
I-2
I-1
I-2
I1
I2
I2
I-1
I-1
I1
I-2
I-2
I-1
I-2
I-1
I-2
I-2
I-2
I-2
I-1
I0
I1
I0
I-2
I-2
I-2
I-1
I0
I-2
I0
I-1
I-2
I-2
I1
I1
I-2
I1
I-2
I2
I1
I0
I-1
I2
I1
I2
I1
I0
I1
I2
I2
I0
I1
I2
I2
I1
I-1
I1
I2
I1
I2
I-1
I1
I-1
I2
I2
I-1
I1
I2
I2
I2
I-1
I-2
I2
I2
I2
I1
I2
I-1
I-2
I-2
tp18
sS'8a6f1ceca7abb09f.jpg'
p19
(I0
I2
I2
I0
I-1
I1
I2
I1
I1
I2
I2
I2
I1
I-2
I-2
I-1
I-2
I-2
I2
I1
I0
I-1
I0
I-1
I-2
I-2
I-1
I-2
I2
I-1
I1
I0
I-1
I1
I2
I1
I1
I2
I-2
I-2
I1
I-2
I-1
I2
I-2
I1
I-2
I-2
I-2
I-2
I-2
I-2
I-2
I-2
I-1
I-2
I1
I2
I-1
I1
I-1
I1
I-1
I2
I0
I1
I-1
I1
I2
I1
I2
I1
I2
I1
I1
I2
I2
I2
I0
I1
I-1
I-1
I-1
I1
I2
I2
I2
I0
I-1
I1
I-1
I2
I2
I2
I1
I-1
I2
I1
I2
I2
I2
I2
I-2
I-1
I-2
I1
I1
I2
I2
I2
I0
I2
I-1
I2
I-1
I-2
I-1
I-2
I-1
I-2
I2
I1
I-1
I1
I2
I-1
I-2
I-2
I-1
I-2
I-2
I-2
I-1
I-2
I-2
I-2
I-2
I-2
I-1
I1
I1
I-2
I-2
I-1
I-2
I-2
I-2
I-1
I1
I-2
I-2
I-1
I-2
I-2
I-2
I-1
I2
I-2
I-1
I0
I-2
I-2
I-1
I-2
I0
I-2
I-2
I-2
I-2
I-1
I0
I-2
I-2
I0
I2
I2
I1
I1
I-2
I1
I1
I-2
I-1
I-1
I-1
I-1
I2
I2
I2
I1
I-1
I1
I1
I2
I2
I2
I2
I1
I0
I1
I2
I1
I2
I2
I2
I0
I2
I2
I1
I2
I1
I2
I2
I-2
I1
I-1
I1
I-1
I1
I1
I2
I-1
I1
I1
I-1
I-2
I0
I2
I2
I-1
I0
I-2
I-2
I1
I2
I2
I0
I-2
I0
I-1
I1
I-1
I-1
I2
I-1
I1
I-1
I1
I0
I0
I2
I1
I1
I-1
I-1
I0
I2
I2
I1
I1
I-2
I-2
I-2
I-2
I-2
I-1
I-2
I-2
I-1
I-1
I1
I2
I1
I0
I-1
I0
I-2
I-1
I-1
I-1
I-2
I-2
I-1
I-2
I1
I1
I2
I2
I-1
I1
I-1
I-1
I2
I2
I2
I1
I2
I1
I1
I2
I-1
I0
I-2
I-2
I0
I1
I0
I2
I-1
I2
I-2
I-2
I-2
I-2
I-2
I-2
I-1
I-2
I-1
I-1
I1
I2
I-1
I1
I0
I2
I-1
I2
I0
I1
I-1
I1
I2
I2
I2
I1
I2
I1
I1
I2
I2
I1
I0
I1
I-1
I-1
I-1
I2
I1
I2
I2
I1
I-1
I1
I-1
I1
I2
I2
I1
I-1
I2
I1
I2
I2
I2
I2
I-2
I0
I-2
I1
I1
I1
I2
I2
I1
I1
I-2
I1
I-1
I-2
I-1
I-2
I-2
I-2
I2
I0
I-1
I1
I2
I-1
I-2
I-1
I-2
I-2
I-2
I-2
I-1
I-2
I-2
I-2
I-2
I-2
I-2
I1
I-1
I-2
I-1
I-2
I-1
I-1
I-1
I1
I1
I1
I0
I-1
I-2
I-2
I-2
I-1
I1
I-2
I-2
I-1
I-2
I-2
I-1
I-1
I1
I-2
I-2
I0
I-2
I-1
I-1
I-2
I-1
I-1
I2
I1
I2
I2
I-1
I2
I1
I-1
I-1
I2
I1
I1
I2
I2
I2
I1
I1
I2
I2
I2
I1
I2
I2
I-1
I1
I1
I1
I0
I2
I1
I-1
I-1
I-1
I-1
I-1
I-1
I2
I0
I2
I1
I0
I-1
I-1
I-1
I1
I2
I2
I0
I1
I0
I-1
I-1
I1
I2
I2
I-1
I2
I-1
I-1
I2
I0
I1
I-2
I-2
I1
I-2
I-2
I-2
I-2
I-1
I-2
I2
I0
I-1
I-2
I-1
I0
I0
I-2
I-1
I1
I0
I-1
I0
I1
I1
I1
I0
I1
I1
I0
I0
I-1
I1
I1
I1
I1
I0
I1
I1
I2
I0
I2
I-2
I-1
I-2
tp20
sS'd26c13ccfb93f194.jpg'
p21
(I-2
I-2
I0
I2
I2
I-1
I2
I2
I-2
I1
I1
I1
I-2
I-1
I-1
I0
I-2
I0
I1
I-1
I-2
I1
I0
I1
I-2
I2
I1
I2
I1
I2
I2
I2
I2
I-2
I-2
I2
I0
I0
I2
I2
I2
I2
I1
I2
I1
I2
I0
I-2
I-1
I-2
I-1
I-2
I0
I0
I-2
I-1
I0
I1
I-2
I1
I1
I-1
I2
I2
I2
I2
I2
I2
I2
I2
I0
I-1
I-2
I-2
I-1
I-1
I-1
I-1
I0
I-1
I-2
I1
I2
I0
I0
I2
I-2
I-2
I-2
I-2
I-2
I-2
I1
I0
I-2
I0
I-2
I2
I-1
I2
I2
I0
I0
I-2
I1
I2
I0
I-1
I2
I2
I2
I2
I-2
I0
I-1
I-2
I1
I-2
I-2
I1
I0
I-1
I-2
I-1
I-2
I-2
I1
I-2
I1
I-2
I1
I2
I0
I2
I0
I-1
I-2
I1
I0
I0
I0
I0
I-1
I1
I1
I0
I2
I0
I2
I-1
I0
I1
I-2
I-1
I-2
I-2
I-1
I-2
I-2
I-2
I0
I-2
I-2
I1
I-2
I-1
I-2
I-2
I0
I0
I2
I-1
I-1
I-2
I2
I0
I2
I-2
I-2
I2
I2
I0
I2
I2
I-2
I2
I-1
I-1
I-2
I-2
I-2
I-2
I-2
I-1
I2
I0
I0
I2
I-1
I1
I1
I1
I1
I1
I1
I1
I1
I1
I1
I1
I-1
I0
I2
I-1
I1
I0
I-1
I-2
I-1
I2
I1
I-1
I-2
I-1
I-2
I-2
I2
I2
I1
I2
I-1
I-1
I-1
I-1
I2
I1
I1
I1
I-1
I-2
I-2
I-2
I-2
I1
I2
I2
I2
I2
I2
I-1
I2
I2
I-2
I2
I-1
I-2
I1
I1
I2
I-1
I1
I-1
I-1
I-1
I-1
I1
I-2
I-1
I-1
I-1
I0
I1
I-1
I-1
I-1
I-1
I-1
I1
I1
I1
I-2
I1
I-1
I2
I2
I2
I1
I2
I1
I1
I2
I2
I2
I1
I-1
I-1
I-1
I2
I2
I0
I1
I1
I1
I2
I1
I2
I1
I2
I2
I2
I-1
I-2
I-1
I-2
I1
I-2
I-1
I-1
I-2
I-2
I-1
I-1
I-2
I-1
I-1
I-1
I1
I2
I1
I2
I1
I2
I2
I2
I1
I1
I-1
I-1
I-1
I1
I1
I1
I1
I1
I-1
I1
I2
I1
I2
I2
I-2
I-2
I-2
I-2
I-1
I-1
I-1
I-1
I-2
I-2
I-2
I1
I-2
I-1
I-1
I-2
I0
I-1
I2
I2
I-1
I-2
I2
I2
I2
I1
I-2
I1
I1
I-2
I1
I-1
I-2
I-1
I1
I1
I-2
I-1
I-1
I-2
I-1
I-2
I1
I-2
I-1
I1
I0
I-1
I-2
I-2
I-2
I-1
I-1
I0
I1
I-2
I-2
I-2
I-1
I-2
I1
I-1
I0
I-2
I-2
I-1
I-2
I1
I1
I0
I0
I-2
I-1
I-2
I1
I1
I-2
I0
I-2
I-1
I-2
I-2
I2
I1
I2
I2
I1
I-2
I1
I-2
I-1
I-1
I-1
I2
I2
I2
I2
I1
I1
I1
I1
I1
I1
I-2
I-1
I-1
I-1
I1
I2
I2
I2
I1
I-1
I1
I2
I2
I2
I2
I2
I1
I-1
I2
I2
I2
I2
I2
I2
I1
I2
I2
I2
I2
I1
I1
I1
I-2
I0
I0
I1
I-2
I2
I1
I-2
I0
I-1
I1
I-2
I-2
I2
I-1
I1
I-1
I-1
I1
I-1
I-1
I1
I-1
I1
I1
I1
I-1
I1
I-1
I-1
I1
I-1
I-2
I-2
I-1
I1
I-2
I-2
I-2
I-1
I-1
I-2
I-2
I0
I1
I1
I-2
I-1
I-1
I-1
I-2
I2
I2
I1
I2
I1
I2
I1
I-1
tp22
sS'b311af73da891f3e.jpg'
p23
(I-1
I1
I-2
I1
I-1
I1
I-1
I1
I1
I2
I-1
I1
I1
I-2
I-1
I-1
I-2
I2
I1
I2
I-1
I2
I2
I-2
I-2
I0
I2
I-2
I2
I-1
I2
I-1
I2
I1
I1
I1
I2
I2
I-1
I2
I2
I-1
I-1
I-2
I2
I0
I2
I1
I1
I2
I2
I2
I2
I2
I-1
I-1
I1
I-2
I-1
I-1
I1
I1
I-1
I2
I1
I1
I2
I2
I2
I-1
I-2
I-2
I0
I-2
I2
I-1
I-2
I-2
I-2
I-2
I-2
I-2
I-2
I-2
I-2
I-2
I2
I1
I-1
I2
I2
I-1
I2
I2
I-2
I-2
I-2
I-2
I-2
I-2
I1
I-2
I-2
I-2
I2
I2
I-1
I-2
I-2
I-2
I-2
I-1
I0
I-2
I1
I2
I1
I1
I2
I1
I-2
I-1
I-2
I-1
I1
I1
I0
I1
I-1
I-2
I1
I-1
I-2
I-1
I-1
I-1
I1
I2
I2
I2
I2
I2
I2
I2
I2
I2
I1
I-2
I2
I1
I2
I1
I2
I-2
I2
I-2
I2
I-1
I-1
I-2
I-2
I-1
I-2
I-2
I-2
I-2
I-2
I-2
I2
I1
I2
I-2
I-1
I2
I-1
I2
I-2
I-2
I1
I-2
I-1
I-2
I-1
I-2
I-2
I-2
I-1
I0
I1
I1
I1
I-2
I-2
I1
I-1
I1
I-2
I-1
I-1
I-2
I1
I-1
I1
I-2
I-1
I1
I1
I1
I-1
I1
I-2
I-2
I1
I-1
I-1
I-2
I-1
I-1
I-1
I1
I2
I1
I-1
I1
I-1
I-1
I2
I2
I2
I1
I1
I1
I-1
I1
I2
I1
I-1
I-1
I-1
I2
I2
I0
I2
I1
I2
I2
I2
I0
I1
I2
I1
I2
I2
I1
I2
I-1
I2
I-1
I2
I0
I-1
I-1
I-1
I-2
I-1
I1
I-2
I1
I1
I1
I2
I1
I2
I-1
I2
I2
I-1
I1
I-1
I-2
I-1
I0
I2
I-1
I1
I1
I-1
I1
I-1
I2
I1
I2
I1
I1
I1
I1
I1
I2
I2
I2
I-1
I1
I-1
I2
I2
I-2
I-2
I-1
I-1
I-2
I-1
I-1
I1
I1
I2
I1
I-1
I1
I-2
I-2
I-1
I-2
I-2
I-2
I-1
I0
I0
I2
I1
I2
I2
I1
I2
I-2
I-1
I-2
I0
I-2
I2
I0
I-2
I-2
I-2
I-2
I-2
I-2
I-2
I-2
I-2
I-1
I1
I-1
I-2
I2
I2
I-1
I1
I1
I-2
I-2
I-2
I-2
I1
I-1
I-1
I-2
I-2
I-2
I-1
I-1
I-2
I1
I-1
I-2
I0
I1
I2
I1
I2
I1
I1
I2
I2
I0
I-1
I1
I-1
I-1
I1
I1
I-1
I1
I0
I-2
I0
I-1
I-2
I-2
I-1
I-1
I2
I2
I2
I2
I2
I2
I2
I2
I2
I2
I1
I-2
I2
I1
I2
I-1
I1
I-1
I1
I-2
I1
I-1
I-2
I-2
I-1
I1
I1
I-1
I-2
I-2
I-2
I-2
I2
I2
I2
I-1
I1
I0
I-2
I0
I-2
I-2
I-1
I-2
I-1
I0
I-2
I-2
I-2
I-1
I0
I1
I2
I2
I2
I-1
I1
I1
I-1
I1
I-2
I-2
I1
I-2
I-1
I-1
I1
I-2
I-1
I-1
I1
I-2
I-1
I0
I-2
I-2
I1
I-1
I-2
I-1
I-1
I-1
I1
I2
I2
I2
I-1
I2
I1
I2
I2
I2
I1
I1
I1
I1
I2
I1
I2
I-1
I-1
I2
I1
I2
I2
I-1
I2
I2
I1
I1
I1
I1
I-1
I2
I-1
I1
I-1
I1
I2
I-1
I1
I1
I1
I1
I-1
I1
I0
I1
I-2
I-1
I-1
I1
I-1
I-1
I1
I2
I-2
I-2
I-2
I-2
I-2
I-1
I-1
I2
tp24
s.