(dp0
S'cbf430b0c106c8f4.jpg'
p1
(I1
I-2
I-2
I-1
I0
I-2
I-2
I1
I0
I-2
I-2
I1
I-2
I2
I1
I2
I2
I2
I-1
I1
I2
I2
I-2
I-1
I-2
I2
I-2
I-2
I2
I-1
I-1
I-1
I1
I1
I1
I0
I1
I2
I-1
I-1
I0
I2
I2
I0
I-2
I1
I2
I2
I2
I0
I2
I-2
I1
I2
I-1
I-1
I-2
I-2
I-2
I-2
I-1
I-2
I2
I-2
I-2
I2
I1
I2
I-1
I0
I-2
I-2
I-2
I-1
I-2
I-2
I-2
I-2
I2
I2
I1
I2
I0
I2
I2
I2
I2
I1
I0
I0
I1
I2
I2
I2
I-1
I-1
I1
I-1
I1
I1
I1
I2
I-2
I0
I-1
I1
I1
I1
I1
I2
I1
I2
I-1
I-1
I2
I-2
I1
I-1
I1
I-1
I-2
I1
I-2
I-1
I-2
I-1
I-2
I-2
I2
I1
I2
I2
I1
I-1
I-2
I-1
I0
I2
I-2
I-1
I-2
I-2
I-1
I-2
I2
I-2
I-2
I2
I0
I2
I1
I1
I-2
I-2
I-1
I0
I1
I1
I1
I1
I-2
I-1
I-1
I-1
I1
I0
I1
I-1
I-2
I-1
I-1
I-1
I-2
I-1
I1
I2
I2
I2
I-2
I-1
I1
I-2
I-1
I0
I1
I1
I1
I2
I1
I1
I-2
I2
I2
I-2
I2
I2
I2
I2
I2
I2
I2
I2
I1
I1
I-2
I-2
I-1
I-2
I-2
I-2
I2
I-1
I-1
I1
I0
I-1
I-1
I-1
I-1
I-1
I0
I0
I1
I-1
I-1
I-1
I-1
I-1
I1
I-1
I-1
I-2
I-1
I-1
I1
I2
I1
I0
I1
I-2
I0
I1
I-2
I-2
I-2
I-1
I-2
I-1
I0
I-2
I-2
I0
I-1
I-2
I-2
I0
I-2
I-2
I0
I-1
I2
I-2
I2
I2
I1
I2
I2
I2
I-2
I2
I1
I-1
I-1
I2
I2
I-1
I2
I1
I1
I1
I-1
I2
I0
I-1
I1
I1
I2
I1
I1
I1
I-1
I1
I1
I1
I0
I-1
I1
I-1
I1
I0
I1
I-1
I-1
I0
I-1
I2
I2
I2
I0
I2
I2
I2
I2
I-2
I2
I-2
I1
I2
I0
I0
I-2
I-2
I-1
I-2
I0
I-2
I1
I-2
I-2
I1
I2
I1
I-1
I0
I-2
I-2
I-2
I-2
I-2
I-2
I-2
I-2
I1
I0
I-1
I2
I-1
I2
I0
I-1
I1
I1
I1
I1
I2
I1
I1
I2
I-1
I-1
I0
I-2
I-1
I-1
I1
I-1
I0
I1
I1
I2
I0
I0
I2
I2
I2
I2
I-2
I-1
I2
I-2
I2
I-1
I1
I0
I-2
I0
I-1
I-2
I-2
I-1
I-1
I-2
I2
I1
I2
I2
I1
I1
I-2
I-1
I0
I2
I-2
I-1
I-2
I-2
I-2
I-2
I2
I0
I-1
I2
I-1
I1
I1
I-1
I1
I-1
I1
I1
I2
I2
I-1
I1
I-2
I-1
I-2
I-2
I-2
I-2
I-1
I-2
I1
I0
I2
I1
I-1
I-2
I1
I1
I1
I1
I-2
I-1
I1
I-1
I0
I-1
I1
I2
I0
I1
I-1
I0
I-2
I1
I2
I-2
I2
I2
I2
I2
I2
I2
I1
I2
I1
I2
I-1
I-2
I0
I-1
I0
I-2
I2
I-1
I-2
I0
I-2
I-1
I-2
I-2
I1
I1
I2
I2
I1
I-1
I-1
I2
I-1
I1
I-1
I-1
I-1
I-2
I1
I1
I2
I1
I1
I1
I1
I-1
I1
I1
I-1
I-1
I-1
I-1
I1
I-2
I-2
I-2
I-1
I-2
I2
I-1
I1
I2
I1
I-2
I0
I1
I-1
I-2
I2
I2
I1
I2
I0
I2
I1
I2
I0
I2
I-2
I-1
I-1
I-2
I0
I-1
I-1
I0
tp2
sS'0ff98806f451c50a.jpg'
p3
(I1
I0
I0
I-1
I0
I-1
I-1
I-1
I0
I2
I-1
I-1
I2
I-2
I2
I-2
I1
I2
I-2
I2
I-2
I-1
I-1
I-2
I1
I-2
I-2
I-1
I-1
I0
I-2
I-2
I-2
I0
I-1
I-2
I-2
I-2
I1
I-1
I-1
I0
I1
I0
I1
I1
I0
I1
I1
I0
I0
I1
I1
I1
I1
I1
I2
I0
I2
I1
I1
I2
I-2
I-1
I2
I-2
I1
I-2
I1
I2
I-2
I1
I2
I-1
I1
I1
I1
I1
I1
I2
I2
I-1
I2
I0
I0
I1
I1
I2
I2
I-2
I-1
I-2
I-1
I0
I2
I2
I1
I1
I1
I0
I0
I0
I2
I1
I-1
I-1
I-1
I-1
I-1
I-1
I0
I-2
I-1
I-1
I-1
I1
I1
I1
I-2
I-1
I-1
I-1
I2
I-1
I2
I-2
I-1
I2
I-2
I-1
I-1
I-2
I1
I-2
I0
I1
I-2
I-1
I0
I-1
I-1
I-1
I0
I2
I-1
I0
I2
I1
I2
I1
I2
I2
I-1
I1
I0
I-2
I0
I1
I2
I2
I0
I0
I1
I0
I0
I2
I2
I2
I0
I1
I0
I2
I2
I0
I-1
I-2
I-1
I-1
I2
I2
I2
I2
I1
I1
I2
I2
I1
I1
I2
I-1
I2
I1
I1
I2
I-2
I0
I1
I-2
I1
I-2
I-1
I2
I-1
I0
I-1
I-1
I2
I-2
I1
I2
I-2
I-2
I-1
I-2
I1
I-2
I-1
I0
I-2
I-2
I-2
I-1
I1
I-1
I-1
I0
I-2
I-2
I-2
I-1
I1
I-2
I-1
I-2
I-2
I-2
I-1
I-2
I-2
I1
I-1
I1
I1
I2
I1
I-2
I-1
I-1
I1
I0
I1
I-1
I-2
I-1
I2
I-1
I2
I0
I-2
I2
I-2
I1
I2
I-2
I2
I-2
I0
I1
I-2
I-1
I2
I-2
I2
I-2
I-2
I-2
I-2
I1
I1
I-2
I1
I-2
I-2
I-2
I0
I1
I2
I-1
I1
I-2
I-2
I-2
I0
I1
I2
I-1
I-1
I-2
I-2
I-1
I2
I2
I1
I-1
I0
I-1
I0
I1
I1
I-1
I-2
I-1
I0
I-1
I-2
I0
I-2
I0
I1
I2
I2
I2
I2
I-1
I2
I2
I-2
I0
I2
I-2
I1
I-2
I2
I2
I-1
I2
I2
I-1
I-1
I1
I2
I2
I2
I2
I2
I1
I1
I2
I2
I2
I2
I2
I2
I-1
I1
I2
I2
I2
I2
I2
I1
I-1
I1
I2
I2
I2
I1
I0
I-1
I1
I2
I-1
I0
I-2
I-1
I-1
I1
I2
I1
I2
I2
I2
I2
I1
I0
I-2
I2
I-2
I2
I-1
I-1
I2
I-2
I-2
I-1
I-2
I2
I-2
I-2
I0
I-2
I-2
I-2
I-2
I-1
I-2
I-2
I1
I-2
I-2
I-2
I1
I2
I-2
I1
I1
I-2
I-2
I-2
I-2
I-1
I-1
I-1
I-1
I-2
I-2
I-1
I1
I0
I-1
I0
I1
I-2
I-2
I0
I-1
I0
I1
I-2
I0
I-1
I-1
I1
I-2
I1
I0
I-1
I-1
I-1
I1
I-1
I1
I2
I1
I2
I-1
I2
I2
I-2
I2
I2
I-2
I2
I-1
I1
I2
I0
I2
I2
I-2
I2
I-2
I1
I2
I-1
I-1
I1
I-2
I1
I-2
I-1
I-1
I-1
I1
I1
I-1
I0
I-1
I-1
I-1
I1
I0
I1
I0
I1
I-1
I-1
I-1
I-1
I0
I-1
I-2
I-2
I1
I1
I0
I1
I1
I1
I0
I2
I-1
I-2
I1
I-2
I2
I-2
I-1
I1
I-2
I2
I-2
I-1
I2
I-2
I2
I-2
I1
I1
I-2
I0
I1
I1
I1
I0
I0
I1
I1
I2
I0
I0
I1
I2
I0
tp4
sS'fd4a1b64570b71ae.jpg'
p5
(I-2
I2
I-1
I2
I2
I2
I2
I2
I-2
I-1
I-2
I-1
I1
I1
I-1
I0
I2
I0
I1
I0
I2
I1
I1
I0
I1
I1
I1
I1
I-1
I2
I-1
I-1
I1
I-2
I0
I-2
I-1
I-1
I0
I-1
I0
I-2
I-2
I-2
I1
I-2
I1
I-2
I2
I2
I1
I2
I1
I1
I-2
I1
I0
I-1
I2
I0
I1
I1
I-1
I-2
I-2
I-2
I-2
I-1
I-1
I-2
I0
I-1
I-1
I2
I-1
I1
I0
I-2
I-1
I-1
I1
I1
I-1
I1
I-2
I1
I-1
I1
I2
I1
I2
I-1
I1
I1
I-1
I1
I1
I-2
I1
I-1
I-2
I1
I1
I0
I-1
I-2
I1
I-1
I-2
I-2
I-2
I-2
I2
I-1
I0
I2
I1
I1
I1
I2
I-1
I-1
I1
I-1
I0
I0
I1
I-2
I-1
I1
I-1
I0
I0
I1
I-2
I-2
I2
I0
I-1
I0
I-2
I-2
I-2
I-2
I2
I2
I1
I2
I2
I0
I-1
I1
I-1
I-1
I1
I-2
I-1
I-2
I-2
I-2
I-1
I2
I2
I1
I2
I-1
I-2
I1
I-1
I-1
I-2
I-2
I-2
I2
I-1
I1
I1
I-2
I2
I-1
I0
I-1
I1
I0
I-2
I-1
I-2
I-1
I-1
I-1
I-2
I-2
I-2
I-2
I2
I2
I2
I2
I2
I2
I2
I2
I2
I2
I0
I-2
I-2
I1
I1
I-1
I2
I1
I2
I2
I2
I2
I1
I2
I-1
I2
I1
I-2
I-1
I-1
I1
I2
I2
I2
I2
I1
I2
I1
I2
I2
I-1
I1
I-2
I1
I1
I-1
I0
I-2
I2
I-1
I2
I2
I2
I2
I2
I2
I2
I2
I1
I2
I-2
I-2
I-1
I0
I1
I1
I2
I-2
I-1
I1
I0
I2
I2
I0
I-2
I-1
I-2
I0
I-1
I2
I1
I2
I1
I-1
I1
I1
I2
I2
I2
I1
I-2
I-1
I-1
I-2
I2
I1
I-2
I2
I-2
I-2
I-1
I-2
I0
I-2
I1
I1
I-2
I-1
I0
I1
I1
I-2
I-2
I-2
I-2
I-2
I1
I-2
I0
I2
I1
I-1
I-1
I0
I-2
I-1
I-2
I-1
I0
I-2
I-1
I-1
I-1
I-2
I-2
I0
I-2
I-1
I-2
I-2
I0
I-1
I-2
I2
I1
I0
I-1
I-2
I-2
I-2
I-1
I-1
I-2
I-2
I-2
I-2
I-1
I2
I2
I2
I2
I-1
I0
I-1
I-2
I-1
I-1
I-2
I1
I-2
I-2
I-2
I-1
I-1
I-1
I-2
I-2
I2
I1
I-1
I1
I-1
I2
I1
I2
I1
I1
I1
I-1
I2
I0
I1
I1
I-1
I-1
I-2
I2
I-2
I1
I2
I0
I1
I-1
I2
I-2
I-1
I2
I1
I2
I1
I-2
I-1
I-1
I-2
I2
I2
I1
I2
I1
I1
I-1
I2
I2
I0
I2
I-1
I-1
I-1
I1
I2
I1
I2
I2
I1
I2
I2
I2
I2
I2
I2
I-2
I0
I1
I-1
I-1
I-2
I0
I-2
I1
I1
I1
I2
I2
I1
I-1
I1
I-2
I-2
I-2
I-2
I-2
I-2
I-2
I-1
I2
I2
I1
I2
I1
I2
I2
I1
I1
I1
I-1
I-1
I-1
I2
I0
I0
I2
I1
I1
I1
I2
I1
I1
I2
I-2
I-1
I-2
I-2
I1
I-1
I1
I1
I-2
I-2
I0
I-1
I1
I0
I0
I1
I-2
I-1
I-1
I-1
I0
I0
I-1
I-2
I2
I1
I2
I2
I2
I-1
I2
I-2
I-2
I1
I1
I-2
I-2
I-1
I-2
I-1
I0
I-1
I2
I-1
I0
I-1
I1
I1
I2
I-2
I-1
I0
I-2
I0
I-1
I0
I1
I0
I1
I-1
I0
I-1
tp6
s.