(dp0
S'fc63db53c39e117e.jpg'
p1
(I-2
I-2
I-2
I2
I-2
I-1
I0
I1
I2
I2
I2
I2
I2
I-2
I1
I-1
I-1
I1
I-1
I-1
I-1
I1
I2
I1
I2
I2
I2
I2
I-2
I-1
I1
I1
I-1
I1
I2
I2
I1
I-1
I-2
I-1
I-2
I2
I1
I1
I0
I-1
I2
I0
I-2
I-1
I1
I-1
I-2
I2
I-1
I-2
I1
I-1
I-1
I-2
I1
I2
I-2
I1
I1
I1
I2
I1
I2
I1
I-1
I-1
I-2
I-2
I2
I1
I-1
I-1
I-2
I-2
I-1
I-2
I-1
I-2
I-2
I-2
I-2
I-1
I-2
I1
I-2
I-2
I-2
I-2
I1
I-1
I1
I2
I-1
I-1
I-1
I-1
I1
I2
I1
I1
I1
I0
I1
I-1
I1
I1
I1
I2
I2
I1
I2
I2
I2
I-1
I-2
I-1
I-1
I-2
I1
I-2
I-2
I0
I-2
I-2
I-1
I-1
I-2
I-2
I-1
I1
I-1
I1
I2
I2
I-1
I1
I2
I1
I1
I2
I2
I1
I1
I2
I1
I2
I2
I2
I1
I-1
I0
I0
I1
I-1
I2
I1
I-1
I0
I0
I1
I-1
I2
I1
I-1
I0
I-1
I2
I-1
I-2
I0
I0
I-1
I-1
I-2
I2
I0
I-2
I1
I-1
I1
I1
I2
I2
I2
I2
I2
I2
I2
I0
I1
I-1
I-2
I2
I-1
I-1
I-1
I-1
I-2
I-2
I-2
I-2
I-2
I-2
I-2
I-1
I-1
I0
I2
I1
I-1
I-1
I2
I-2
I-1
I-1
I-1
I-1
I-1
I1
I-2
I1
I1
I1
I1
I2
I2
I-1
I2
I-2
I-2
I-2
I-2
I-1
I0
I-1
I-1
I-2
I1
I1
I1
I-2
I1
I1
I-1
I1
I2
I-1
I-2
I1
I-1
I1
I1
I1
I-1
I-2
I1
I2
I-1
I-1
I0
I-2
I2
I1
I2
I1
I1
I1
I-1
I2
I2
I2
I1
I1
I-1
I2
I2
I2
I2
I-2
I-1
I-2
I-2
I-2
I1
I1
I-2
I2
I1
I2
I2
I2
I2
I-1
I2
I-2
I1
I-2
I-2
I-1
I2
I1
I2
I-1
I-2
I-1
I-1
I-1
I-2
I1
I-2
I-2
I1
I-2
I-1
I0
I-1
I-2
I-2
I-1
I1
I1
I2
I1
I2
I2
I1
I2
I2
I-2
I-2
I-2
I-2
I0
I-2
I-2
I-2
I-2
I-2
I-1
I0
I0
I-2
I-2
I-2
I-2
I-1
I-2
I0
I-2
I-2
I-2
I-2
I2
I1
I2
I2
I2
I1
I1
I2
I-2
I1
I-2
I-2
I0
I1
I2
I-2
I2
I2
I2
I2
I2
I2
I2
I2
I2
I1
I-1
I1
I-2
I-2
I1
I1
I-2
I1
I-1
I-2
I2
I-1
I0
I-2
I-1
I1
I-2
I2
I2
I0
I-1
I-1
I1
I0
I2
I2
I2
I1
I0
I2
I1
I1
I2
I2
I-1
I0
I-1
I1
I1
I1
I2
I-1
I2
I1
I2
I2
I1
I2
I-2
I0
I-2
I-1
I1
I-2
I-2
I-1
I-2
I-2
I-2
I-2
I-1
I1
I-2
I-1
I-1
I1
I-1
I2
I2
I2
I2
I2
I2
I2
I-1
I1
I1
I-2
I2
I1
I-1
I-1
I-1
I-1
I-2
I-2
I-1
I-2
I-2
I1
I0
I-1
I-1
I1
I1
I-2
I2
I2
I-1
I-1
I-2
I-1
I-1
I1
I1
I-1
I-1
I-1
I1
I1
I2
I2
I1
I1
I-2
I-1
I-2
I-2
I-1
I2
I1
I0
I2
I1
I-2
I0
I2
I-1
I-2
I-1
I-2
I-1
I-2
I1
I2
I1
I-1
I1
I2
I2
I1
I2
I-1
I-2
I-1
I-2
I0
I-2
I-1
I-2
I0
I-2
I1
I-1
I2
I2
I1
I-1
I1
I-1
tp2
sS'3b0baf8072202eff.jpg'
p3
(I-2
I1
I1
I2
I1
I2
I2
I2
I-1
I-2
I2
I2
I-1
I2
I-1
I2
I1
I-1
I1
I1
I2
I0
I1
I-1
I-1
I-1
I1
I1
I1
I-1
I1
I1
I0
I1
I1
I2
I1
I2
I-1
I1
I1
I-1
I-2
I0
I-2
I-2
I-1
I-2
I-2
I0
I2
I-2
I-2
I-1
I-2
I-2
I-2
I-2
I-2
I-2
I-2
I-2
I1
I-1
I-2
I2
I-2
I2
I2
I1
I1
I0
I1
I2
I1
I2
I2
I2
I-1
I-1
I-1
I-1
I-1
I2
I2
I1
I-1
I-1
I-2
I1
I-1
I2
I1
I1
I0
I-1
I-1
I1
I1
I1
I2
I2
I-2
I-1
I-1
I1
I2
I2
I2
I2
I2
I-1
I2
I2
I2
I-2
I2
I-2
I-2
I-2
I1
I2
I-2
I-2
I-1
I-2
I-2
I-2
I2
I-2
I-2
I1
I-1
I-2
I-2
I-2
I-1
I-2
I-2
I1
I0
I-2
I-1
I-1
I-2
I-2
I-2
I0
I-1
I-1
I-1
I-1
I-1
I-1
I-1
I1
I1
I1
I-1
I-1
I-1
I-2
I-1
I-1
I2
I-1
I-1
I-2
I-2
I-2
I-2
I-2
I-2
I-2
I2
I-2
I2
I2
I1
I2
I2
I2
I2
I2
I2
I2
I2
I2
I2
I-2
I-1
I2
I2
I-1
I2
I2
I2
I1
I2
I2
I1
I1
I2
I1
I1
I-2
I1
I-2
I-2
I-1
I1
I1
I-1
I-1
I-1
I-2
I-2
I-2
I1
I1
I1
I1
I0
I-1
I-2
I-2
I1
I1
I2
I0
I-1
I-2
I-2
I-2
I2
I2
I1
I-1
I-1
I-2
I-2
I-2
I-1
I1
I-2
I-2
I-2
I2
I-1
I1
I2
I1
I-2
I-2
I-2
I1
I-2
I2
I1
I1
I1
I-1
I2
I2
I-1
I2
I2
I2
I-1
I2
I2
I1
I1
I2
I2
I1
I1
I2
I1
I-1
I-1
I2
I1
I1
I2
I2
I2
I1
I0
I1
I2
I1
I2
I2
I1
I0
I0
I2
I2
I2
I2
I1
I0
I2
I2
I1
I-1
I2
I-2
I-2
I-1
I-2
I-2
I-2
I-2
I-2
I-2
I-2
I-1
I-1
I-2
I2
I0
I-2
I-2
I-2
I-1
I-2
I-2
I0
I-2
I-2
I-2
I-2
I-2
I-2
I-2
I2
I-2
I-1
I-1
I-1
I-1
I-1
I-1
I2
I1
I1
I1
I-1
I-1
I-2
I-2
I-1
I0
I1
I-1
I-1
I-1
I-2
I-2
I0
I2
I-1
I-1
I2
I-2
I-2
I-2
I-2
I1
I2
I2
I2
I2
I1
I2
I2
I2
I-2
I1
I1
I-2
I1
I2
I2
I2
I-1
I0
I-2
I-1
I-2
I2
I2
I1
I0
I-1
I-1
I-2
I-2
I2
I1
I-1
I1
I1
I-2
I-1
I-1
I1
I-1
I-1
I-1
I-2
I-1
I-1
I-1
I1
I1
I1
I1
I1
I1
I1
I1
I1
I1
I2
I-1
I2
I1
I0
I-1
I-2
I-1
I-2
I-2
I-2
I-2
I-1
I-2
I2
I2
I-1
I2
I2
I2
I2
I2
I2
I2
I-1
I1
I1
I-2
I-2
I2
I2
I-1
I2
I2
I2
I2
I1
I2
I1
I0
I2
I1
I1
I-1
I0
I-1
I-1
I-1
I1
I1
I-1
I0
I1
I-1
I-1
I-1
I1
I-1
I-1
I-1
I-1
I-1
I-1
I-1
I-1
I0
I2
I1
I-1
I-1
I0
I-1
I1
I2
I1
I1
I0
I-2
I-2
I-1
I-2
I-2
I-2
I1
I0
I-2
I-2
I-2
I0
I-2
I1
I-1
I1
I2
I-1
I0
I1
I1
I1
I1
I1
I1
I1
I-1
I0
I1
I1
I1
I0
I1
I1
I0
I-1
I-1
I-1
I1
I0
I1
tp4
sS'c96ff164997cb705.jpg'
p5
(I-2
I-1
I-1
I2
I1
I2
I1
I2
I-1
I1
I1
I2
I2
I-1
I2
I1
I1
I2
I-2
I0
I-1
I0
I-1
I0
I0
I0
I-1
I-2
I0
I-2
I-1
I-2
I-2
I2
I0
I2
I2
I-1
I0
I1
I-1
I1
I-2
I-1
I2
I-1
I1
I-1
I-1
I1
I2
I2
I-1
I1
I-2
I-2
I-1
I-2
I0
I-2
I-1
I1
I-2
I-1
I1
I0
I1
I-1
I1
I1
I-2
I0
I0
I-1
I-1
I0
I1
I-1
I1
I1
I1
I1
I-1
I2
I0
I-1
I2
I2
I-2
I1
I0
I1
I0
I2
I2
I-2
I-1
I0
I-2
I0
I2
I0
I1
I1
I2
I2
I2
I-2
I-2
I-2
I-1
I-2
I1
I1
I2
I2
I2
I2
I0
I1
I-1
I1
I1
I-2
I2
I-2
I-1
I-2
I-1
I-1
I0
I-2
I1
I-2
I-2
I1
I-1
I-1
I-2
I-1
I-2
I-2
I1
I0
I1
I0
I-1
I2
I-1
I2
I1
I0
I1
I0
I0
I1
I2
I2
I1
I2
I-2
I-2
I-2
I-2
I-2
I-2
I-1
I-2
I0
I-2
I2
I2
I-2
I1
I-2
I-2
I1
I-1
I2
I0
I2
I2
I1
I2
I2
I1
I-1
I1
I2
I-1
I-1
I1
I1
I-1
I2
I2
I2
I1
I2
I2
I1
I2
I-1
I-1
I-2
I-2
I-1
I-2
I-1
I-2
I0
I-1
I-2
I1
I-1
I0
I-2
I-2
I0
I-1
I2
I1
I1
I0
I-1
I-1
I-2
I1
I-2
I-1
I-2
I-2
I-2
I-2
I2
I2
I2
I2
I1
I-1
I-2
I-2
I1
I-2
I1
I-2
I-1
I2
I0
I2
I0
I-1
I-1
I-1
I-2
I0
I-1
I0
I-1
I1
I1
I-1
I2
I1
I2
I1
I2
I2
I-2
I1
I0
I-2
I-2
I-2
I-1
I-2
I2
I2
I0
I2
I-1
I1
I-2
I1
I2
I1
I2
I1
I0
I-1
I2
I-1
I1
I2
I-2
I0
I-2
I2
I-1
I-2
I2
I-1
I2
I2
I1
I-1
I-2
I-2
I-2
I-2
I2
I0
I0
I2
I-1
I0
I-2
I-1
I1
I1
I-1
I1
I1
I-1
I0
I1
I-1
I-2
I2
I-1
I1
I-1
I0
I2
I-2
I1
I-1
I-1
I-2
I-2
I1
I-1
I2
I2
I1
I2
I2
I2
I1
I2
I-1
I-2
I-2
I-2
I-2
I-2
I-1
I-2
I1
I1
I-2
I2
I-1
I2
I0
I-2
I2
I-1
I1
I1
I-2
I2
I0
I-1
I0
I1
I2
I2
I1
I1
I1
I1
I2
I-1
I1
I0
I1
I-1
I1
I1
I-1
I2
I-1
I0
I2
I-1
I2
I-2
I1
I2
I-2
I-1
I-2
I-2
I-2
I-1
I0
I-2
I1
I-1
I2
I2
I1
I2
I1
I-1
I-2
I1
I-2
I-1
I-2
I0
I-2
I-1
I2
I0
I-1
I2
I-2
I0
I1
I1
I2
I2
I2
I2
I2
I0
I-1
I1
I1
I1
I-1
I-2
I-1
I-1
I-2
I1
I0
I-2
I1
I1
I2
I2
I2
I2
I0
I2
I-2
I-1
I1
I-2
I1
I-2
I-1
I-1
I-2
I0
I-2
I-1
I-2
I-1
I-2
I-2
I2
I-1
I0
I2
I-2
I0
I0
I-1
I1
I2
I0
I2
I1
I2
I1
I2
I1
I-1
I-2
I-1
I-1
I0
I1
I-1
I-1
I-2
I1
I2
I0
I-1
I-1
I-1
I-1
I0
I-2
I1
I-2
I2
I0
I2
I2
I2
I-2
I1
I1
I-2
I-1
I1
I2
I0
I1
I1
I2
I0
I-2
I-1
I-1
I1
I-1
I0
I1
I1
I-2
I-1
I-2
I-2
I-2
I1
I0
I2
tp6
sS'1d12c3493e381ed8.jpg'
p7
(I-1
I-2
I-1
I1
I-2
I-1
I-1
I1
I2
I1
I2
I2
I-1
I-1
I2
I2
I-2
I0
I-2
I1
I-2
I-2
I1
I-1
I-2
I-2
I1
I-2
I2
I-2
I2
I-1
I-1
I2
I-1
I1
I2
I1
I1
I2
I1
I1
I1
I1
I2
I-1
I1
I1
I-2
I-1
I2
I2
I-2
I-1
I-1
I-2
I-2
I-2
I-2
I-2
I-2
I-2
I1
I2
I2
I2
I2
I2
I-1
I1
I0
I2
I2
I-2
I2
I-2
I-2
I1
I-1
I-1
I-2
I-2
I-2
I-2
I-2
I-1
I2
I1
I-1
I2
I1
I1
I2
I1
I1
I-2
I-2
I-1
I-1
I2
I1
I-1
I-1
I-1
I1
I1
I-1
I-2
I-2
I-2
I-1
I-1
I1
I2
I2
I2
I2
I2
I2
I0
I1
I2
I-2
I-2
I-2
I2
I-2
I0
I2
I1
I2
I2
I1
I1
I2
I1
I-1
I2
I2
I-1
I2
I2
I-1
I1
I-1
I2
I-1
I-2
I2
I-2
I-1
I1
I1
I-2
I-2
I-2
I-2
I-2
I-2
I-2
I-1
I-1
I-1
I2
I-2
I1
I1
I-1
I1
I1
I2
I2
I1
I1
I-2
I1
I2
I1
I1
I-2
I-2
I-1
I-2
I2
I0
I1
I0
I2
I-1
I2
I1
I2
I2
I1
I0
I-2
I-2
I-2
I-2
I2
I-1
I-2
I-1
I1
I2
I2
I2
I2
I1
I1
I-1
I1
I2
I-2
I2
I-2
I-1
I-1
I-1
I2
I-1
I-2
I-1
I-2
I-2
I-1
I2
I-1
I-2
I1
I-1
I-2
I0
I1
I1
I-1
I1
I1
I1
I-2
I-2
I-2
I-2
I-2
I-1
I0
I-2
I2
I1
I-1
I1
I2
I-1
I-2
I-2
I-1
I-2
I-1
I1
I-2
I-1
I1
I-2
I2
I-2
I2
I1
I2
I2
I-1
I2
I2
I1
I2
I2
I1
I-1
I1
I2
I-1
I1
I2
I-1
I-1
I1
I2
I2
I-1
I2
I-1
I-1
I1
I1
I0
I-1
I-2
I1
I-2
I-1
I1
I-1
I-1
I-1
I-1
I1
I2
I1
I2
I-1
I1
I2
I-1
I1
I-2
I2
I-2
I-1
I1
I-2
I-1
I-2
I-2
I-2
I-2
I-1
I-2
I2
I-1
I-2
I2
I2
I2
I1
I-1
I-2
I-2
I-2
I-2
I-2
I-2
I-2
I-2
I-1
I1
I1
I2
I-1
I1
I1
I-1
I1
I1
I2
I1
I2
I1
I1
I0
I-1
I1
I1
I-2
I1
I-2
I-2
I1
I-1
I-1
I-1
I-2
I-1
I1
I2
I2
I-1
I1
I-1
I1
I2
I-2
I1
I-2
I-2
I-1
I-1
I1
I-2
I-1
I-2
I-2
I-2
I-1
I2
I-1
I2
I2
I-2
I-1
I1
I-1
I1
I2
I-1
I2
I1
I2
I2
I-1
I2
I-1
I-1
I-1
I-1
I1
I-1
I-1
I1
I-1
I2
I1
I-1
I1
I1
I1
I0
I2
I2
I1
I2
I1
I1
I1
I-1
I1
I-2
I-2
I-2
I1
I2
I2
I2
I1
I-1
I2
I2
I-2
I1
I2
I-1
I-1
I1
I2
I1
I-1
I2
I-2
I-2
I-1
I1
I-1
I-2
I-2
I-2
I-2
I-2
I-2
I1
I-2
I-1
I2
I-2
I-1
I-1
I-1
I1
I1
I-1
I2
I-1
I2
I1
I2
I1
I-1
I-1
I1
I-1
I2
I2
I2
I-1
I-1
I2
I1
I1
I2
I2
I2
I-1
I2
I-1
I2
I2
I-2
I-2
I-2
I-1
I1
I2
I2
I1
I1
I2
I2
I-1
I1
I1
I2
I1
I-1
I1
I2
I1
I-2
I-1
I-1
I1
I-1
I-2
I1
I2
I-2
I-2
I-2
I-2
I1
I-2
I-2
I-2
I-1
I-2
I-2
I-2
I2
tp8
sS'b2319811c4d68411.jpg'
p9
(I-1
I2
I1
I1
I0
I2
I1
I-2
I0
I-1
I1
I-2
I-2
I1
I2
I-1
I-2
I-1
I-2
I-2
I-2
I-2
I-1
I2
I-2
I-2
I1
I-1
I2
I-1
I2
I2
I2
I1
I1
I2
I2
I2
I-2
I2
I0
I-2
I-2
I-2
I-1
I-2
I-1
I-1
I-1
I2
I-2
I1
I-1
I-2
I2
I2
I1
I2
I-1
I2
I1
I1
I2
I2
I2
I1
I1
I2
I2
I2
I1
I2
I2
I-1
I2
I1
I1
I2
I1
I-1
I-2
I-2
I-1
I-1
I2
I0
I1
I-2
I-2
I1
I2
I2
I1
I2
I-2
I-2
I-2
I-2
I-2
I-2
I-2
I-2
I-2
I0
I2
I2
I2
I1
I-1
I-2
I-1
I-2
I2
I1
I-2
I2
I-2
I1
I-1
I-2
I2
I-1
I-2
I2
I-1
I1
I1
I-1
I-1
I-2
I-1
I1
I1
I1
I-1
I2
I-2
I-1
I1
I-1
I2
I-2
I2
I1
I-2
I-2
I-2
I-2
I-2
I-1
I-2
I-2
I0
I-1
I2
I2
I1
I0
I-1
I-1
I-2
I2
I-2
I-1
I-1
I-2
I-2
I-2
I2
I-2
I1
I-2
I-1
I1
I-1
I-2
I2
I-1
I2
I1
I-1
I2
I-1
I2
I2
I-1
I2
I-1
I-1
I1
I-2
I2
I-1
I-1
I1
I1
I2
I2
I2
I1
I1
I1
I-2
I-2
I1
I-2
I-1
I-2
I-2
I-1
I-1
I2
I0
I1
I-1
I-1
I1
I0
I2
I1
I2
I1
I-1
I1
I1
I2
I1
I2
I2
I1
I1
I2
I2
I-1
I2
I1
I-1
I2
I-2
I-2
I-2
I-2
I-2
I-2
I1
I-2
I-2
I2
I-2
I1
I-1
I0
I1
I1
I-1
I2
I-1
I2
I2
I1
I1
I-1
I2
I1
I1
I2
I1
I1
I-1
I2
I1
I-1
I2
I1
I0
I2
I1
I-1
I-1
I-2
I-1
I-2
I0
I-1
I0
I-1
I-2
I1
I2
I1
I-1
I1
I-2
I-2
I-2
I-2
I-2
I-2
I-2
I-2
I1
I2
I2
I2
I2
I2
I-1
I-1
I1
I-1
I2
I1
I-2
I1
I1
I2
I1
I-2
I0
I-2
I-2
I-1
I-2
I-1
I-2
I-2
I-1
I-1
I-1
I2
I-1
I-1
I-2
I1
I-1
I0
I2
I1
I2
I-2
I1
I2
I-2
I0
I-1
I-2
I-1
I-1
I1
I0
I1
I1
I2
I1
I1
I2
I1
I2
I-1
I2
I-2
I-1
I-1
I0
I1
I2
I2
I-2
I1
I2
I2
I-1
I-2
I-2
I2
I-1
I1
I-1
I1
I2
I-2
I2
I1
I-1
I2
I2
I1
I2
I-1
I2
I2
I1
I2
I2
I2
I1
I2
I2
I2
I2
I-1
I-1
I1
I-2
I1
I-1
I1
I2
I-2
I-1
I-2
I-1
I-1
I-1
I1
I1
I0
I-1
I0
I1
I1
I1
I1
I1
I-2
I-1
I-2
I-1
I1
I1
I-1
I-2
I-2
I-2
I-1
I-1
I-2
I-2
I-2
I-2
I-2
I-2
I1
I-1
I-2
I2
I-2
I-2
I-1
I-1
I1
I-2
I-2
I2
I-1
I1
I1
I-1
I-1
I-2
I1
I1
I1
I2
I0
I1
I-2
I-1
I1
I-1
I1
I-1
I-1
I0
I-2
I-1
I-1
I-1
I0
I-2
I-1
I-2
I-1
I-1
I-1
I0
I-1
I-1
I-2
I-2
I-1
I1
I1
I1
I-2
I-2
I-2
I-2
I2
I2
I2
I1
I1
I2
I2
I1
I2
I1
I-1
I-1
I0
I1
I-1
I-2
I0
I-2
I1
I0
I1
I2
I1
I-1
I1
I2
I-1
I1
I0
I1
I1
I-1
I-2
I2
I2
I2
I2
I0
I2
I2
I-1
I0
I1
I2
I-1
I-1
tp10
sS'8ef3d7a264d56007.jpg'
p11
(I2
I2
I2
I-2
I-1
I2
I1
I1
I1
I2
I1
I1
I-2
I-2
I2
I-1
I-2
I0
I-2
I1
I-2
I-2
I-2
I-1
I-2
I-2
I-2
I-2
I2
I-1
I1
I-1
I-1
I1
I1
I1
I0
I1
I-1
I0
I1
I-2
I-2
I-1
I-2
I-2
I-2
I-1
I-1
I1
I1
I-1
I-2
I2
I-1
I-1
I1
I-1
I-2
I-2
I2
I1
I2
I2
I2
I2
I2
I2
I2
I2
I0
I2
I2
I-2
I2
I-1
I-1
I1
I2
I2
I-1
I-2
I-1
I-2
I-1
I1
I2
I1
I-1
I1
I0
I1
I2
I-1
I1
I0
I0
I0
I1
I2
I-1
I1
I-1
I-1
I-1
I-2
I0
I2
I1
I-2
I-1
I2
I2
I2
I2
I2
I2
I1
I2
I2
I-2
I-2
I-2
I-2
I-2
I-2
I-2
I-2
I-1
I-2
I1
I2
I-1
I-1
I1
I0
I-2
I1
I2
I1
I2
I1
I1
I2
I-1
I1
I-1
I-2
I2
I-1
I2
I-2
I-1
I-2
I-2
I-2
I-2
I1
I-2
I-2
I1
I1
I2
I2
I2
I-1
I1
I1
I-1
I0
I-2
I-2
I-2
I1
I-1
I2
I-1
I1
I-2
I-2
I2
I-2
I-1
I-2
I-2
I-2
I-2
I2
I1
I1
I1
I-2
I-2
I-1
I2
I-1
I-1
I-1
I-1
I-2
I-2
I2
I0
I-1
I1
I1
I2
I-1
I2
I2
I-2
I-2
I-1
I-2
I-2
I-1
I1
I-1
I2
I2
I1
I2
I1
I2
I2
I2
I2
I-1
I2
I-2
I1
I2
I1
I2
I-1
I2
I-1
I1
I1
I1
I2
I1
I2
I1
I-1
I2
I2
I-1
I1
I2
I-1
I2
I2
I2
I2
I-1
I1
I-1
I2
I-1
I1
I2
I1
I-1
I2
I1
I-1
I1
I-2
I-2
I1
I-2
I2
I-2
I-2
I-1
I-2
I-1
I-2
I-2
I-2
I-2
I-2
I-2
I1
I-2
I-2
I2
I-2
I-1
I-1
I-2
I-2
I-1
I-1
I2
I1
I1
I0
I2
I-2
I-2
I-1
I-1
I1
I-2
I-2
I-2
I-1
I-2
I-1
I1
I1
I2
I2
I1
I-1
I2
I-2
I-2
I-1
I-2
I-2
I-2
I0
I0
I1
I1
I2
I2
I2
I2
I2
I2
I-1
I2
I2
I-2
I2
I1
I1
I1
I1
I2
I1
I-2
I-1
I-1
I-1
I-1
I2
I1
I-1
I1
I-1
I-1
I-1
I-2
I2
I0
I1
I1
I2
I1
I-1
I0
I-2
I-1
I-2
I-2
I-2
I1
I-1
I-2
I-2
I0
I2
I1
I2
I2
I2
I0
I2
I2
I-2
I0
I-2
I-2
I0
I-1
I-1
I1
I0
I-2
I-1
I0
I1
I-1
I1
I2
I-2
I-1
I1
I-1
I-1
I1
I2
I2
I-1
I1
I1
I1
I1
I2
I2
I1
I1
I1
I-1
I-1
I-2
I2
I0
I-1
I2
I1
I2
I2
I1
I2
I1
I1
I0
I2
I-1
I-1
I-1
I2
I0
I2
I1
I1
I0
I-2
I1
I-2
I1
I-1
I-1
I-1
I-2
I1
I1
I-1
I1
I-1
I-1
I-2
I-1
I-1
I-1
I-1
I2
I-2
I-2
I1
I-2
I-2
I-2
I-2
I2
I-2
I-1
I-1
I-2
I-2
I-2
I-2
I-2
I-2
I-2
I-2
I-1
I0
I-2
I2
I-1
I2
I1
I1
I1
I-1
I1
I1
I-1
I2
I2
I1
I-1
I1
I1
I2
I1
I-1
I1
I1
I-1
I1
I1
I-1
I1
I1
I1
I2
I-1
I-1
I2
I2
I2
I1
I2
I-1
I1
I2
I-2
I1
I1
I2
I-2
I-1
I-1
I2
I-1
I-2
I1
I-1
I-1
I-2
I-2
I1
I-1
I-1
I-1
I1
tp12
sS'a2efdb92b6543730.jpg'
p13
(I-1
I-1
I-2
I1
I2
I1
I-1
I-2
I-2
I-2
I-2
I-2
I-2
I2
I2
I-2
I1
I1
I-2
I-1
I-1
I-1
I1
I1
I2
I1
I2
I2
I-2
I1
I-2
I-1
I1
I-1
I1
I-2
I-1
I-2
I-1
I-1
I-2
I1
I-1
I-2
I-1
I0
I2
I1
I2
I2
I-2
I1
I2
I1
I2
I2
I2
I2
I2
I2
I2
I2
I2
I-1
I1
I-2
I1
I1
I1
I-2
I-1
I1
I-1
I-1
I1
I0
I-2
I1
I-1
I-2
I2
I-1
I1
I-2
I-1
I-1
I-2
I1
I2
I-1
I2
I-1
I-2
I-1
I-1
I1
I1
I-2
I-1
I-2
I-2
I-1
I2
I2
I1
I-1
I1
I1
I-1
I0
I0
I-2
I0
I-2
I-2
I0
I-1
I-1
I-2
I-2
I-1
I-2
I-1
I1
I0
I-2
I-1
I1
I-2
I-1
I0
I0
I-2
I-1
I1
I-2
I2
I2
I2
I2
I2
I2
I-1
I2
I-1
I1
I1
I-2
I0
I-2
I-1
I-1
I1
I1
I2
I0
I1
I-1
I-1
I-1
I1
I2
I1
I-1
I2
I-2
I-2
I-2
I1
I-1
I-2
I-2
I-2
I0
I1
I-2
I0
I-1
I2
I2
I2
I2
I2
I2
I2
I2
I2
I1
I1
I-2
I2
I1
I1
I1
I-1
I-1
I-2
I-2
I-2
I-1
I-1
I-2
I2
I1
I2
I2
I2
I2
I1
I2
I-2
I1
I1
I-2
I-1
I-1
I0
I1
I1
I1
I2
I1
I0
I1
I1
I-2
I1
I2
I2
I0
I1
I1
I-2
I-2
I2
I2
I-1
I-2
I-2
I0
I-2
I-1
I-1
I-2
I1
I-2
I-1
I1
I1
I1
I-1
I2
I-2
I-1
I1
I-1
I1
I-2
I1
I-1
I-1
I1
I-2
I-1
I-2
I1
I-1
I-2
I2
I-1
I1
I2
I1
I1
I-1
I-1
I-2
I0
I-1
I-1
I1
I-2
I-2
I-1
I-1
I-1
I-1
I-1
I-2
I-2
I-1
I-2
I2
I2
I2
I2
I1
I2
I-1
I2
I2
I2
I-1
I-1
I2
I1
I-1
I-2
I-2
I1
I2
I1
I2
I2
I2
I-2
I2
I2
I-2
I-1
I-1
I-2
I-2
I-1
I-1
I-2
I1
I1
I-1
I2
I-2
I1
I-2
I-2
I2
I1
I2
I2
I0
I-1
I-1
I1
I1
I2
I2
I0
I1
I-1
I0
I-2
I1
I1
I-2
I-1
I-2
I-1
I-2
I-2
I2
I1
I1
I2
I2
I1
I0
I-1
I-2
I-2
I-2
I-2
I-2
I2
I2
I2
I2
I2
I-1
I-2
I1
I-2
I-1
I-1
I-1
I-2
I-2
I1
I-1
I1
I-2
I-1
I-1
I-2
I2
I2
I1
I2
I0
I2
I1
I-1
I2
I1
I1
I0
I2
I1
I-1
I-2
I-1
I0
I1
I-2
I-2
I-2
I-2
I-1
I2
I2
I-1
I2
I-1
I-1
I1
I-1
I2
I0
I2
I1
I0
I2
I0
I-2
I1
I2
I0
I0
I-2
I-2
I1
I1
I-2
I-1
I-2
I1
I1
I-1
I-1
I-2
I-1
I1
I2
I1
I-2
I1
I-1
I-1
I1
I-2
I2
I-1
I-1
I1
I-2
I2
I-1
I-2
I1
I1
I2
I2
I-1
I2
I0
I0
I2
I2
I1
I1
I2
I1
I1
I-1
I1
I-1
I-2
I-2
I-2
I-1
I-2
I-2
I1
I0
I0
I2
I-2
I-1
I-1
I-2
I2
I2
I2
I2
I2
I2
I2
I1
I1
I1
I1
I-1
I2
I-1
I-1
I-2
I-2
I-2
I2
I1
I-2
I2
I-2
I2
I0
I-1
I2
I0
I0
I-1
I1
I0
I-2
I1
I2
I1
I2
I1
I2
I1
I-2
I-1
I-1
I2
I-2
I1
tp14
sS'10bfa58b0ee83080.jpg'
p15
(I-1
I-2
I1
I1
I1
I-2
I1
I1
I-1
I2
I-1
I-1
I2
I-2
I-2
I-2
I-2
I-2
I2
I-1
I-1
I-1
I-1
I1
I-2
I-1
I-1
I1
I2
I2
I1
I2
I2
I-2
I2
I-1
I1
I-1
I-2
I-1
I-2
I2
I2
I2
I1
I2
I-1
I-1
I1
I-2
I1
I-2
I-1
I2
I-1
I1
I2
I-1
I2
I-1
I2
I2
I-2
I2
I1
I-2
I-1
I0
I1
I-1
I2
I1
I1
I1
I1
I2
I-1
I-1
I1
I1
I-1
I-1
I1
I-2
I-2
I-1
I-1
I-2
I1
I-1
I1
I-2
I-2
I-1
I-2
I-1
I1
I-1
I-2
I-2
I-2
I-2
I1
I2
I2
I-1
I-1
I-1
I2
I2
I-1
I2
I-2
I1
I1
I-2
I2
I-2
I1
I1
I-2
I-2
I0
I-2
I1
I-2
I-2
I1
I-2
I-1
I-2
I-2
I-2
I-2
I-1
I-2
I1
I1
I2
I2
I0
I2
I1
I-1
I1
I2
I2
I0
I1
I1
I-1
I-1
I1
I2
I2
I-1
I1
I-2
I-1
I-1
I1
I2
I1
I-1
I0
I-2
I-1
I-2
I2
I1
I0
I-1
I-2
I1
I2
I2
I2
I2
I-2
I-1
I2
I-2
I1
I1
I0
I2
I-1
I2
I2
I-1
I2
I-1
I2
I2
I-1
I1
I-2
I-2
I-1
I-1
I-1
I0
I2
I-1
I-1
I1
I-2
I0
I1
I1
I1
I1
I2
I2
I1
I2
I2
I2
I1
I1
I2
I-1
I1
I2
I1
I2
I1
I1
I1
I-1
I-1
I1
I2
I2
I2
I2
I1
I2
I2
I-2
I-1
I-1
I-2
I-1
I-2
I0
I1
I1
I2
I-2
I-1
I2
I-2
I-2
I1
I-2
I1
I-2
I0
I1
I-2
I1
I0
I-1
I1
I-1
I1
I-1
I0
I-1
I-2
I-1
I-1
I-1
I-2
I-2
I-1
I-2
I-2
I1
I-2
I-2
I-1
I1
I-2
I-1
I-1
I2
I2
I0
I2
I2
I-2
I-2
I-2
I-2
I1
I-1
I-1
I-2
I-2
I-2
I-1
I-2
I-2
I2
I2
I2
I0
I2
I1
I1
I2
I-2
I2
I-2
I1
I2
I-2
I0
I1
I-2
I1
I-1
I1
I1
I-1
I-1
I1
I-1
I-2
I-1
I1
I-1
I1
I2
I2
I2
I1
I2
I1
I1
I2
I1
I0
I-1
I2
I1
I0
I-1
I-1
I-2
I1
I-2
I1
I-2
I-2
I-2
I-2
I1
I2
I-1
I-2
I-2
I-2
I-2
I2
I2
I2
I-2
I-2
I0
I2
I2
I2
I2
I-2
I-1
I1
I-2
I2
I-2
I-1
I-1
I-2
I-1
I1
I-2
I1
I-2
I-2
I2
I-1
I-1
I-2
I-1
I-1
I-2
I2
I0
I1
I-1
I-1
I1
I-1
I2
I1
I-1
I-1
I0
I2
I1
I-1
I2
I1
I-1
I1
I2
I2
I1
I-2
I1
I0
I2
I2
I2
I2
I2
I1
I2
I2
I2
I2
I2
I-1
I2
I2
I-2
I2
I1
I1
I1
I-2
I1
I2
I-1
I0
I-1
I1
I2
I1
I2
I2
I0
I2
I1
I1
I2
I-2
I-2
I-2
I-2
I-2
I-2
I-2
I-2
I0
I-1
I-2
I2
I-1
I-1
I1
I1
I1
I-1
I-1
I1
I-1
I1
I1
I1
I1
I0
I-2
I1
I2
I2
I2
I2
I-2
I-2
I-2
I-2
I-1
I1
I2
I2
I-2
I-2
I1
I2
I2
I-1
I1
I1
I-2
I-1
I-1
I-1
I1
I-2
I-1
I2
I-1
I1
I-2
I2
I1
I-1
I1
I2
I-1
I-1
I-1
I0
I-1
I-1
I-2
I0
I-1
I-1
I-2
I-1
I1
I2
I-2
I-2
I-2
I-2
I-1
I-2
I-2
I1
tp16
sS'a713605d808e4c1c.jpg'
p17
(I1
I-2
I-1
I-1
I0
I-2
I-1
I-1
I0
I1
I-1
I-1
I-1
I-1
I1
I-2
I-1
I-1
I-1
I0
I-2
I-2
I-2
I0
I-2
I-1
I-2
I-1
I2
I-1
I2
I2
I2
I1
I-2
I2
I2
I2
I2
I2
I2
I2
I2
I1
I-1
I2
I1
I1
I1
I-1
I1
I-2
I1
I2
I1
I1
I2
I-1
I1
I1
I2
I1
I1
I1
I2
I-1
I0
I1
I0
I-1
I1
I2
I1
I0
I-1
I0
I-1
I-1
I2
I2
I-2
I1
I1
I1
I-1
I-1
I1
I-2
I-2
I-1
I-1
I-2
I-2
I-1
I-2
I-2
I-2
I1
I-2
I-2
I0
I-1
I-2
I-2
I2
I2
I2
I1
I2
I2
I1
I2
I-2
I-1
I-1
I-2
I1
I-2
I1
I2
I-2
I-2
I-1
I-1
I-1
I-1
I1
I1
I-1
I0
I0
I1
I-1
I2
I2
I2
I1
I1
I-1
I1
I-1
I2
I2
I-1
I1
I1
I2
I1
I-1
I2
I-1
I-2
I1
I2
I2
I1
I2
I1
I-1
I-2
I1
I0
I-2
I-2
I-1
I-2
I-2
I-2
I1
I-2
I1
I-2
I-2
I-1
I2
I2
I2
I1
I-2
I-1
I1
I-2
I2
I1
I-1
I-1
I-2
I-1
I-2
I-2
I1
I-2
I-2
I-2
I-2
I-2
I-2
I-1
I0
I-2
I-2
I-1
I-2
I-2
I-2
I0
I-2
I-2
I-1
I-2
I1
I1
I-1
I2
I-2
I2
I2
I-1
I2
I1
I2
I2
I-2
I2
I1
I-1
I2
I2
I2
I2
I1
I2
I2
I1
I2
I2
I-1
I2
I1
I-2
I-1
I-2
I-2
I-1
I-1
I1
I2
I2
I0
I-1
I1
I1
I1
I2
I2
I0
I1
I1
I1
I1
I2
I2
I2
I-1
I1
I0
I1
I-1
I1
I1
I-2
I-1
I-1
I-1
I-1
I-2
I2
I-2
I-2
I1
I-2
I-1
I-1
I-1
I1
I-1
I-2
I2
I-1
I2
I2
I1
I1
I-2
I-2
I1
I-1
I2
I2
I1
I-1
I-1
I1
I2
I2
I2
I1
I1
I-1
I2
I1
I-1
I-1
I-1
I1
I-2
I0
I2
I-1
I-1
I0
I-1
I1
I-1
I1
I1
I-1
I-1
I1
I-1
I-1
I1
I1
I1
I1
I1
I1
I1
I-1
I1
I1
I-1
I2
I1
I-2
I1
I0
I2
I-1
I-2
I1
I-2
I-2
I0
I-1
I0
I-2
I-2
I-1
I-2
I-2
I1
I-2
I-2
I-1
I-1
I-1
I-2
I2
I1
I1
I1
I2
I2
I2
I2
I-2
I0
I1
I-2
I2
I-1
I1
I2
I-2
I-1
I-1
I-2
I-1
I-1
I0
I1
I-1
I-1
I-1
I1
I0
I1
I1
I2
I-1
I-1
I-2
I0
I-2
I1
I2
I-2
I1
I1
I0
I2
I-2
I2
I0
I-2
I2
I2
I2
I2
I1
I2
I-1
I-2
I2
I1
I-1
I-1
I1
I-2
I-2
I-2
I1
I-1
I-1
I-2
I-2
I-2
I1
I2
I1
I1
I-2
I-1
I1
I-2
I1
I-1
I-1
I-2
I-2
I0
I-1
I-1
I1
I-2
I-2
I-2
I-1
I-1
I-1
I-1
I1
I-2
I-2
I-1
I-2
I-2
I-2
I-1
I-2
I-2
I-2
I-2
I2
I0
I-2
I2
I-2
I2
I-1
I0
I2
I1
I2
I2
I-2
I2
I2
I2
I2
I2
I2
I2
I1
I2
I2
I2
I2
I2
I-1
I2
I2
I-1
I1
I-1
I-1
I1
I2
I1
I-2
I2
I2
I2
I2
I1
I2
I2
I2
I-1
I1
I1
I2
I-2
I-1
I-2
I2
I1
I-2
I2
I0
I0
I-2
I-2
I0
I-1
I-2
I-2
I-2
I1
I-2
I-2
I-2
I2
tp18
sS'89878219a46cf205.jpg'
p19
(I-1
I-1
I-2
I1
I-2
I0
I-2
I-1
I2
I1
I-1
I1
I1
I-1
I-2
I0
I-1
I-2
I2
I2
I1
I1
I2
I-2
I-1
I-2
I1
I-1
I1
I-1
I1
I-1
I-1
I1
I1
I-1
I-1
I-2
I-1
I-1
I-2
I1
I0
I-2
I-2
I-1
I2
I2
I1
I2
I2
I0
I1
I2
I1
I-1
I0
I-2
I-1
I-1
I1
I2
I-1
I1
I-1
I1
I-1
I1
I2
I0
I2
I-1
I2
I1
I2
I2
I1
I2
I-2
I-1
I-1
I-2
I-2
I-1
I2
I2
I1
I1
I1
I2
I0
I2
I2
I1
I1
I1
I1
I0
I-1
I2
I1
I2
I2
I2
I1
I2
I2
I2
I0
I1
I1
I0
I1
I-1
I1
I-1
I1
I1
I-1
I1
I-2
I-1
I-1
I-1
I2
I-2
I-1
I-1
I-2
I-2
I-2
I-2
I-2
I-2
I-2
I-2
I0
I-1
I1
I2
I2
I1
I-2
I-2
I-2
I-2
I-2
I-2
I2
I-2
I-2
I-2
I-2
I-2
I-2
I-2
I-2
I-2
I-2
I-2
I-1
I-1
I-2
I2
I1
I-1
I-2
I-2
I-2
I-2
I-1
I-2
I-2
I-1
I-1
I-1
I1
I1
I0
I1
I2
I1
I1
I2
I2
I2
I-1
I1
I2
I-1
I0
I1
I1
I0
I1
I2
I-1
I0
I-2
I1
I0
I-2
I2
I2
I2
I2
I2
I2
I2
I2
I2
I2
I2
I-2
I2
I1
I2
I2
I2
I2
I1
I-2
I-2
I1
I0
I-1
I2
I2
I2
I2
I1
I2
I1
I2
I2
I2
I-1
I1
I2
I-1
I-2
I-1
I-2
I-2
I-1
I-2
I-1
I1
I-1
I-2
I-2
I0
I-2
I-1
I-1
I1
I-1
I-2
I1
I1
I0
I0
I-2
I1
I-2
I1
I2
I0
I2
I-2
I-1
I2
I2
I2
I2
I2
I-2
I-2
I-1
I-2
I-1
I-1
I1
I-1
I-2
I0
I-2
I1
I-1
I2
I-1
I-1
I1
I-2
I-1
I1
I1
I1
I-1
I-2
I-2
I-2
I-1
I-1
I-2
I2
I2
I-1
I-1
I-1
I2
I2
I2
I1
I2
I0
I0
I1
I0
I-1
I-1
I-2
I1
I-2
I-1
I0
I-1
I-2
I-2
I-1
I-2
I-2
I-1
I-2
I0
I-2
I1
I2
I1
I1
I-2
I1
I-2
I-1
I-2
I-1
I-2
I-2
I-1
I2
I1
I1
I-1
I2
I-1
I1
I2
I-2
I1
I1
I1
I1
I-2
I2
I-2
I1
I2
I2
I2
I1
I2
I1
I0
I0
I2
I0
I1
I0
I2
I0
I1
I2
I0
I1
I-1
I1
I2
I-1
I1
I-1
I0
I0
I0
I1
I-1
I-1
I-2
I-1
I-1
I-2
I2
I2
I2
I2
I2
I2
I-1
I2
I-1
I1
I-1
I-2
I2
I-2
I-1
I-1
I-2
I-2
I-2
I-2
I-2
I-2
I-2
I-2
I2
I2
I-1
I2
I2
I2
I1
I2
I-1
I-2
I-2
I-1
I-1
I-2
I-2
I-2
I1
I-1
I0
I0
I1
I2
I1
I2
I1
I2
I-1
I0
I1
I-1
I0
I-1
I1
I1
I0
I1
I-2
I0
I-2
I1
I0
I-2
I2
I1
I2
I2
I2
I2
I2
I2
I-2
I1
I2
I-2
I1
I-1
I2
I1
I1
I2
I-2
I-1
I-1
I1
I1
I-1
I2
I-1
I1
I1
I1
I2
I1
I1
I-2
I1
I-1
I0
I1
I-1
I-2
I-2
I1
I-1
I1
I2
I1
I-2
I-1
I-1
I-1
I-1
I-1
I0
I-2
I1
I-2
I2
I-2
I1
I2
I2
I-2
I-2
I-1
I-2
I-1
I-1
I-1
I-2
I1
I-1
I1
I-1
I0
I1
I1
I-1
I-1
I-1
tp20
sS'8a2d53d8a143e874.jpg'
p21
(I0
I-1
I-2
I0
I-1
I-1
I-2
I-1
I1
I-1
I0
I1
I0
I1
I2
I2
I1
I2
I-2
I-2
I-1
I0
I-1
I2
I2
I2
I1
I1
I-2
I-2
I-1
I-1
I1
I2
I2
I1
I2
I-1
I-2
I-1
I-2
I1
I1
I-1
I1
I-2
I2
I2
I0
I1
I1
I2
I-1
I-1
I1
I-1
I-2
I-1
I-1
I-2
I-2
I-2
I0
I-1
I1
I1
I1
I-1
I-1
I-2
I-2
I0
I-2
I-1
I-1
I-1
I-2
I-1
I1
I-1
I1
I1
I-1
I-2
I0
I-1
I-1
I1
I-1
I1
I2
I0
I-1
I-1
I-1
I-2
I1
I-2
I-2
I-2
I-2
I-1
I1
I2
I2
I1
I2
I-1
I-2
I-2
I1
I-1
I2
I1
I2
I2
I-1
I2
I1
I2
I1
I2
I1
I1
I1
I2
I2
I2
I1
I1
I1
I-1
I-1
I2
I2
I1
I2
I2
I2
I1
I1
I2
I2
I1
I1
I0
I0
I-1
I-1
I1
I-1
I2
I1
I1
I2
I1
I-1
I0
I2
I2
I1
I2
I-1
I1
I2
I2
I2
I2
I1
I-2
I-2
I2
I2
I-1
I-2
I-2
I-1
I-2
I1
I-1
I-2
I2
I1
I1
I-1
I-2
I-2
I-2
I-2
I-1
I0
I-1
I-2
I-1
I-2
I-2
I-2
I0
I-2
I-2
I-2
I-1
I-1
I-2
I-1
I2
I-2
I0
I1
I-2
I-1
I1
I0
I2
I2
I2
I-1
I2
I-2
I-2
I-2
I-2
I2
I-2
I0
I-1
I-2
I-2
I-2
I-2
I2
I-1
I-2
I-2
I-2
I-2
I-2
I-2
I-2
I1
I-1
I-1
I-2
I-1
I2
I1
I1
I1
I-1
I-2
I0
I0
I2
I2
I2
I1
I1
I1
I1
I1
I1
I2
I0
I-1
I1
I0
I0
I-1
I1
I-1
I-2
I-1
I-2
I-1
I-1
I-2
I2
I1
I2
I2
I2
I2
I1
I1
I-2
I0
I1
I-2
I-2
I-2
I-2
I-2
I1
I2
I2
I2
I0
I-1
I-1
I-2
I2
I2
I0
I-1
I-2
I2
I2
I1
I2
I0
I1
I0
I-1
I-1
I0
I2
I-2
I-2
I0
I-1
I0
I0
I0
I-2
I-2
I1
I-1
I0
I1
I0
I-1
I-2
I1
I0
I1
I1
I-2
I1
I-1
I1
I1
I1
I2
I-1
I2
I1
I0
I2
I1
I2
I-1
I2
I1
I0
I0
I1
I2
I1
I2
I1
I1
I0
I-1
I2
I1
I1
I2
I2
I1
I1
I2
I-2
I-2
I-2
I-1
I-2
I0
I2
I2
I2
I-1
I2
I2
I2
I2
I2
I2
I1
I2
I2
I2
I2
I-1
I-1
I-1
I-2
I-1
I1
I1
I-1
I0
I-1
I-2
I1
I0
I1
I-1
I-2
I-1
I-1
I-1
I0
I1
I-1
I-2
I-1
I-2
I-2
I-2
I-1
I-2
I-2
I-2
I-1
I-1
I-1
I-1
I2
I1
I0
I1
I2
I-1
I-2
I-1
I1
I2
I1
I-2
I-2
I-1
I-2
I2
I-2
I-2
I2
I2
I1
I-2
I1
I-2
I-2
I-1
I-2
I-1
I-2
I-2
I-2
I-2
I-1
I-1
I1
I-2
I-1
I-1
I-1
I1
I1
I1
I2
I-2
I1
I2
I-1
I2
I2
I2
I2
I2
I2
I1
I2
I1
I2
I0
I-2
I1
I-1
I1
I1
I1
I-1
I-1
I-1
I2
I0
I0
I-1
I-2
I-2
I-2
I-2
I-2
I1
I-1
I-2
I2
I2
I2
I2
I2
I-1
I2
I1
I-2
I0
I1
I1
I-1
I0
I1
I1
I-2
I-2
I-1
I-2
I1
I-1
I1
I2
I2
I-2
I-1
I0
I-2
I1
I-1
I0
I2
I-1
I-2
I1
I2
I2
tp22
sS'58db718e93275d63.jpg'
p23
(I-1
I-1
I0
I1
I2
I1
I1
I2
I-2
I1
I-2
I0
I2
I-1
I2
I-1
I2
I1
I-2
I-1
I0
I-1
I1
I1
I2
I1
I2
I0
I-2
I1
I1
I-2
I2
I-2
I-2
I-2
I1
I-2
I2
I2
I1
I1
I-1
I1
I1
I2
I0
I-1
I2
I-1
I2
I0
I2
I2
I-2
I0
I1
I-2
I2
I-2
I-2
I2
I-2
I-2
I0
I-2
I-1
I-2
I-1
I-2
I-1
I1
I-1
I1
I2
I0
I-1
I1
I-1
I-2
I-1
I-2
I-2
I-2
I-1
I-2
I0
I2
I2
I2
I2
I2
I-1
I2
I-2
I-1
I-2
I-2
I-2
I-2
I-1
I-2
I2
I-1
I2
I2
I1
I-1
I0
I2
I0
I1
I-2
I-2
I2
I-2
I0
I-2
I-1
I-1
I-2
I2
I2
I0
I2
I-1
I-1
I2
I-2
I1
I0
I-2
I-1
I-2
I1
I-1
I2
I1
I2
I1
I2
I1
I0
I2
I-1
I1
I-2
I-2
I-2
I-2
I-1
I-1
I2
I1
I2
I2
I2
I2
I2
I2
I-2
I1
I-2
I-2
I-1
I-2
I0
I0
I2
I-1
I1
I1
I1
I0
I2
I1
I-2
I2
I-1
I1
I1
I-1
I1
I-2
I1
I2
I1
I1
I2
I-1
I2
I1
I1
I2
I-2
I-1
I-1
I-2
I-1
I-2
I2
I0
I1
I0
I2
I1
I2
I2
I1
I0
I-2
I1
I-2
I-2
I0
I-1
I-2
I-2
I1
I-2
I2
I0
I2
I-1
I-1
I2
I-2
I0
I-1
I-2
I0
I-2
I1
I0
I0
I-1
I0
I1
I0
I2
I2
I2
I1
I2
I-2
I-1
I-1
I-2
I1
I-2
I-1
I1
I-2
I-1
I2
I-1
I2
I-1
I0
I2
I-2
I-2
I-2
I-2
I-2
I-2
I-2
I-2
I0
I-1
I1
I2
I-1
I0
I-1
I-1
I0
I2
I1
I1
I0
I1
I0
I1
I2
I1
I2
I0
I2
I0
I1
I2
I-2
I-1
I-1
I-2
I-1
I-2
I-2
I-2
I0
I0
I1
I-1
I-1
I-1
I2
I2
I0
I2
I-2
I1
I1
I-2
I1
I-2
I0
I2
I-1
I0
I2
I-1
I2
I-1
I1
I2
I-2
I2
I0
I-2
I-1
I-2
I-1
I0
I2
I1
I-1
I1
I-1
I-1
I0
I1
I1
I0
I0
I1
I1
I1
I1
I2
I-1
I-1
I2
I-1
I2
I1
I2
I2
I-2
I2
I1
I-2
I-1
I-1
I-1
I0
I2
I1
I1
I0
I0
I0
I2
I2
I-1
I2
I-2
I0
I1
I-2
I2
I-2
I2
I2
I-2
I-1
I2
I-2
I2
I0
I1
I2
I-2
I1
I1
I-2
I1
I-2
I1
I1
I0
I0
I-1
I-1
I1
I0
I1
I-1
I-1
I-1
I-1
I-1
I1
I0
I-1
I1
I-2
I-2
I1
I-1
I0
I-2
I-1
I1
I-2
I1
I0
I0
I1
I-1
I1
I0
I0
I0
I-1
I0
I-1
I1
I2
I2
I1
I2
I-2
I-2
I0
I-2
I1
I-2
I-1
I-1
I-2
I-1
I2
I-1
I2
I-2
I-1
I1
I-2
I-1
I0
I-2
I1
I-2
I-2
I1
I-1
I-1
I0
I-1
I-1
I-2
I0
I-2
I1
I1
I2
I1
I1
I1
I-1
I2
I-1
I1
I1
I-2
I1
I-2
I0
I1
I-1
I-1
I0
I-1
I-1
I-1
I0
I-1
I0
I1
I1
I1
I-1
I-1
I2
I2
I-2
I1
I2
I-2
I1
I1
I1
I2
I-1
I2
I-1
I2
I2
I-2
I2
I-1
I0
I-1
I-2
I-2
I2
I1
I2
I2
I2
I-2
I0
I1
I-2
I1
I-1
I0
I-1
I-1
I-2
I1
I1
I2
tp24
sS'9068f23d688d374a.jpg'
p25
(I2
I2
I2
I-2
I0
I0
I-2
I-1
I0
I1
I-2
I-1
I-1
I-1
I-1
I-2
I-1
I0
I1
I-1
I-1
I1
I0
I1
I-1
I2
I1
I-2
I1
I0
I2
I-1
I0
I0
I-2
I-1
I0
I-1
I2
I2
I2
I-2
I0
I-2
I-2
I-2
I-2
I2
I2
I2
I1
I1
I0
I2
I1
I1
I1
I-1
I1
I-1
I2
I2
I1
I1
I1
I-1
I1
I2
I2
I2
I0
I-1
I-2
I-1
I-1
I2
I2
I1
I0
I-1
I-2
I1
I-2
I2
I2
I-2
I2
I1
I1
I2
I1
I2
I1
I-1
I0
I0
I-2
I-1
I-1
I0
I-2
I-1
I1
I-2
I1
I-1
I0
I2
I-1
I-1
I-2
I0
I2
I0
I1
I1
I2
I-2
I1
I-1
I-2
I-2
I-2
I-2
I1
I-2
I-2
I-2
I-2
I-2
I-2
I-1
I1
I-2
I-2
I-2
I-2
I-2
I-2
I-1
I-1
I-2
I-2
I-2
I-1
I-2
I-2
I1
I-2
I-2
I-2
I-2
I2
I-1
I0
I2
I-2
I1
I-1
I-2
I1
I2
I1
I2
I1
I1
I-1
I1
I1
I0
I-1
I-1
I1
I2
I2
I2
I0
I2
I0
I-1
I2
I-2
I-1
I-2
I2
I2
I1
I2
I2
I1
I2
I2
I2
I2
I2
I2
I2
I-2
I-1
I1
I1
I1
I2
I2
I2
I1
I-1
I1
I1
I-1
I2
I2
I-1
I1
I-2
I2
I-1
I-2
I2
I1
I-1
I2
I-2
I1
I-1
I1
I2
I1
I1
I2
I1
I2
I2
I-1
I-1
I-1
I-2
I1
I-2
I0
I2
I2
I2
I2
I-2
I-2
I-2
I-2
I0
I-1
I-2
I-2
I-2
I-2
I-1
I0
I-1
I-2
I-2
I-1
I-2
I-1
I-1
I1
I0
I-1
I-1
I2
I-1
I-1
I-2
I0
I-2
I-1
I2
I1
I1
I1
I-1
I2
I-1
I2
I2
I-1
I2
I1
I-2
I1
I1
I2
I1
I-1
I-1
I-2
I-1
I-1
I-2
I-1
I-1
I-1
I1
I2
I2
I2
I2
I-2
I1
I-2
I-2
I-2
I-2
I2
I2
I2
I1
I0
I-2
I2
I2
I2
I1
I-1
I1
I-2
I1
I2
I1
I1
I1
I-1
I2
I1
I2
I1
I-2
I-2
I-2
I-2
I-2
I-2
I-2
I-2
I-1
I-2
I-2
I2
I-2
I-1
I-1
I-2
I1
I-1
I1
I2
I-1
I2
I1
I1
I1
I1
I-2
I1
I0
I2
I1
I1
I1
I-2
I0
I1
I1
I2
I0
I-2
I-2
I-1
I2
I2
I2
I2
I2
I-2
I2
I2
I-2
I-1
I-1
I-2
I1
I-2
I-1
I1
I-2
I-2
I2
I-1
I-1
I-2
I-1
I-1
I-1
I2
I1
I1
I0
I1
I-1
I-1
I2
I1
I-2
I0
I-2
I-1
I-1
I-2
I2
I-1
I-2
I2
I-1
I1
I-1
I-2
I-1
I-1
I-1
I1
I0
I-1
I-2
I-2
I-1
I-1
I0
I-1
I-2
I2
I2
I2
I2
I2
I1
I-2
I2
I-2
I2
I-1
I2
I2
I-2
I1
I2
I-2
I2
I1
I1
I2
I-1
I1
I-1
I-2
I-1
I-1
I0
I1
I1
I1
I1
I1
I-1
I1
I1
I-2
I1
I1
I-1
I1
I-2
I2
I-1
I-2
I2
I1
I1
I2
I-1
I1
I1
I1
I2
I2
I1
I1
I-1
I1
I1
I-1
I2
I2
I1
I2
I-1
I-2
I1
I2
I-2
I-2
I-1
I-2
I-1
I-2
I-1
I1
I1
I1
I-2
I0
I-1
I-1
I1
I-1
I-1
I-2
I-1
I-2
I2
I1
I-1
I2
I-1
I2
I-1
I-1
I1
I0
I-1
I-1
I-2
I0
I-2
I1
I1
I2
tp26
sS'5c5c6984012078f5.jpg'
p27
(I-1
I2
I-1
I1
I0
I2
I-1
I-1
I0
I0
I-1
I0
I-2
I0
I-1
I0
I-2
I-2
I1
I2
I-1
I-1
I-2
I-2
I1
I-2
I-2
I-2
I-1
I-2
I-2
I-2
I-2
I2
I1
I-1
I-1
I-1
I-1
I-1
I-2
I-2
I-2
I-2
I0
I-2
I1
I1
I1
I2
I0
I2
I0
I0
I1
I0
I0
I0
I-2
I0
I-1
I-2
I2
I2
I1
I2
I0
I2
I-1
I-1
I2
I1
I2
I0
I-1
I-1
I-1
I-1
I2
I2
I2
I1
I2
I1
I0
I2
I2
I2
I1
I-2
I-1
I-2
I0
I-1
I2
I1
I1
I1
I0
I1
I-1
I2
I1
I2
I0
I-1
I2
I0
I-2
I-2
I-2
I-2
I2
I0
I0
I2
I-1
I-1
I-1
I2
I0
I1
I-2
I1
I-2
I-1
I2
I-1
I2
I1
I1
I2
I1
I2
I2
I2
I1
I1
I-1
I-1
I0
I1
I2
I2
I1
I0
I2
I0
I2
I2
I2
I2
I-2
I0
I-1
I-2
I-1
I1
I0
I1
I1
I1
I1
I1
I2
I1
I1
I2
I-2
I-2
I-2
I-1
I0
I2
I1
I-1
I1
I1
I2
I1
I1
I1
I2
I2
I2
I-1
I-2
I-2
I-2
I-2
I-2
I-1
I-2
I-2
I1
I-2
I-1
I2
I1
I0
I2
I1
I-2
I-2
I-2
I-1
I1
I1
I-1
I0
I-2
I-2
I-1
I-1
I-1
I-2
I-1
I1
I-2
I0
I-1
I1
I1
I0
I2
I1
I-1
I-1
I1
I-1
I1
I1
I0
I0
I-2
I0
I-1
I-1
I-1
I-1
I-2
I0
I2
I0
I-1
I-2
I1
I0
I-2
I2
I0
I-1
I1
I2
I0
I2
I2
I2
I1
I-2
I2
I-2
I-1
I-2
I-1
I-1
I-2
I-1
I-1
I1
I2
I1
I1
I-2
I0
I-2
I0
I1
I0
I-1
I1
I-1
I-2
I-1
I-1
I-2
I-1
I-1
I-1
I-2
I-2
I-2
I-1
I0
I1
I1
I0
I-1
I-1
I-1
I0
I1
I0
I-1
I-1
I-2
I-2
I-2
I-1
I-1
I0
I0
I-2
I2
I-1
I1
I1
I-1
I1
I-1
I1
I1
I-2
I2
I0
I-2
I1
I2
I2
I2
I2
I2
I0
I2
I1
I0
I1
I-2
I-2
I-2
I1
I-1
I2
I2
I2
I2
I2
I2
I1
I2
I1
I2
I1
I-2
I1
I-1
I0
I-1
I2
I1
I1
I-1
I-1
I-1
I-1
I2
I1
I1
I1
I-1
I2
I1
I-1
I1
I-2
I-2
I1
I-1
I-2
I-1
I-2
I-2
I-2
I-2
I1
I0
I-2
I2
I-2
I-1
I1
I-2
I2
I0
I2
I2
I2
I2
I1
I2
I-2
I-1
I-2
I-2
I-2
I-2
I0
I2
I1
I-1
I1
I2
I1
I2
I2
I2
I-2
I0
I1
I-1
I-1
I2
I2
I2
I1
I1
I1
I1
I2
I2
I2
I2
I-2
I-2
I-2
I-1
I-1
I2
I2
I0
I2
I1
I2
I2
I1
I0
I1
I1
I1
I-1
I2
I-1
I-2
I-1
I-2
I-1
I-2
I-1
I2
I-1
I2
I2
I2
I1
I2
I-1
I-2
I0
I-2
I-2
I2
I1
I-2
I-2
I-2
I-2
I-2
I-2
I1
I-2
I-2
I-1
I-2
I-2
I-2
I-1
I-1
I-2
I-2
I-2
I-2
I-2
I1
I1
I-1
I-1
I-2
I-1
I-2
I1
I1
I-1
I-1
I-2
I-1
I-1
I-1
I-1
I1
I1
I-2
I1
I2
I-1
I2
I2
I1
I-2
I-1
I-2
I-2
I1
I2
I2
I2
I-1
I2
I2
I2
I1
I2
I1
I2
I1
I-2
I-1
I2
I2
I1
I1
I1
I1
I1
I-1
tp28
sS'ea4f92e7780a79c1.jpg'
p29
(I2
I2
I1
I-2
I1
I0
I-1
I-1
I-1
I-1
I-2
I-2
I1
I1
I-1
I-2
I1
I-1
I1
I1
I2
I0
I1
I-1
I1
I-1
I-1
I0
I-1
I-2
I-1
I-1
I-1
I2
I2
I2
I2
I2
I-2
I0
I1
I-2
I0
I-1
I1
I-1
I-1
I1
I2
I1
I0
I2
I1
I0
I1
I2
I2
I0
I2
I1
I1
I2
I-1
I-1
I-2
I-2
I-2
I-2
I-2
I-2
I1
I0
I1
I2
I0
I1
I0
I-1
I-1
I1
I1
I0
I1
I0
I-1
I-1
I0
I1
I-2
I-1
I0
I-1
I-2
I-2
I1
I-2
I0
I0
I1
I-2
I-2
I-1
I-2
I-1
I-2
I-2
I-2
I-1
I-2
I-2
I-2
I1
I1
I-1
I-1
I2
I-1
I-1
I2
I2
I0
I-1
I2
I1
I1
I2
I2
I2
I-2
I2
I-1
I-1
I-1
I2
I1
I1
I2
I0
I0
I1
I-1
I2
I2
I1
I1
I1
I1
I1
I-1
I2
I2
I-2
I1
I2
I2
I1
I0
I2
I-1
I-2
I2
I2
I2
I0
I1
I-1
I-2
I1
I1
I2
I-1
I-2
I-1
I2
I1
I2
I0
I1
I-1
I-2
I-2
I-2
I0
I-2
I-2
I-2
I-2
I-2
I-2
I0
I-1
I-2
I-2
I-1
I-2
I-1
I-2
I1
I0
I-2
I-1
I-2
I-1
I-2
I-2
I0
I-1
I-1
I-2
I-1
I-1
I-2
I-2
I1
I-2
I-1
I-1
I-1
I2
I1
I1
I2
I-1
I2
I2
I2
I2
I2
I2
I1
I2
I2
I2
I2
I-1
I1
I-2
I1
I1
I0
I2
I1
I1
I1
I-1
I2
I2
I-1
I1
I1
I1
I1
I2
I2
I2
I-1
I1
I-1
I-1
I2
I1
I1
I1
I-1
I-1
I-1
I2
I-1
I2
I2
I1
I1
I1
I2
I1
I-2
I1
I1
I-2
I-1
I-1
I0
I-2
I1
I1
I-2
I-2
I1
I-1
I-2
I1
I0
I-2
I-2
I-1
I1
I1
I1
I1
I2
I-2
I-1
I-1
I-1
I2
I-1
I-1
I-1
I2
I1
I-1
I-1
I1
I1
I0
I2
I1
I2
I-1
I1
I1
I0
I2
I1
I2
I2
I-2
I-2
I-2
I-2
I-2
I-1
I-2
I-1
I1
I-1
I0
I2
I-2
I1
I2
I-2
I2
I2
I2
I2
I2
I2
I1
I-1
I-1
I-1
I-1
I-2
I-1
I-2
I-2
I-2
I0
I-1
I1
I1
I2
I-2
I-2
I-1
I-2
I-2
I-2
I-2
I-2
I-2
I-2
I-1
I-2
I0
I-1
I-1
I-1
I1
I2
I-1
I1
I1
I-2
I-2
I1
I-2
I-1
I-1
I-1
I-2
I-2
I2
I-1
I1
I1
I0
I-2
I1
I1
I-2
I-2
I-1
I-2
I-2
I0
I-1
I2
I-1
I2
I2
I-2
I2
I2
I1
I1
I2
I2
I2
I0
I2
I2
I-2
I2
I2
I2
I0
I1
I2
I-2
I2
I1
I2
I-1
I-2
I2
I2
I1
I2
I1
I1
I0
I-1
I1
I-2
I0
I-2
I-2
I-2
I-1
I1
I0
I0
I-2
I-2
I-2
I-1
I2
I2
I2
I2
I2
I-1
I1
I1
I-1
I0
I-2
I-2
I-1
I-2
I-2
I-1
I1
I-2
I-2
I1
I-1
I-1
I-1
I-2
I-1
I-2
I-2
I1
I-2
I1
I-1
I1
I2
I2
I2
I2
I2
I2
I2
I2
I-2
I-2
I-2
I1
I1
I-1
I2
I0
I-1
I2
I2
I0
I-2
I2
I2
I1
I2
I2
I1
I-1
I2
I-2
I-1
I-1
I2
I1
I1
I1
I1
I1
I-1
I-1
I-2
I2
I1
I-2
I2
I2
I-1
I-2
I-1
I-2
I1
I-2
I-1
I-1
tp30
sS'8696260f8c4ebe51.jpg'
p31
(I0
I-1
I-1
I0
I0
I-1
I-1
I-2
I0
I1
I-1
I-2
I-2
I-1
I-1
I-2
I-2
I-2
I1
I1
I-2
I-2
I-2
I-1
I-1
I-2
I-2
I-2
I1
I-1
I-2
I-1
I-1
I1
I-2
I-1
I-1
I-2
I2
I2
I1
I1
I1
I-1
I-2
I-2
I1
I1
I1
I1
I-2
I-2
I-2
I-2
I2
I2
I2
I2
I-1
I-1
I0
I2
I2
I2
I2
I1
I1
I1
I2
I2
I2
I2
I2
I-1
I-1
I1
I2
I1
I2
I2
I2
I1
I2
I2
I1
I-1
I2
I1
I1
I-2
I1
I-1
I-2
I-2
I1
I1
I-2
I-1
I-1
I-2
I-2
I-1
I2
I-1
I1
I-2
I0
I2
I2
I0
I2
I2
I2
I2
I1
I0
I1
I2
I2
I2
I2
I0
I-1
I-1
I2
I2
I1
I1
I-2
I-2
I-1
I-2
I1
I-1
I0
I-1
I-2
I-2
I-2
I-1
I-2
I-1
I-1
I-1
I-1
I-1
I1
I2
I-1
I1
I1
I2
I1
I2
I2
I1
I-1
I1
I2
I2
I2
I2
I2
I1
I2
I2
I2
I2
I1
I0
I-2
I1
I-1
I-2
I-2
I1
I2
I1
I-2
I-2
I-2
I-1
I-1
I1
I1
I1
I-2
I-1
I1
I1
I1
I2
I2
I2
I-1
I0
I1
I-1
I-1
I2
I2
I1
I1
I1
I-1
I1
I0
I2
I2
I2
I1
I-1
I-2
I0
I2
I2
I2
I2
I-2
I-2
I-2
I-2
I-1
I1
I0
I1
I-2
I-2
I-1
I1
I-2
I1
I2
I-1
I-2
I1
I2
I2
I1
I-2
I-2
I-1
I-1
I-2
I-1
I-1
I-2
I1
I1
I-1
I-2
I-2
I-1
I-2
I-2
I-1
I1
I-2
I-2
I-2
I-2
I-2
I-2
I-1
I-1
I-2
I-2
I-2
I-1
I-2
I-2
I1
I1
I-2
I-2
I-2
I-2
I-2
I-1
I-1
I0
I-2
I-2
I-2
I-2
I0
I-1
I0
I1
I-2
I-2
I-1
I-1
I-2
I-2
I-1
I-2
I-2
I-2
I-2
I1
I-1
I2
I1
I1
I1
I1
I-2
I-2
I-2
I2
I2
I2
I2
I-2
I-1
I-1
I1
I2
I2
I2
I2
I2
I2
I2
I2
I2
I2
I2
I-2
I1
I0
I2
I2
I2
I2
I2
I-1
I-1
I2
I2
I1
I2
I2
I2
I1
I-1
I2
I2
I1
I2
I2
I2
I1
I2
I2
I1
I1
I1
I2
I-1
I-2
I-1
I-1
I-2
I-2
I2
I-1
I1
I-2
I-2
I2
I1
I1
I2
I2
I2
I1
I-2
I-1
I1
I2
I2
I2
I-1
I-2
I0
I-1
I2
I2
I2
I2
I-2
I-2
I-2
I-2
I0
I0
I0
I-1
I-2
I-2
I-2
I0
I-1
I0
I-1
I1
I-1
I-2
I-2
I1
I-1
I0
I1
I2
I-1
I-1
I1
I1
I-1
I2
I2
I2
I-1
I2
I2
I1
I0
I2
I2
I1
I2
I2
I0
I2
I1
I-2
I-2
I1
I1
I1
I-2
I-2
I-2
I-1
I-1
I1
I0
I1
I-2
I-2
I0
I1
I-1
I1
I1
I-1
I-2
I0
I0
I1
I-1
I1
I0
I1
I1
I1
I0
I1
I1
I1
I1
I1
I-1
I-1
I-2
I-1
I1
I0
I0
I1
I-2
I-2
I-2
I-1
I-1
I-1
I-1
I0
I-2
I-2
I-2
I1
I-2
I1
I1
I-1
I-1
I-1
I2
I2
I1
I-1
I-1
I-1
I-1
I0
I-1
I1
I1
I-1
I-1
I-1
I-1
I-1
I1
I0
I-1
I1
I1
I-1
I-1
I0
I-1
I0
I-1
I0
I1
I0
I1
I-1
I1
I-1
I-1
I1
I0
I-1
I-2
I-1
I-2
I1
I-1
I2
tp32
sS'55479f5cf9e741e6.jpg'
p33
(I-2
I-1
I0
I2
I-2
I1
I2
I-2
I2
I-1
I2
I2
I-1
I1
I2
I2
I0
I2
I-2
I-1
I-2
I0
I-2
I1
I0
I1
I-1
I0
I0
I1
I-1
I0
I1
I-1
I2
I-2
I-1
I2
I-2
I-2
I1
I1
I-1
I1
I1
I0
I0
I-2
I-2
I-1
I-2
I0
I0
I-2
I2
I-2
I-2
I2
I-2
I2
I-1
I-2
I1
I0
I2
I2
I2
I2
I1
I2
I-2
I0
I-1
I-2
I-2
I-2
I-1
I-2
I2
I1
I1
I2
I1
I1
I0
I1
I0
I0
I2
I-1
I1
I-1
I0
I0
I-1
I1
I2
I-1
I2
I-1
I-1
I2
I-2
I-1
I-2
I-2
I-1
I-1
I0
I-1
I0
I0
I0
I0
I-2
I1
I-2
I0
I0
I-2
I2
I1
I-2
I2
I-1
I2
I-1
I-2
I2
I-1
I2
I1
I2
I0
I-2
I1
I-2
I1
I-1
I-2
I-1
I-2
I-1
I0
I2
I0
I1
I1
I1
I-1
I1
I2
I-1
I0
I1
I-1
I-1
I0
I1
I2
I0
I1
I2
I1
I2
I1
I2
I2
I-2
I1
I-2
I-2
I-2
I0
I0
I0
I0
I0
I0
I0
I-2
I0
I-2
I0
I-1
I-2
I2
I1
I0
I2
I-2
I2
I-1
I-2
I2
I2
I2
I2
I2
I2
I0
I2
I-1
I1
I1
I-2
I1
I-2
I1
I2
I0
I-1
I0
I-1
I1
I0
I1
I1
I-2
I-1
I-1
I-1
I1
I1
I0
I-1
I-2
I-2
I2
I-1
I0
I-1
I-2
I1
I-2
I2
I0
I-2
I0
I0
I0
I-1
I1
I-1
I0
I1
I-2
I1
I-2
I1
I-1
I-2
I2
I1
I-2
I2
I-2
I2
I-1
I-1
I2
I0
I2
I2
I2
I1
I1
I2
I-2
I-1
I0
I-2
I1
I-2
I1
I2
I-2
I-1
I-1
I-1
I-1
I0
I1
I0
I-1
I0
I1
I1
I-1
I1
I1
I-2
I1
I2
I2
I1
I2
I1
I-1
I2
I-1
I0
I-2
I-2
I1
I-1
I-1
I-1
I0
I-2
I1
I1
I-2
I1
I-2
I1
I-1
I-2
I2
I1
I-1
I2
I-1
I2
I2
I-1
I1
I-1
I2
I1
I2
I2
I0
I2
I-2
I-1
I0
I-2
I1
I-2
I1
I0
I-2
I-1
I-2
I-1
I-1
I-1
I-1
I-1
I0
I-1
I-1
I1
I-2
I-1
I-1
I-1
I2
I1
I2
I2
I2
I2
I2
I2
I-2
I-1
I-2
I-2
I0
I0
I-1
I-2
I0
I-1
I2
I1
I-2
I2
I-2
I2
I1
I-2
I2
I-2
I-2
I2
I-2
I2
I-1
I-2
I1
I0
I2
I2
I2
I2
I0
I2
I-2
I-1
I1
I-2
I-1
I-2
I0
I-2
I0
I1
I1
I1
I0
I1
I-1
I-1
I1
I1
I-2
I0
I0
I-1
I-1
I-1
I1
I-2
I2
I0
I2
I-1
I-1
I2
I-2
I0
I-2
I-2
I0
I0
I-2
I-1
I-1
I-2
I1
I-1
I-2
I1
I-2
I0
I-1
I-2
I2
I1
I-2
I2
I-2
I2
I-2
I-1
I2
I0
I2
I2
I2
I1
I1
I2
I-2
I0
I-1
I-2
I-1
I-2
I-1
I-1
I1
I1
I1
I1
I-1
I0
I0
I0
I1
I1
I1
I1
I0
I1
I1
I1
I1
I1
I2
I0
I2
I1
I1
I2
I-2
I0
I-2
I-2
I-1
I1
I0
I-1
I2
I1
I-2
I1
I-2
I2
I2
I-1
I2
I1
I1
I-1
I2
I-1
I2
I-2
I1
I0
I-2
I0
I1
I0
I-1
I0
I0
I0
I-1
I-1
I0
I0
I-1
I-1
I2
I0
I2
I-2
I1
I-2
tp34
sS'5fd53b1ccda58312.jpg'
p35
(I1
I2
I-1
I-1
I2
I2
I-1
I1
I-2
I-2
I-2
I-2
I-1
I2
I-1
I1
I2
I2
I1
I2
I2
I2
I1
I-2
I-1
I1
I-2
I-2
I1
I-2
I-1
I-2
I-2
I2
I-1
I1
I1
I0
I1
I2
I1
I-2
I-2
I-2
I1
I1
I1
I1
I2
I2
I2
I2
I2
I2
I-1
I2
I-1
I-2
I2
I2
I1
I2
I1
I-2
I-2
I-2
I1
I-1
I1
I1
I-2
I-2
I-1
I-1
I-2
I1
I1
I1
I-1
I2
I1
I2
I-1
I2
I2
I1
I2
I2
I-1
I1
I1
I2
I2
I0
I2
I-1
I-2
I-1
I-1
I1
I-1
I1
I0
I-1
I1
I1
I2
I-1
I-2
I0
I-1
I-1
I-1
I-2
I-2
I0
I-1
I-1
I-1
I-1
I-2
I-2
I1
I1
I2
I-1
I0
I-2
I-2
I-1
I-1
I-2
I0
I-2
I-2
I-2
I-1
I-1
I-2
I0
I1
I-2
I-2
I-2
I-1
I-2
I-2
I-1
I-2
I-2
I-2
I-1
I-1
I-2
I-1
I2
I-1
I1
I2
I-2
I0
I1
I-1
I1
I1
I2
I-1
I-1
I-1
I-2
I-1
I-1
I-2
I1
I1
I0
I-2
I-2
I1
I1
I1
I0
I1
I-2
I-2
I1
I1
I0
I2
I-1
I-2
I-2
I0
I-1
I2
I2
I2
I2
I2
I2
I2
I1
I2
I2
I2
I-2
I1
I1
I-2
I1
I2
I2
I-1
I-1
I1
I-2
I-1
I-1
I1
I-2
I-2
I-1
I-2
I-1
I-1
I-2
I2
I1
I1
I2
I-1
I2
I0
I-1
I1
I2
I1
I1
I0
I2
I2
I-1
I2
I1
I2
I2
I2
I1
I2
I2
I1
I1
I-1
I0
I-2
I-2
I-1
I-2
I-2
I1
I1
I-2
I-1
I1
I-2
I-2
I1
I2
I-1
I2
I2
I2
I2
I2
I2
I2
I-1
I1
I1
I-2
I0
I2
I-1
I-2
I1
I1
I-2
I0
I-2
I-1
I-2
I-2
I2
I0
I-1
I2
I-1
I0
I1
I-1
I1
I0
I1
I1
I1
I-2
I-2
I-2
I1
I1
I-1
I-1
I2
I2
I0
I2
I2
I1
I-1
I2
I2
I0
I2
I2
I1
I2
I-1
I-1
I-2
I-2
I1
I-2
I1
I1
I-2
I-2
I-2
I-1
I-2
I-1
I-1
I0
I-2
I1
I1
I2
I-2
I2
I2
I1
I2
I2
I0
I2
I1
I2
I2
I1
I2
I-1
I-1
I-1
I-1
I2
I1
I0
I1
I-1
I1
I1
I1
I-1
I-2
I1
I-2
I-2
I-1
I-2
I-2
I-1
I-2
I-2
I-2
I-1
I-1
I-1
I2
I2
I2
I-1
I1
I-2
I-2
I-1
I1
I-2
I-1
I-1
I-2
I-2
I-1
I1
I-2
I1
I1
I-2
I-2
I-1
I0
I-2
I-2
I-1
I-2
I-2
I-2
I-2
I-1
I-2
I-2
I2
I-2
I-1
I-1
I-2
I-1
I-1
I-1
I2
I-1
I2
I-1
I-2
I0
I-1
I1
I-1
I-2
I2
I2
I1
I1
I-1
I2
I2
I1
I-1
I2
I-1
I-2
I1
I1
I-1
I1
I-2
I-2
I-2
I-1
I1
I2
I2
I2
I2
I2
I2
I2
I1
I2
I2
I2
I-2
I2
I2
I-1
I1
I1
I2
I1
I-2
I-1
I-2
I-1
I-1
I2
I1
I-2
I1
I-2
I-1
I-1
I-2
I2
I1
I1
I2
I-1
I2
I1
I-1
I2
I1
I1
I2
I1
I-1
I1
I-1
I1
I2
I2
I1
I2
I-1
I1
I-2
I-2
I2
I-1
I-2
I-2
I-2
I-2
I-1
I1
I2
I2
I2
I-1
I1
I1
I-2
I-1
I1
I1
I-2
I1
I-1
I2
I-1
I-2
I1
I-1
I1
I-1
I1
tp36
sS'42b3c454714fba23.jpg'
p37
(I0
I-1
I2
I0
I-1
I-1
I2
I1
I1
I0
I2
I1
I1
I0
I1
I1
I1
I1
I-1
I0
I0
I-1
I-1
I0
I1
I-1
I-1
I0
I-1
I0
I-1
I-1
I1
I0
I0
I-1
I1
I1
I0
I1
I1
I1
I1
I2
I-1
I-1
I-2
I-2
I-2
I-2
I-2
I-2
I-2
I-2
I-1
I-1
I-1
I2
I1
I-2
I-2
I-2
I-1
I-1
I0
I-1
I-1
I-2
I-2
I-2
I-1
I1
I1
I1
I-1
I-2
I-2
I-2
I1
I1
I1
I1
I1
I-1
I-1
I-1
I0
I1
I1
I-1
I1
I-2
I-2
I-2
I-1
I-1
I-1
I-1
I0
I-2
I-2
I-2
I-1
I-1
I0
I-2
I-2
I1
I2
I-1
I1
I1
I1
I2
I2
I1
I0
I1
I2
I2
I2
I2
I2
I0
I0
I1
I1
I-1
I2
I2
I2
I0
I0
I1
I-1
I-2
I2
I2
I1
I0
I0
I-1
I-2
I-2
I2
I1
I2
I0
I1
I-2
I-2
I-2
I1
I2
I2
I-1
I0
I-2
I-2
I-2
I2
I2
I2
I0
I-1
I-2
I-2
I-1
I2
I2
I1
I-1
I0
I-1
I-1
I1
I0
I-1
I-1
I-2
I-1
I-1
I0
I-1
I-1
I1
I-2
I-1
I-1
I0
I-2
I-1
I1
I2
I1
I1
I1
I2
I-2
I2
I2
I2
I2
I2
I2
I2
I0
I2
I2
I2
I2
I2
I2
I0
I-1
I2
I2
I2
I2
I2
I2
I1
I2
I2
I2
I2
I2
I2
I1
I-2
I1
I2
I2
I2
I1
I0
I-1
I2
I2
I0
I1
I-1
I1
I1
I1
I1
I1
I1
I2
I1
I2
I2
I-1
I-1
I-2
I-2
I1
I0
I1
I1
I-2
I-2
I-2
I-1
I-1
I-1
I-1
I-2
I-2
I-2
I-2
I1
I-1
I1
I-1
I-2
I-2
I-2
I-2
I1
I0
I0
I-1
I1
I-2
I-2
I-2
I0
I0
I-1
I1
I1
I-2
I-2
I-2
I0
I0
I0
I1
I1
I-2
I-2
I0
I1
I1
I-1
I-1
I1
I-1
I-2
I-1
I-2
I0
I-1
I1
I-1
I-2
I-2
I-2
I-1
I1
I-1
I0
I-2
I-2
I-2
I-1
I1
I-1
I0
I-1
I-2
I-2
I-2
I2
I1
I0
I1
I-1
I-2
I-2
I-2
I1
I1
I1
I1
I1
I-2
I-2
I-2
I-1
I-1
I0
I-1
I1
I-2
I-2
I-2
I-1
I-1
I-1
I-1
I1
I-2
I-2
I-2
I-1
I-1
I-1
I-2
I-2
I1
I1
I-2
I1
I1
I2
I2
I2
I2
I-1
I2
I2
I2
I2
I2
I2
I1
I1
I2
I2
I2
I2
I2
I2
I-1
I0
I2
I2
I2
I2
I2
I2
I0
I1
I2
I2
I2
I2
I2
I2
I-1
I-1
I2
I2
I2
I2
I2
I2
I1
I-1
I2
I2
I2
I2
I2
I2
I1
I0
I2
I2
I2
I2
I2
I0
I2
I2
I-1
I-2
I-1
I-1
I0
I-1
I-2
I-2
I1
I-1
I-1
I1
I1
I-2
I-2
I-2
I1
I0
I1
I1
I2
I-2
I-2
I-2
I0
I-1
I1
I2
I1
I-2
I-2
I-2
I1
I-1
I2
I2
I1
I-2
I-2
I-2
I1
I-1
I2
I2
I2
I-2
I-2
I-2
I1
I1
I2
I2
I2
I-2
I-2
I-2
I-1
I1
I1
I1
I1
I-2
I-2
I-1
I-1
I-1
I1
I1
I1
I0
I-1
I-1
I-1
I1
I-1
I-1
I-1
I-1
I1
I-2
I-2
I-2
I-1
I-1
I-1
I-2
I-2
I1
I-1
I-1
I-2
I-2
I1
I0
I-2
I-2
I-1
I0
I0
I-2
I-1
I1
I0
I0
I-1
I1
I0
tp38
sS'cd0baa8da5a274db.jpg'
p39
(I-1
I1
I1
I1
I1
I1
I1
I1
I-1
I1
I0
I0
I-1
I-1
I-1
I-1
I-2
I-2
I1
I1
I-2
I-2
I-1
I-1
I-1
I-2
I-1
I-2
I1
I2
I-1
I-1
I0
I-2
I-2
I-2
I-2
I-2
I2
I1
I-1
I-1
I-1
I-1
I2
I2
I-1
I-1
I0
I1
I0
I2
I2
I2
I-1
I0
I1
I0
I-1
I2
I2
I0
I1
I2
I2
I1
I-1
I2
I1
I1
I2
I2
I2
I1
I2
I2
I2
I2
I1
I1
I1
I-2
I-1
I0
I-1
I-2
I2
I1
I2
I1
I1
I0
I-1
I0
I0
I2
I-1
I-1
I-1
I-2
I-1
I2
I2
I1
I1
I-1
I2
I-2
I-2
I-2
I-1
I-1
I-2
I-2
I-2
I2
I1
I1
I1
I-1
I-2
I-2
I-2
I-1
I-2
I1
I-1
I-2
I0
I-1
I-2
I2
I1
I2
I0
I1
I-1
I-2
I0
I-1
I-1
I-1
I0
I1
I-2
I1
I0
I1
I-1
I1
I2
I2
I2
I1
I2
I1
I1
I2
I2
I2
I0
I1
I1
I-1
I2
I2
I1
I2
I-2
I-2
I-2
I-2
I1
I1
I-1
I1
I-2
I-2
I1
I-1
I-1
I-1
I-2
I-2
I-2
I-2
I1
I1
I-2
I2
I-2
I-2
I-2
I-1
I2
I0
I1
I2
I1
I-1
I1
I0
I-1
I0
I-1
I-1
I1
I1
I-1
I1
I-1
I-2
I-2
I-1
I1
I-1
I1
I-1
I-2
I-2
I-2
I-1
I-1
I0
I-1
I2
I-2
I-1
I2
I1
I2
I0
I2
I-1
I-2
I-1
I-2
I-1
I-2
I2
I2
I-1
I1
I1
I2
I2
I2
I1
I1
I2
I1
I2
I2
I2
I1
I-1
I2
I1
I1
I1
I1
I-1
I-1
I-2
I-1
I-1
I-1
I-2
I0
I1
I1
I1
I2
I1
I-2
I-1
I-1
I-1
I0
I-2
I-1
I-2
I-2
I-2
I1
I1
I0
I1
I2
I-2
I-2
I0
I-2
I-2
I1
I-2
I-2
I-2
I-2
I-2
I1
I2
I2
I1
I0
I-1
I-2
I-1
I2
I2
I-1
I-1
I-1
I1
I1
I2
I2
I2
I-2
I-1
I1
I-1
I0
I2
I2
I2
I-1
I1
I-1
I0
I-2
I2
I2
I2
I2
I2
I2
I2
I2
I2
I2
I2
I1
I2
I2
I-2
I0
I2
I2
I1
I2
I2
I2
I0
I2
I2
I2
I1
I0
I2
I-1
I-2
I-1
I0
I-1
I2
I2
I0
I1
I1
I2
I-2
I-2
I-1
I-1
I-2
I-2
I-2
I-2
I1
I1
I1
I-1
I-2
I-2
I-2
I-2
I-1
I-1
I-1
I-2
I-2
I-2
I-2
I-2
I1
I1
I-2
I-2
I-2
I-2
I-2
I-2
I-1
I-2
I-2
I-2
I-2
I-2
I-2
I-2
I2
I-1
I-2
I-2
I-1
I-1
I-2
I0
I1
I-1
I-1
I-1
I0
I-1
I1
I-1
I1
I2
I1
I1
I2
I-2
I-2
I-2
I-2
I1
I1
I-1
I-1
I-2
I-2
I2
I1
I1
I1
I-2
I-2
I-2
I-2
I2
I2
I2
I2
I-2
I-1
I-1
I1
I2
I2
I2
I2
I2
I1
I2
I1
I2
I2
I2
I-2
I-1
I1
I-1
I1
I2
I2
I1
I1
I1
I-1
I1
I2
I1
I1
I-1
I-1
I1
I1
I1
I2
I0
I-1
I2
I-1
I2
I1
I2
I-1
I-2
I-1
I-2
I-1
I-2
I2
I2
I-1
I2
I2
I1
I1
I1
I2
I1
I-1
I-1
I2
I-1
I-2
I-1
I-2
I-2
I-1
I1
I1
I2
I1
I-1
I-1
I-1
I-2
I1
I-2
I-1
I-1
I-1
I2
I-2
I-2
I1
I-2
I-2
I1
I2
I2
tp40
sS'31ba4ff046df0c66.jpg'
p41
(I-1
I1
I2
I1
I-1
I2
I2
I2
I1
I-1
I2
I2
I2
I1
I-1
I2
I2
I2
I1
I2
I2
I2
I2
I-2
I1
I2
I2
I1
I-1
I-1
I2
I1
I2
I1
I1
I1
I2
I2
I-1
I2
I2
I-1
I-2
I1
I0
I1
I-2
I-2
I-2
I-1
I-1
I-1
I-1
I-1
I-2
I-2
I-2
I1
I2
I-1
I0
I-1
I-2
I-2
I-2
I-2
I-1
I-2
I-2
I-1
I-2
I-2
I-2
I1
I1
I-1
I1
I-2
I-2
I-2
I-2
I-1
I-1
I1
I-2
I-2
I-1
I-1
I-1
I1
I2
I-1
I-1
I-1
I-2
I-2
I-2
I-2
I-1
I-2
I-2
I-2
I-2
I-2
I1
I-2
I-2
I0
I1
I1
I-2
I0
I-1
I1
I1
I-1
I1
I-2
I-1
I-1
I1
I0
I2
I-1
I-1
I-1
I-1
I-1
I1
I2
I1
I1
I1
I-1
I-1
I-1
I1
I-1
I-1
I-1
I-2
I-2
I-2
I-1
I2
I2
I1
I2
I-1
I1
I2
I2
I2
I1
I2
I1
I1
I2
I2
I2
I1
I2
I2
I-1
I0
I1
I1
I-1
I2
I2
I0
I1
I-1
I2
I2
I2
I2
I2
I0
I1
I1
I-2
I0
I-1
I1
I2
I1
I1
I1
I0
I0
I1
I1
I0
I1
I1
I2
I0
I1
I2
I0
I-2
I1
I2
I-1
I-1
I1
I0
I-2
I-2
I1
I-2
I-2
I-1
I0
I-2
I-2
I-1
I-2
I-2
I-1
I0
I-1
I-2
I-1
I1
I-2
I-1
I-1
I1
I-2
I0
I1
I2
I1
I1
I2
I2
I2
I-2
I1
I2
I1
I1
I-2
I-1
I-1
I-2
I1
I-1
I-1
I-1
I-2
I-2
I-2
I-1
I-1
I-1
I-1
I2
I0
I0
I0
I1
I-2
I0
I2
I1
I2
I2
I2
I2
I0
I2
I2
I2
I2
I2
I2
I0
I2
I2
I2
I2
I1
I1
I0
I-2
I1
I-1
I1
I1
I-1
I-1
I-2
I-1
I2
I-1
I0
I1
I-2
I-2
I-2
I-2
I-1
I-1
I1
I1
I-2
I1
I-1
I1
I1
I-1
I-1
I-2
I-1
I-1
I1
I1
I0
I1
I2
I-1
I1
I0
I-2
I-2
I-2
I-2
I-2
I-2
I-2
I-2
I-1
I-2
I-2
I2
I-1
I-1
I-1
I-1
I-2
I-2
I1
I1
I1
I0
I-1
I1
I-2
I-1
I1
I-1
I1
I-1
I0
I0
I-1
I0
I2
I-1
I1
I-1
I-1
I-2
I-1
I1
I-1
I-2
I-2
I2
I2
I2
I-1
I-1
I-1
I1
I1
I-2
I1
I-2
I-2
I-2
I1
I-1
I2
I-1
I0
I-2
I-2
I-2
I0
I2
I1
I0
I1
I-2
I-2
I-1
I2
I1
I0
I-1
I-1
I-2
I-2
I1
I1
I1
I1
I1
I1
I-1
I1
I1
I-1
I0
I1
I-1
I0
I-1
I-1
I-2
I0
I1
I2
I0
I-2
I-1
I-2
I-2
I2
I2
I2
I2
I1
I1
I2
I0
I2
I2
I1
I2
I2
I0
I1
I2
I2
I2
I2
I2
I2
I-1
I-1
I2
I2
I2
I2
I2
I2
I1
I2
I2
I2
I2
I1
I2
I1
I-2
I2
I2
I2
I1
I-1
I-1
I1
I-2
I0
I1
I-1
I1
I-1
I1
I1
I0
I-1
I-1
I2
I2
I2
I2
I-2
I1
I-1
I2
I2
I2
I2
I-1
I1
I2
I2
I-2
I-2
I2
I-2
I-2
I-2
I-2
I0
I-2
I-2
I-2
I0
I1
I-2
I-2
I-2
I-1
I-1
I-2
I-2
I-1
I1
I-1
I-1
I1
I1
I1
I2
I-2
I-2
I-2
I-2
I2
I-2
I-2
I-2
I-2
I0
I-2
I-2
I0
tp42
sS'296e038f35ce1575.jpg'
p43
(I-2
I-1
I-1
I2
I-2
I2
I2
I1
I2
I2
I2
I2
I2
I-2
I2
I2
I2
I2
I-2
I1
I-1
I1
I-2
I-1
I1
I0
I-2
I-2
I-1
I-2
I-2
I-2
I-2
I2
I2
I-2
I-1
I1
I-2
I-2
I-1
I1
I-2
I1
I-1
I-1
I1
I-2
I-2
I-1
I-1
I-1
I-1
I-2
I-1
I-2
I-2
I1
I1
I1
I-2
I-2
I-2
I-2
I1
I-1
I1
I-2
I-2
I-2
I-2
I-1
I0
I-1
I-2
I-2
I-2
I-1
I2
I2
I2
I2
I-1
I0
I1
I1
I2
I2
I2
I1
I2
I2
I2
I2
I2
I1
I2
I-2
I1
I1
I2
I1
I-1
I1
I-1
I1
I-1
I1
I1
I1
I2
I-2
I1
I1
I-1
I-1
I-2
I2
I-2
I-2
I2
I2
I2
I2
I-1
I1
I-1
I1
I2
I2
I2
I1
I1
I-1
I1
I2
I1
I2
I0
I-1
I1
I1
I2
I2
I1
I-1
I-2
I-1
I1
I2
I1
I2
I-1
I-2
I-1
I-1
I1
I1
I2
I-1
I-2
I-2
I-1
I-1
I-1
I1
I-1
I-1
I-1
I1
I1
I-1
I1
I-2
I-2
I-2
I-2
I-2
I2
I2
I-1
I2
I-1
I1
I2
I1
I2
I1
I1
I1
I2
I2
I2
I2
I-1
I-1
I-1
I-2
I2
I1
I1
I1
I-2
I-2
I-2
I-2
I-1
I-2
I-2
I-2
I-2
I-1
I-1
I1
I1
I-1
I-2
I-2
I-2
I-2
I-1
I-1
I-2
I-2
I-2
I-2
I1
I1
I1
I2
I1
I-2
I-1
I-1
I1
I-1
I-1
I-1
I-2
I2
I-1
I1
I1
I0
I2
I-2
I-2
I-1
I-1
I1
I-1
I-2
I-1
I-2
I-1
I1
I1
I0
I-2
I-2
I-2
I-1
I2
I-1
I-1
I-2
I-2
I-1
I-1
I2
I1
I1
I-2
I-2
I-1
I1
I2
I2
I2
I2
I1
I2
I2
I2
I2
I2
I2
I-1
I2
I2
I2
I2
I2
I1
I1
I-2
I-1
I1
I1
I1
I1
I2
I1
I2
I1
I-1
I-1
I-1
I1
I-1
I0
I1
I0
I1
I-2
I2
I1
I1
I2
I2
I2
I2
I-1
I2
I2
I2
I2
I2
I2
I1
I2
I2
I2
I2
I1
I1
I-2
I-2
I1
I1
I2
I1
I-1
I-2
I-2
I-1
I1
I1
I-1
I1
I-2
I-2
I-1
I-1
I0
I-1
I1
I-2
I-2
I-1
I-2
I0
I-1
I1
I-2
I-1
I-1
I-1
I1
I-1
I0
I-1
I-2
I-2
I-2
I-2
I1
I-1
I-2
I2
I0
I-1
I1
I-1
I-1
I-2
I-2
I0
I-1
I1
I-1
I-1
I-2
I-2
I-1
I1
I2
I-1
I-1
I-1
I-2
I-2
I-1
I-2
I-1
I-2
I-2
I-2
I-1
I1
I1
I1
I1
I-1
I-2
I-2
I-1
I-1
I-1
I-1
I-2
I-2
I-2
I-2
I2
I2
I1
I2
I1
I-2
I1
I1
I1
I0
I-1
I-1
I-1
I2
I1
I2
I2
I1
I2
I-1
I-1
I-2
I-2
I1
I-1
I-2
I1
I1
I1
I2
I1
I1
I-2
I-2
I1
I1
I2
I-1
I-1
I-2
I-2
I-1
I1
I2
I1
I1
I-2
I-2
I1
I2
I2
I2
I2
I2
I1
I2
I2
I2
I2
I2
I2
I-1
I2
I2
I2
I2
I2
I-1
I1
I-2
I-1
I2
I1
I1
I-1
I1
I1
I2
I1
I-2
I-1
I-2
I-1
I1
I-1
I2
I-2
I2
I2
I2
I2
I-1
I2
I2
I2
I1
I2
I1
I-1
I-2
I-2
I2
I-2
I-2
I-2
I-2
I-1
I-2
I-2
I-2
I1
I-1
I-2
I-1
I-2
I1
I-1
I-1
I-1
I1
tp44
sS'3dda4c806d44f751.jpg'
p45
(I1
I-1
I2
I-1
I2
I-2
I1
I-1
I-2
I-1
I-2
I-2
I-2
I1
I1
I-2
I-1
I1
I-1
I1
I-2
I-1
I-1
I-1
I-1
I-1
I-1
I-2
I1
I-1
I-1
I-2
I-2
I1
I1
I-2
I-2
I-2
I-1
I-2
I-2
I1
I2
I2
I2
I1
I-2
I-1
I2
I-2
I-1
I1
I-2
I0
I1
I2
I2
I1
I1
I0
I1
I0
I2
I1
I2
I-1
I1
I0
I-1
I1
I-1
I1
I1
I-1
I1
I-2
I-1
I1
I1
I1
I1
I-1
I-2
I-1
I-1
I1
I2
I2
I2
I2
I-1
I2
I2
I2
I2
I2
I2
I1
I-1
I2
I2
I2
I2
I2
I1
I2
I2
I-2
I-1
I-2
I1
I1
I-1
I2
I0
I2
I1
I2
I2
I2
I0
I-1
I0
I-1
I-1
I1
I1
I2
I0
I1
I2
I1
I2
I2
I2
I2
I-1
I1
I1
I-2
I1
I1
I2
I2
I-1
I1
I-2
I-1
I1
I2
I2
I2
I-1
I-2
I-2
I-1
I0
I2
I2
I1
I-2
I-2
I-2
I0
I-1
I2
I1
I0
I-2
I-2
I1
I2
I1
I-1
I-2
I-1
I-2
I-1
I-1
I-2
I-1
I1
I0
I-2
I0
I0
I-2
I-1
I-2
I0
I1
I0
I0
I1
I-2
I-2
I-1
I-1
I2
I-1
I0
I2
I-2
I-2
I-2
I-2
I1
I-2
I1
I1
I-2
I-2
I-2
I-1
I1
I-1
I-1
I-2
I-2
I-2
I-2
I-1
I-2
I-1
I-2
I-2
I-1
I-1
I-2
I2
I-1
I-2
I-2
I-2
I0
I-1
I1
I-2
I-1
I2
I2
I2
I1
I1
I1
I0
I0
I-2
I0
I-2
I-2
I-2
I0
I0
I1
I0
I1
I-2
I-2
I-1
I-1
I0
I2
I-1
I2
I-2
I-2
I-1
I-2
I-1
I1
I-2
I0
I-2
I-2
I-2
I-1
I1
I1
I0
I-2
I-2
I-2
I-2
I2
I2
I2
I2
I-2
I0
I0
I-2
I2
I2
I2
I2
I1
I2
I-1
I0
I2
I1
I-1
I-2
I-1
I-1
I2
I-1
I2
I1
I-1
I2
I2
I1
I-1
I2
I1
I2
I2
I2
I2
I1
I1
I2
I2
I2
I1
I2
I2
I-1
I1
I2
I2
I2
I1
I2
I2
I-1
I1
I1
I1
I2
I2
I2
I0
I-1
I0
I1
I2
I2
I2
I0
I-2
I0
I-2
I2
I2
I2
I2
I1
I2
I2
I1
I2
I2
I1
I0
I1
I-1
I2
I1
I-2
I-2
I-1
I-1
I-1
I-1
I-1
I-2
I1
I2
I1
I-1
I1
I-2
I-2
I-2
I-2
I0
I-2
I-1
I-1
I-2
I-2
I-1
I0
I1
I-2
I-1
I1
I-2
I-1
I-1
I-1
I1
I-1
I1
I1
I-2
I-2
I-2
I-1
I-1
I-1
I-1
I1
I-2
I-2
I-2
I1
I1
I-1
I1
I1
I-2
I-2
I-2
I-1
I-2
I-1
I-1
I-2
I-1
I-1
I2
I2
I1
I1
I-1
I-1
I-2
I2
I1
I1
I2
I1
I1
I-1
I2
I-1
I-1
I1
I1
I-1
I1
I1
I-1
I1
I1
I1
I1
I-1
I1
I-2
I0
I2
I-1
I-1
I1
I-1
I1
I-1
I1
I1
I-1
I1
I1
I-1
I1
I1
I1
I-2
I-1
I-1
I1
I-1
I0
I0
I-2
I-2
I-1
I1
I-2
I0
I-2
I-2
I-2
I-2
I2
I-1
I2
I-2
I-2
I2
I1
I2
I-2
I-2
I-1
I-2
I-2
I1
I1
I2
I2
I2
I-1
I0
I1
I-2
I2
I-2
I-1
I-1
I-2
I0
I-1
I-1
I0
I0
I-2
I2
I2
I2
I2
I-2
I2
I2
I2
I2
I1
I2
I2
I-1
tp46
sS'afd8ba860d631356.jpg'
p47
(I-2
I-2
I-2
I1
I-2
I-2
I-2
I-1
I2
I1
I1
I1
I2
I-1
I1
I1
I2
I1
I-1
I2
I1
I-1
I-2
I-2
I-1
I-2
I-2
I-1
I1
I1
I-2
I1
I1
I-1
I-2
I0
I-1
I1
I2
I2
I2
I2
I2
I0
I-2
I-2
I2
I2
I-1
I0
I1
I-2
I-2
I-1
I1
I-1
I-1
I-1
I2
I-2
I-2
I0
I-2
I-2
I-1
I-2
I-1
I-2
I-2
I-1
I-1
I1
I2
I1
I-2
I0
I1
I0
I2
I2
I2
I2
I2
I2
I2
I2
I1
I-1
I0
I-2
I0
I-1
I-2
I-1
I-1
I1
I-2
I0
I1
I-2
I-1
I-2
I-1
I-2
I-1
I-1
I-2
I2
I2
I0
I2
I2
I2
I2
I2
I0
I2
I2
I2
I2
I1
I2
I2
I-2
I2
I1
I2
I2
I0
I2
I0
I-2
I1
I2
I0
I2
I1
I-1
I-2
I-1
I-1
I-1
I2
I1
I0
I-2
I1
I1
I-1
I2
I2
I1
I-2
I2
I2
I1
I2
I2
I2
I-1
I1
I1
I1
I-2
I-2
I0
I-2
I-1
I2
I2
I2
I1
I2
I-2
I-2
I-2
I1
I-1
I-2
I-2
I-1
I2
I2
I2
I2
I1
I-2
I-2
I-2
I-2
I-2
I-1
I-2
I-2
I-2
I0
I1
I2
I2
I-1
I-2
I-1
I-2
I-2
I-2
I-2
I-2
I-2
I-2
I-1
I-1
I-2
I-2
I2
I-1
I-2
I1
I-2
I-1
I-2
I0
I1
I-2
I2
I-1
I1
I1
I2
I-1
I2
I2
I2
I2
I2
I1
I-2
I-2
I1
I1
I-1
I-2
I-1
I-2
I-2
I1
I-2
I1
I1
I-1
I-2
I-2
I-2
I-1
I2
I1
I1
I-2
I-2
I-2
I2
I2
I2
I2
I2
I2
I-1
I2
I2
I1
I2
I2
I-2
I2
I2
I1
I-1
I1
I-1
I-2
I-2
I-2
I-2
I-2
I-1
I2
I1
I-2
I2
I1
I-2
I1
I1
I-1
I-2
I-1
I-1
I-1
I1
I0
I-1
I-2
I-1
I1
I1
I0
I2
I2
I-1
I-1
I-1
I2
I2
I1
I1
I-1
I1
I0
I2
I2
I2
I1
I1
I2
I1
I2
I2
I-2
I-2
I-2
I-2
I-1
I-1
I-1
I1
I-2
I-1
I2
I1
I-2
I0
I2
I1
I1
I2
I2
I2
I2
I2
I2
I2
I1
I-1
I-1
I-2
I-1
I-1
I-1
I0
I-1
I0
I-1
I1
I-1
I-1
I1
I-2
I1
I0
I1
I1
I-1
I1
I-1
I-1
I2
I1
I1
I0
I-1
I1
I2
I2
I2
I1
I-2
I-2
I1
I-2
I1
I0
I-1
I-1
I-2
I1
I0
I-1
I2
I-1
I-1
I1
I-1
I-2
I-2
I-2
I-1
I-2
I-1
I-2
I-1
I-2
I1
I1
I-1
I1
I-1
I0
I-2
I1
I1
I1
I1
I0
I1
I-1
I0
I-1
I-1
I-1
I-2
I-1
I-2
I-2
I2
I1
I2
I1
I0
I-2
I-2
I-2
I-2
I-2
I-1
I-2
I0
I2
I-1
I1
I-1
I1
I-1
I1
I1
I1
I0
I0
I2
I-1
I1
I1
I2
I0
I2
I2
I-1
I1
I-1
I1
I-1
I-2
I-1
I-2
I-2
I-2
I2
I1
I0
I1
I1
I-1
I-1
I0
I0
I-1
I1
I-1
I-1
I-1
I-1
I-1
I1
I2
I-1
I1
I-1
I1
I1
I2
I2
I0
I1
I1
I2
I2
I-1
I-1
I2
I1
I0
I1
I2
I-1
I-2
I-2
I-2
I-2
I1
I1
I2
I2
I1
I-1
I2
I1
I-1
I0
I2
I1
I1
I0
I1
I0
I1
I-1
I-1
I1
I1
I-1
I-1
I-1
I1
I-2
I-2
I-1
tp48
sS'6813c8bd65e7e5fe.jpg'
p49
(I1
I-2
I1
I-1
I0
I-2
I0
I-2
I0
I2
I0
I-2
I1
I-2
I0
I-2
I-1
I-2
I0
I-2
I-1
I-2
I-2
I2
I1
I2
I2
I2
I-1
I1
I1
I1
I2
I-1
I-1
I0
I2
I-1
I1
I2
I1
I2
I2
I2
I2
I2
I-1
I0
I0
I-2
I-2
I-1
I1
I1
I2
I2
I2
I2
I2
I2
I2
I2
I-1
I1
I1
I-2
I-1
I1
I0
I2
I2
I2
I-2
I1
I1
I1
I2
I1
I2
I-2
I-1
I-1
I1
I2
I0
I-1
I-2
I-1
I0
I-1
I2
I-1
I-1
I2
I-2
I-2
I-2
I-2
I-2
I-2
I2
I1
I1
I-1
I2
I2
I2
I-2
I1
I1
I-2
I-1
I-2
I-1
I-2
I-1
I1
I-2
I-1
I0
I-2
I-2
I-1
I-1
I-1
I-2
I-1
I0
I-2
I0
I-1
I1
I2
I-1
I0
I1
I-2
I-2
I-2
I-2
I-2
I-2
I-1
I-2
I-1
I0
I1
I2
I-1
I1
I-2
I-1
I1
I1
I2
I1
I2
I-1
I0
I2
I-2
I-2
I-2
I-2
I-1
I-2
I-2
I-2
I-1
I-2
I1
I-1
I-2
I2
I2
I1
I-1
I2
I1
I1
I2
I-1
I1
I-2
I2
I1
I0
I1
I1
I-1
I1
I1
I-1
I1
I0
I0
I2
I-1
I1
I-1
I1
I-1
I-1
I1
I-1
I-1
I-2
I-1
I-1
I0
I2
I2
I1
I2
I1
I2
I2
I2
I1
I0
I2
I-1
I2
I2
I1
I2
I-2
I2
I1
I-2
I-2
I-2
I1
I-1
I2
I2
I2
I2
I2
I1
I2
I2
I2
I2
I-2
I-2
I-1
I-2
I-1
I-1
I-1
I-1
I-1
I1
I1
I1
I2
I1
I1
I2
I-1
I-1
I1
I-2
I-1
I-1
I0
I1
I1
I1
I-2
I1
I1
I1
I1
I-1
I0
I-2
I-2
I-1
I-1
I0
I-1
I-2
I-2
I-1
I2
I1
I2
I-1
I-2
I2
I-2
I-1
I-2
I-2
I-1
I-2
I1
I-1
I1
I-2
I1
I2
I1
I-2
I1
I1
I-2
I0
I-2
I1
I-1
I-1
I-1
I-2
I-1
I-1
I1
I-1
I1
I1
I1
I-1
I-1
I1
I-2
I0
I-1
I-1
I1
I-2
I-1
I-1
I-1
I-1
I0
I-1
I-2
I-1
I-1
I-2
I1
I1
I1
I2
I-1
I1
I-1
I1
I2
I2
I2
I1
I2
I1
I1
I2
I-2
I-1
I-2
I-2
I-1
I-2
I-1
I-2
I1
I-1
I1
I1
I-2
I2
I2
I2
I2
I2
I0
I1
I1
I-2
I1
I1
I2
I2
I1
I1
I2
I-1
I1
I2
I2
I1
I-1
I1
I1
I-1
I1
I2
I1
I2
I1
I1
I-1
I-1
I-1
I0
I2
I2
I2
I1
I-1
I1
I1
I2
I2
I2
I-1
I-1
I2
I-1
I2
I2
I2
I2
I-2
I1
I-1
I-2
I-2
I-1
I1
I1
I2
I2
I2
I2
I2
I-2
I-1
I2
I1
I1
I-2
I-2
I-2
I-2
I1
I-2
I-2
I-2
I-2
I-2
I-2
I-1
I-2
I-2
I-2
I-1
I-1
I-1
I0
I2
I2
I-1
I1
I1
I-2
I-2
I-2
I-2
I-1
I-2
I-1
I-2
I-2
I-2
I-2
I1
I0
I-1
I-2
I-2
I-2
I-2
I1
I0
I1
I-2
I-2
I-1
I-2
I-1
I-2
I-1
I0
I-2
I-2
I-2
I-1
I-2
I0
I-2
I-2
I-1
I2
I0
I-1
I2
I2
I0
I-1
I2
I2
I1
I1
I2
I1
I-1
I2
I-2
I1
I-1
I1
I1
I-1
I-2
I2
I2
I2
I2
I-1
I2
I2
I2
I1
I2
I1
I2
I2
I-2
I-1
I2
I2
I1
tp50
sS'e06677b7f165ae44.jpg'
p51
(I1
I2
I2
I-1
I-2
I1
I2
I1
I2
I2
I2
I2
I2
I-2
I-1
I-2
I-2
I-2
I1
I0
I-2
I-2
I-1
I0
I-2
I-2
I-1
I-2
I2
I1
I2
I1
I0
I-1
I2
I1
I-1
I-1
I-2
I-2
I-2
I-2
I-1
I1
I-2
I-2
I-2
I-2
I-2
I-1
I-1
I-2
I-2
I-2
I-1
I-2
I2
I1
I-1
I-2
I-1
I1
I-2
I2
I2
I1
I1
I0
I2
I1
I2
I2
I2
I-1
I1
I1
I1
I1
I1
I1
I-2
I-1
I-2
I-1
I0
I-2
I2
I-1
I-1
I2
I-1
I2
I-1
I1
I0
I1
I2
I1
I-1
I0
I2
I1
I1
I2
I1
I2
I1
I2
I2
I2
I1
I2
I2
I2
I2
I-2
I1
I-1
I1
I0
I2
I1
I0
I-1
I2
I-1
I-1
I1
I-1
I-2
I-1
I-2
I-1
I-2
I-1
I-1
I-1
I-1
I1
I1
I1
I-1
I1
I-2
I-1
I0
I-2
I-1
I-2
I0
I-2
I-2
I2
I1
I0
I2
I2
I1
I1
I1
I-1
I-2
I-2
I-2
I-2
I-1
I-1
I2
I-1
I-1
I2
I0
I2
I-1
I1
I1
I2
I2
I-2
I-1
I1
I-2
I-1
I2
I1
I-1
I0
I1
I2
I1
I2
I1
I-1
I2
I-1
I1
I1
I-2
I1
I-2
I2
I2
I1
I-1
I0
I-1
I-2
I2
I1
I1
I2
I2
I-1
I2
I1
I2
I2
I0
I1
I-1
I1
I-1
I-1
I2
I-1
I-1
I-1
I1
I0
I1
I2
I-1
I0
I1
I-2
I-2
I-2
I-2
I-2
I-2
I-2
I-1
I-2
I2
I-2
I-1
I-1
I1
I-1
I-2
I2
I2
I1
I1
I2
I1
I2
I2
I2
I2
I-2
I-2
I-2
I-2
I-1
I-2
I-2
I-2
I-2
I-1
I-2
I1
I1
I-1
I-2
I-2
I-1
I-2
I-2
I-1
I-2
I-2
I-2
I-2
I0
I1
I1
I2
I1
I1
I1
I-1
I1
I0
I2
I-1
I1
I1
I-2
I0
I-1
I2
I-1
I-2
I-1
I2
I2
I2
I1
I0
I-2
I-2
I-2
I-2
I-1
I-2
I-2
I-2
I-2
I-2
I2
I1
I-1
I-2
I-2
I0
I-2
I2
I1
I1
I-1
I-2
I1
I-1
I2
I2
I2
I1
I1
I1
I-1
I1
I2
I2
I-1
I-1
I-1
I-1
I1
I-1
I2
I-1
I-1
I1
I-2
I2
I0
I2
I1
I2
I2
I2
I2
I2
I2
I2
I0
I1
I-2
I2
I1
I-1
I2
I-1
I-1
I1
I0
I2
I2
I1
I1
I1
I2
I-1
I2
I2
I2
I-1
I2
I2
I-1
I2
I0
I-1
I-1
I-2
I-2
I-2
I-1
I1
I1
I1
I1
I2
I2
I1
I2
I1
I-1
I-1
I-2
I-2
I-2
I1
I-1
I-2
I1
I0
I-2
I2
I2
I1
I-1
I-1
I-2
I-2
I-2
I-2
I-1
I-2
I-2
I1
I-2
I-1
I1
I-2
I2
I1
I-1
I2
I2
I2
I-1
I-2
I-2
I-2
I-2
I2
I0
I-1
I1
I1
I2
I2
I2
I2
I2
I2
I-2
I1
I-1
I-2
I1
I-1
I1
I1
I-1
I-2
I-1
I-1
I-1
I-1
I1
I1
I-1
I1
I-1
I1
I-1
I2
I2
I-1
I2
I1
I2
I1
I-1
I2
I0
I-1
I1
I2
I2
I1
I2
I1
I-1
I1
I-1
I-2
I-2
I-2
I-2
I-2
I-2
I-2
I-2
I0
I-2
I2
I-1
I1
I-2
I1
I1
I2
I-2
I-1
I1
I-2
I1
I-1
I-1
I-2
I-1
I1
I-1
I-2
I-2
I-1
I-2
I1
I0
I-1
I2
I-1
I1
I1
I2
I1
I1
I-1
I2
I-1
tp52
sS'8440dfd1a9a090aa.jpg'
p53
(I-1
I-1
I0
I1
I-2
I-1
I1
I-1
I2
I2
I2
I1
I2
I-2
I1
I-1
I2
I-1
I-2
I-2
I2
I-2
I2
I2
I2
I1
I2
I2
I-2
I1
I2
I2
I1
I-1
I2
I1
I1
I2
I-2
I-2
I-1
I1
I1
I1
I0
I1
I0
I-1
I-2
I-1
I-2
I-1
I-1
I-2
I1
I-1
I1
I2
I2
I2
I-1
I2
I-2
I-2
I-2
I-2
I-2
I-2
I-1
I-1
I1
I2
I-1
I2
I2
I2
I2
I2
I-2
I-2
I-2
I-2
I-2
I-2
I-2
I-2
I-2
I-2
I-1
I2
I-1
I-1
I-1
I-1
I-1
I-1
I2
I1
I1
I1
I-1
I-1
I-2
I1
I-1
I-2
I-2
I0
I1
I1
I1
I1
I-1
I1
I-2
I-1
I-2
I0
I0
I-1
I2
I1
I2
I2
I2
I2
I1
I-2
I-2
I1
I-2
I-2
I-1
I-2
I-2
I-2
I1
I-2
I2
I1
I-1
I-2
I-2
I1
I-2
I2
I1
I1
I1
I-1
I1
I2
I2
I1
I-1
I-1
I-1
I0
I1
I1
I1
I1
I2
I1
I-1
I2
I1
I-2
I1
I2
I1
I2
I-1
I-1
I0
I0
I1
I-2
I-1
I0
I-2
I0
I-1
I1
I-2
I-2
I1
I-1
I2
I1
I-2
I-1
I-2
I1
I2
I2
I2
I2
I2
I-1
I2
I2
I2
I2
I1
I-2
I2
I1
I2
I-1
I-1
I-1
I0
I-2
I1
I1
I-2
I-2
I-2
I-1
I-2
I-1
I0
I-2
I-2
I-2
I-1
I-1
I-2
I0
I-2
I-2
I-2
I2
I2
I1
I2
I1
I2
I-1
I-1
I-2
I-2
I1
I2
I2
I1
I2
I-2
I1
I2
I2
I2
I2
I1
I2
I2
I2
I2
I2
I-1
I-2
I-1
I-2
I2
I1
I1
I-1
I-2
I-2
I-1
I-2
I-2
I-2
I-2
I-1
I1
I2
I2
I2
I1
I1
I2
I2
I2
I2
I2
I-1
I1
I2
I2
I1
I2
I2
I-1
I-1
I2
I2
I-1
I1
I-2
I-2
I-2
I-2
I-2
I2
I-1
I2
I1
I1
I-1
I-2
I-2
I-2
I-1
I-1
I-2
I-1
I-2
I-2
I-1
I1
I0
I-1
I0
I0
I-2
I-1
I2
I0
I-1
I0
I0
I-1
I1
I2
I-2
I1
I1
I1
I-1
I2
I1
I-2
I-2
I-1
I1
I-2
I1
I1
I-2
I-2
I-2
I-1
I-2
I-1
I1
I-2
I-1
I1
I2
I2
I1
I2
I1
I-2
I-1
I2
I-1
I-1
I-2
I-1
I1
I-1
I-1
I1
I-1
I2
I1
I1
I1
I1
I2
I-1
I1
I0
I0
I-1
I0
I1
I-1
I-2
I0
I0
I-1
I0
I-1
I-1
I-2
I-1
I1
I1
I2
I1
I2
I-2
I1
I1
I-2
I-1
I1
I-2
I1
I-2
I-2
I0
I-1
I-1
I-2
I-1
I-2
I-2
I-1
I-1
I2
I-1
I1
I2
I-2
I1
I1
I0
I2
I2
I2
I2
I2
I1
I-1
I1
I1
I-1
I-1
I-2
I-1
I-1
I-2
I-1
I-2
I-2
I1
I1
I1
I2
I-2
I-1
I-2
I1
I2
I2
I2
I2
I2
I-1
I2
I2
I1
I-1
I2
I-2
I1
I1
I1
I1
I-1
I2
I2
I-1
I2
I1
I1
I0
I0
I1
I-1
I-2
I1
I-1
I-2
I1
I1
I-1
I-2
I-1
I-1
I-2
I1
I2
I0
I-2
I1
I2
I2
I-1
I1
I-1
I1
I2
I1
I1
I-2
I2
I2
I1
I2
I2
I-1
I-2
I-1
I-2
I-1
I-2
I-1
I-1
I1
I1
I-1
I-1
I1
I-1
I-1
I0
I2
I2
I1
I2
I-1
I-1
I-2
I-2
I2
I-2
I-2
I-2
tp54
sS'3769a78179601de4.jpg'
p55
(I-2
I-1
I-2
I2
I-2
I1
I0
I-1
I2
I0
I2
I1
I1
I0
I-2
I1
I1
I-1
I2
I-2
I2
I1
I-2
I2
I-1
I2
I-1
I-1
I1
I-2
I-1
I0
I-2
I2
I-1
I2
I-1
I-1
I1
I0
I-1
I1
I-1
I-1
I0
I0
I2
I0
I-2
I1
I-1
I1
I1
I-1
I1
I-1
I-1
I1
I1
I2
I0
I-2
I-1
I-1
I-2
I-1
I-2
I-1
I-2
I-2
I1
I-1
I-2
I2
I-2
I0
I1
I-2
I2
I1
I1
I2
I1
I2
I0
I-1
I1
I0
I-2
I-1
I-2
I-1
I-1
I-2
I2
I1
I0
I2
I-1
I2
I2
I1
I1
I1
I1
I2
I2
I0
I-1
I0
I1
I0
I0
I-1
I-2
I0
I-2
I0
I0
I-2
I1
I0
I1
I2
I-1
I2
I-1
I-1
I2
I2
I0
I1
I0
I0
I0
I-2
I2
I-1
I-2
I0
I-2
I0
I-2
I-2
I2
I0
I1
I2
I0
I2
I1
I1
I1
I1
I-2
I0
I-2
I1
I1
I-2
I2
I-2
I-2
I2
I0
I2
I0
I-1
I-1
I-2
I0
I0
I-1
I-1
I0
I0
I0
I-1
I0
I0
I-2
I0
I-2
I1
I-1
I-2
I2
I1
I0
I2
I0
I2
I1
I-1
I1
I0
I0
I0
I-2
I1
I0
I-2
I2
I2
I-2
I2
I-2
I2
I0
I-2
I2
I-1
I-1
I2
I1
I2
I0
I-1
I-1
I-1
I-2
I-1
I-2
I-1
I-1
I-2
I2
I0
I0
I2
I-1
I2
I1
I0
I1
I1
I1
I1
I1
I0
I-1
I-1
I1
I-1
I1
I1
I-2
I1
I-2
I2
I0
I-2
I2
I-1
I-1
I2
I-2
I2
I0
I-1
I1
I0
I-2
I2
I-2
I1
I1
I0
I2
I0
I-2
I2
I-2
I2
I1
I-2
I2
I0
I1
I2
I-1
I2
I-1
I-1
I1
I1
I-2
I1
I-2
I1
I0
I-2
I2
I-1
I-1
I2
I0
I2
I0
I0
I0
I-1
I0
I0
I0
I-1
I-2
I-1
I0
I-2
I1
I0
I-2
I1
I-2
I1
I-1
I-2
I2
I0
I-1
I2
I0
I2
I1
I1
I1
I-1
I-2
I0
I-1
I1
I1
I-1
I0
I-1
I-2
I1
I-2
I2
I0
I-2
I2
I1
I-1
I2
I0
I2
I1
I2
I1
I0
I-2
I0
I-2
I1
I2
I-2
I2
I0
I0
I2
I0
I2
I-1
I-2
I0
I0
I0
I-1
I-2
I0
I-1
I-2
I-2
I-1
I2
I1
I-2
I2
I-1
I0
I1
I0
I2
I-1
I-1
I1
I-1
I1
I1
I0
I-1
I-1
I-2
I1
I-2
I1
I1
I-1
I1
I0
I-2
I2
I-2
I2
I1
I-2
I2
I-1
I-1
I2
I1
I2
I-2
I-1
I-2
I-2
I-2
I-1
I-2
I-2
I-2
I-2
I2
I1
I1
I2
I-2
I2
I-1
I0
I2
I2
I2
I1
I2
I1
I0
I0
I1
I0
I1
I-1
I-1
I0
I0
I1
I0
I-2
I0
I-1
I-1
I0
I-1
I0
I-2
I-2
I0
I-1
I-2
I1
I-2
I-1
I-2
I-2
I1
I-1
I-2
I2
I-2
I0
I-1
I-2
I2
I2
I2
I2
I0
I2
I0
I1
I1
I2
I-2
I0
I-2
I0
I1
I-2
I2
I1
I-1
I2
I0
I2
I2
I1
I0
I-2
I0
I1
I1
I-1
I-1
I-1
I0
I0
I0
I1
I-2
I2
I2
I1
I2
I-1
I2
I2
I0
I1
I-2
I2
I1
I-2
I1
I-2
I2
I0
I0
I2
I1
I-1
I-1
I-2
I-1
I-2
I2
I-2
I-1
I2
I-1
I-1
I-1
I1
tp56
sS'8dfe3976b1bdfcf7.jpg'
p57
(I-2
I-1
I-1
I2
I1
I2
I2
I2
I-1
I2
I1
I1
I1
I-2
I-1
I-2
I-2
I-2
I1
I1
I-1
I-2
I-2
I-1
I-1
I-2
I-2
I-1
I1
I-2
I-2
I0
I-2
I2
I2
I2
I-1
I0
I-2
I-2
I-2
I1
I-2
I-1
I2
I-1
I1
I-2
I-1
I1
I-1
I2
I-1
I-1
I-2
I-1
I2
I1
I-1
I0
I0
I0
I-1
I2
I1
I1
I-1
I1
I0
I-2
I2
I2
I2
I1
I-1
I1
I-1
I0
I2
I2
I2
I1
I2
I1
I1
I2
I1
I0
I-2
I-2
I-2
I-2
I-1
I1
I2
I1
I2
I2
I1
I2
I2
I2
I0
I2
I-1
I2
I1
I-2
I-2
I-2
I-2
I-2
I1
I1
I0
I2
I0
I1
I1
I1
I1
I0
I-1
I0
I-1
I1
I1
I1
I0
I0
I-2
I1
I-2
I1
I2
I1
I2
I1
I-1
I2
I0
I2
I2
I2
I0
I-1
I2
I0
I1
I2
I2
I2
I-2
I1
I-2
I-1
I2
I1
I2
I-1
I-1
I-2
I-2
I-2
I-2
I-1
I-2
I-2
I-2
I-1
I2
I-2
I-1
I2
I-1
I0
I-1
I-2
I2
I-1
I-1
I0
I-1
I-1
I-2
I-2
I-1
I-1
I-1
I1
I1
I-2
I-2
I0
I-1
I-2
I-2
I-1
I-1
I-2
I-1
I-1
I-1
I-2
I-2
I1
I-1
I-1
I0
I0
I-2
I-2
I-1
I1
I1
I1
I1
I-2
I-2
I-2
I1
I-1
I-2
I1
I-2
I-2
I1
I2
I2
I2
I1
I1
I1
I2
I2
I1
I-1
I1
I1
I1
I1
I-2
I-1
I1
I2
I2
I2
I2
I0
I1
I2
I0
I2
I2
I2
I0
I2
I2
I0
I-1
I0
I1
I1
I-2
I1
I-2
I-2
I-2
I1
I0
I-1
I-1
I0
I-2
I-2
I-2
I0
I-1
I-1
I0
I-2
I-2
I-2
I-2
I2
I2
I-1
I2
I1
I1
I0
I-1
I2
I-1
I-1
I-1
I0
I-1
I-1
I-1
I-2
I-1
I0
I-2
I-1
I1
I-1
I2
I2
I2
I-1
I-2
I-2
I-2
I-2
I2
I1
I-1
I0
I0
I2
I2
I-1
I2
I2
I1
I1
I2
I2
I1
I-1
I2
I1
I-1
I2
I2
I2
I1
I1
I2
I0
I1
I2
I2
I-1
I-1
I-1
I-1
I1
I-1
I2
I0
I1
I1
I-1
I1
I-1
I2
I1
I1
I2
I1
I0
I0
I2
I2
I1
I1
I0
I2
I2
I-2
I-2
I-2
I-2
I-2
I-2
I-1
I-2
I2
I-2
I-2
I-2
I-1
I1
I-2
I-2
I2
I-1
I-1
I1
I2
I-1
I-1
I-2
I1
I-2
I1
I2
I2
I1
I0
I1
I2
I1
I2
I2
I2
I-1
I-1
I-1
I-1
I-1
I2
I2
I2
I1
I1
I0
I1
I2
I2
I2
I0
I-2
I-2
I-2
I-2
I-2
I-1
I-2
I-2
I-2
I-2
I2
I-2
I-1
I2
I2
I0
I1
I-1
I2
I2
I1
I0
I2
I1
I-1
I1
I1
I-1
I-1
I-2
I1
I-2
I-1
I-2
I-2
I-2
I-2
I-1
I-1
I-2
I-2
I-2
I-2
I-2
I-2
I1
I-1
I-2
I-1
I-2
I-2
I-2
I-2
I1
I0
I-1
I-2
I-1
I-2
I-2
I1
I0
I-2
I-1
I-1
I-2
I0
I2
I2
I2
I2
I2
I1
I1
I2
I1
I-2
I-1
I-1
I-1
I-1
I-1
I1
I1
I2
I1
I1
I-1
I1
I2
I-1
I-1
I2
I2
I2
I1
I1
I2
I1
I1
I-1
I-1
I2
I1
I1
I1
I0
I1
I1
I-2
I0
I-1
I2
I-1
I1
I1
I1
I-1
I1
I-1
tp58
sS'faed5131bbeebc6c.jpg'
p59
(I-1
I2
I2
I1
I0
I2
I2
I-2
I0
I1
I2
I-2
I-2
I-1
I-2
I-2
I-2
I-2
I2
I-1
I-2
I-2
I-1
I1
I1
I-1
I0
I2
I-1
I2
I-1
I2
I2
I-2
I1
I1
I2
I2
I-1
I2
I2
I-2
I-2
I-1
I0
I-1
I-2
I-2
I-2
I1
I-2
I1
I1
I-1
I2
I2
I2
I2
I0
I2
I2
I2
I2
I2
I2
I0
I1
I2
I2
I2
I2
I2
I1
I-1
I1
I2
I2
I2
I1
I0
I1
I-1
I2
I2
I2
I2
I-2
I-2
I-1
I-2
I2
I-1
I1
I0
I-2
I-2
I-2
I-2
I-1
I-1
I-2
I0
I-2
I-2
I1
I-2
I1
I0
I-1
I-1
I-1
I-2
I1
I-1
I-2
I1
I-2
I-1
I-2
I-2
I1
I-2
I-2
I2
I0
I-1
I-1
I-1
I-2
I-2
I-2
I0
I1
I-1
I-1
I-2
I-2
I-2
I-2
I-1
I-2
I-2
I-2
I-2
I-2
I-2
I1
I2
I1
I-2
I-2
I-2
I-2
I-1
I1
I-2
I-1
I-2
I-2
I-2
I0
I2
I2
I1
I2
I-2
I-1
I-2
I0
I-1
I-2
I-2
I-2
I1
I1
I-2
I1
I-1
I2
I2
I1
I2
I-1
I2
I1
I-2
I2
I1
I1
I1
I1
I1
I-2
I-2
I1
I1
I2
I-1
I-2
I-2
I-2
I-2
I2
I2
I2
I2
I0
I-1
I1
I1
I2
I2
I2
I0
I1
I1
I1
I2
I2
I2
I2
I-1
I1
I0
I1
I2
I2
I1
I2
I-1
I-1
I0
I2
I2
I2
I2
I1
I2
I2
I-1
I-2
I-2
I0
I-1
I1
I-1
I-1
I2
I-2
I2
I1
I-1
I2
I2
I2
I2
I-1
I2
I2
I2
I2
I2
I1
I1
I2
I2
I2
I2
I2
I-1
I-1
I-2
I-1
I1
I2
I0
I-1
I-1
I0
I1
I1
I2
I1
I2
I-2
I-1
I0
I-1
I2
I-1
I2
I2
I-2
I-2
I-2
I-2
I-1
I-1
I-2
I1
I-2
I-2
I1
I-1
I2
I0
I-2
I-1
I1
I-2
I1
I-1
I-2
I1
I-1
I2
I-1
I-2
I1
I-2
I-2
I1
I-1
I1
I-1
I-1
I-2
I-2
I-1
I1
I1
I1
I1
I-2
I-2
I-2
I-2
I-1
I-2
I-1
I-2
I-1
I0
I-1
I1
I2
I2
I-1
I2
I1
I-2
I-2
I1
I-2
I-1
I-1
I-1
I0
I-2
I2
I1
I1
I2
I-1
I1
I1
I-1
I-2
I-2
I-2
I-2
I-1
I-2
I-2
I-1
I-2
I2
I1
I-1
I2
I-1
I2
I1
I1
I2
I1
I-1
I1
I0
I1
I1
I-1
I1
I-1
I1
I0
I-2
I1
I-1
I1
I2
I2
I1
I2
I2
I2
I2
I1
I1
I-2
I1
I-2
I-1
I1
I-1
I-1
I-1
I1
I1
I1
I1
I-1
I-1
I1
I0
I-1
I2
I-1
I0
I-2
I-1
I-1
I-1
I2
I0
I-1
I-1
I1
I-2
I-1
I0
I-2
I2
I-1
I-1
I1
I1
I1
I-1
I-1
I-1
I-1
I-1
I-1
I-2
I-1
I-2
I-2
I1
I1
I-2
I2
I1
I0
I-1
I1
I-1
I-2
I-1
I-1
I-1
I-1
I-1
I-2
I-1
I1
I1
I1
I0
I1
I-1
I2
I1
I1
I2
I0
I2
I0
I2
I1
I-1
I1
I1
I-2
I0
I0
I-1
I2
I1
I1
I0
I-1
I2
I0
I-1
I-2
I2
I1
I1
I2
I-1
I1
I2
I0
I1
I-1
I2
I1
I1
I1
I1
I-1
I1
I-1
I-1
I-2
I2
I1
I0
I2
I2
I-2
I-2
I0
I-2
I-1
I-1
I1
I1
I1
I2
I-2
I-2
I-2
tp60
sS'f0e23ac975516776.jpg'
p61
(I-1
I-2
I-1
I1
I-1
I-1
I0
I-1
I1
I2
I1
I-1
I-1
I-2
I1
I-2
I-2
I-2
I-1
I-2
I-2
I-2
I-2
I2
I1
I-1
I1
I2
I-1
I1
I-1
I1
I0
I-1
I2
I-1
I-1
I-1
I-2
I-2
I-2
I2
I1
I1
I2
I2
I1
I0
I-1
I-1
I-1
I2
I2
I1
I1
I1
I2
I1
I0
I2
I2
I-1
I1
I2
I2
I0
I0
I2
I-1
I1
I2
I2
I1
I0
I1
I-1
I1
I2
I2
I-1
I1
I-2
I1
I-1
I1
I2
I-2
I-1
I1
I-1
I-1
I-1
I1
I2
I0
I1
I2
I1
I1
I2
I2
I1
I1
I2
I-1
I1
I0
I-2
I-2
I1
I1
I-2
I-2
I-2
I-2
I-1
I-2
I1
I-2
I-2
I-1
I-2
I-2
I2
I-2
I0
I-2
I1
I1
I1
I1
I2
I1
I1
I2
I2
I-1
I-1
I1
I-1
I2
I2
I2
I2
I-2
I-1
I1
I-2
I2
I1
I2
I2
I-2
I-1
I-2
I-2
I0
I1
I1
I-1
I-2
I-2
I-1
I0
I-1
I1
I-1
I1
I-1
I0
I1
I0
I2
I-1
I-1
I-2
I-2
I-2
I2
I2
I0
I2
I-2
I1
I-2
I-2
I2
I2
I-1
I2
I2
I-1
I-1
I2
I-1
I-2
I-2
I-2
I-1
I-2
I-1
I-1
I-2
I-2
I-1
I1
I2
I-1
I-1
I-2
I-2
I-2
I-1
I-2
I-1
I-2
I-2
I1
I-2
I-1
I-1
I1
I-2
I-2
I1
I0
I1
I1
I0
I2
I2
I2
I1
I2
I-1
I-2
I-2
I-1
I-1
I2
I-1
I-2
I-2
I-1
I2
I2
I1
I2
I-1
I-1
I2
I1
I2
I1
I2
I1
I2
I2
I1
I0
I-2
I1
I1
I-2
I0
I-2
I-2
I-2
I1
I1
I2
I0
I-1
I-2
I-2
I-1
I2
I2
I2
I1
I2
I-1
I-1
I1
I-1
I-1
I-2
I-2
I-1
I-2
I-2
I-2
I0
I-1
I1
I1
I0
I-2
I-2
I-1
I-2
I1
I0
I-2
I-1
I2
I1
I2
I2
I2
I1
I-2
I-2
I-2
I-2
I2
I1
I1
I-1
I-1
I2
I2
I-1
I2
I2
I1
I0
I2
I2
I1
I1
I2
I1
I1
I2
I2
I1
I-1
I1
I1
I1
I2
I1
I1
I2
I-1
I2
I0
I2
I2
I-1
I2
I2
I-2
I1
I1
I2
I1
I2
I2
I2
I-1
I1
I2
I1
I0
I1
I1
I-1
I0
I-1
I-2
I-2
I-2
I-2
I-2
I-2
I-1
I-2
I2
I1
I1
I0
I-1
I-1
I-2
I-2
I-1
I-2
I-1
I-1
I-1
I-1
I-1
I-1
I2
I-1
I1
I2
I2
I-1
I-1
I0
I1
I2
I2
I2
I2
I-2
I-2
I-1
I-2
I2
I2
I0
I-1
I-2
I-2
I-2
I-2
I-2
I-2
I-2
I-2
I-1
I-1
I0
I2
I-1
I-1
I0
I2
I0
I1
I1
I1
I2
I2
I-1
I-1
I1
I-2
I2
I0
I1
I1
I-1
I1
I-1
I-2
I1
I1
I-1
I1
I1
I-1
I-2
I0
I1
I-2
I-2
I-1
I2
I-2
I-1
I-1
I-2
I-2
I-2
I-2
I-2
I-2
I-2
I-2
I-2
I0
I2
I2
I-1
I-1
I1
I2
I1
I2
I1
I1
I1
I1
I2
I1
I2
I0
I-1
I-1
I2
I1
I-1
I-2
I-2
I-2
I-2
I-2
I-2
I-1
I-1
I-2
I2
I1
I1
I2
I-1
I2
I2
I2
I1
I1
I0
I1
I2
I-2
I0
I1
I2
I1
I0
I2
I2
I-1
I-1
I-2
I1
I-2
I-2
I-1
I-1
I-1
I-1
I1
I2
I1
I-1
I2
I2
I1
tp62
sS'014e1374213c83e9.jpg'
p63
(I-1
I-1
I-1
I1
I-1
I-1
I0
I0
I1
I-2
I1
I1
I-1
I2
I1
I2
I1
I2
I-1
I1
I0
I2
I2
I-1
I2
I1
I2
I1
I-2
I-2
I1
I-1
I-2
I2
I-1
I1
I-1
I1
I1
I0
I2
I1
I1
I1
I-2
I-2
I1
I0
I-1
I-1
I0
I-2
I-2
I-2
I0
I-1
I-2
I0
I-2
I-2
I-2
I1
I1
I-1
I0
I2
I2
I-1
I2
I2
I-2
I-2
I-1
I-2
I2
I-1
I-1
I-2
I-2
I-2
I-1
I-2
I-2
I-2
I-2
I-2
I-1
I1
I-2
I2
I-2
I-2
I-1
I1
I2
I1
I0
I2
I2
I2
I2
I1
I-1
I-2
I-2
I1
I-1
I2
I2
I-1
I2
I2
I2
I2
I2
I1
I-1
I2
I2
I2
I2
I2
I1
I1
I2
I2
I2
I2
I-1
I-2
I1
I-2
I1
I0
I-1
I-1
I-2
I1
I2
I-1
I-2
I-2
I-1
I-1
I2
I2
I2
I2
I1
I1
I1
I-2
I2
I1
I-2
I-1
I1
I-1
I-2
I1
I-1
I-2
I-1
I-1
I-1
I-2
I-1
I-2
I-1
I1
I1
I1
I0
I-2
I-2
I2
I1
I-1
I-2
I-2
I-2
I-2
I-2
I-2
I-2
I-2
I-2
I-2
I0
I2
I-1
I-1
I-2
I-1
I-2
I1
I2
I1
I1
I-1
I-1
I1
I1
I1
I-1
I-1
I0
I-1
I0
I1
I1
I-1
I1
I0
I-2
I1
I1
I2
I2
I2
I2
I2
I2
I2
I2
I1
I-1
I1
I-1
I-2
I-1
I2
I-2
I-2
I2
I0
I1
I-1
I-1
I-1
I2
I-1
I1
I-2
I1
I2
I1
I1
I-1
I2
I0
I-1
I2
I2
I1
I1
I1
I1
I-1
I0
I1
I1
I1
I-1
I1
I-1
I-1
I1
I-1
I0
I-1
I-1
I1
I-1
I1
I2
I-1
I-1
I-2
I-1
I2
I-1
I1
I0
I-2
I-2
I-2
I-2
I-2
I-1
I-2
I-2
I-1
I2
I1
I2
I1
I2
I-1
I1
I2
I1
I-1
I-1
I0
I-1
I-2
I-2
I-2
I-2
I2
I0
I-1
I2
I-1
I0
I-1
I1
I1
I1
I1
I1
I1
I-1
I1
I1
I0
I1
I1
I-1
I2
I1
I1
I2
I-1
I-1
I1
I-2
I2
I-1
I1
I-2
I-2
I-1
I1
I-2
I-2
I-2
I-2
I-2
I0
I2
I-2
I2
I-2
I-2
I-2
I2
I2
I1
I1
I2
I1
I1
I2
I2
I-1
I0
I-1
I2
I2
I2
I0
I-1
I2
I2
I2
I1
I1
I1
I1
I2
I2
I2
I-1
I-1
I-1
I-1
I-1
I2
I1
I-1
I-1
I-1
I1
I1
I2
I2
I-1
I1
I-2
I-1
I2
I-2
I-2
I-2
I-1
I-1
I2
I2
I2
I2
I1
I2
I2
I2
I2
I2
I-1
I-1
I2
I2
I1
I1
I-2
I-2
I-2
I-2
I-2
I-2
I-2
I-2
I-2
I-2
I2
I-2
I-1
I-2
I-2
I2
I-1
I-1
I-2
I-2
I-2
I-2
I-2
I-2
I-2
I-2
I-2
I-1
I-2
I2
I-2
I-1
I-1
I-1
I1
I1
I2
I2
I2
I1
I2
I2
I-1
I1
I-2
I-2
I1
I0
I2
I2
I1
I-2
I-2
I-1
I-1
I1
I1
I2
I-2
I-1
I2
I1
I-1
I2
I2
I-1
I-1
I2
I2
I1
I1
I2
I-1
I2
I2
I1
I-1
I-2
I1
I1
I2
I1
I1
I2
I1
I-1
I-1
I2
I1
I-1
I1
I1
I1
I-2
I0
I-1
I2
I-2
I-2
I-1
I-2
I-1
I-2
I-1
I-2
I1
I1
I-2
I-2
I-2
I-1
I-2
I1
I1
I2
I2
I2
I-2
I-1
I-2
tp64
sS'0198f6180133f260.jpg'
p65
(I2
I2
I2
I-2
I2
I1
I2
I2
I-2
I-1
I1
I2
I1
I1
I1
I2
I2
I2
I-1
I2
I1
I2
I2
I-2
I1
I1
I2
I2
I-1
I-2
I1
I2
I-2
I2
I-1
I2
I-1
I-2
I1
I0
I-1
I-2
I-1
I1
I-1
I1
I-2
I-2
I-1
I-1
I1
I-2
I-1
I-1
I-2
I-2
I-2
I-1
I-1
I-2
I-2
I-1
I-1
I-2
I-1
I1
I2
I0
I0
I-1
I-2
I-2
I-1
I-2
I1
I-2
I-2
I-2
I-2
I-2
I-1
I-1
I2
I-2
I-2
I-2
I-2
I-2
I-2
I-2
I-2
I-2
I-2
I-2
I2
I1
I0
I2
I-1
I1
I1
I-1
I2
I1
I1
I2
I-1
I1
I2
I1
I-2
I-1
I-1
I1
I2
I-1
I1
I-2
I-2
I-1
I1
I2
I0
I-1
I0
I-2
I-1
I-1
I1
I0
I2
I0
I-1
I-1
I-1
I-2
I1
I2
I2
I1
I1
I-1
I-2
I1
I2
I2
I2
I-1
I1
I-2
I-1
I1
I2
I2
I-1
I-1
I1
I-1
I1
I1
I2
I-1
I-2
I-1
I-2
I1
I1
I-2
I1
I1
I2
I2
I-1
I2
I2
I2
I2
I2
I1
I2
I2
I-2
I1
I-1
I1
I2
I1
I1
I1
I-1
I0
I-1
I2
I-1
I1
I1
I1
I0
I-1
I2
I-1
I1
I2
I2
I2
I1
I2
I0
I1
I2
I-1
I1
I1
I-2
I1
I-1
I2
I2
I-1
I-1
I-1
I-1
I0
I1
I1
I-1
I-1
I-1
I-2
I0
I-2
I1
I-1
I-1
I2
I1
I2
I2
I2
I-2
I1
I1
I2
I2
I-2
I-1
I1
I-1
I2
I1
I2
I2
I-2
I-2
I-2
I-2
I-2
I-1
I-1
I-1
I1
I1
I0
I2
I1
I2
I2
I2
I-1
I-1
I1
I-1
I2
I1
I2
I2
I-2
I-2
I-1
I-2
I1
I1
I2
I2
I-2
I-1
I-1
I-1
I-1
I1
I2
I-2
I1
I1
I-2
I1
I-1
I2
I-1
I-2
I1
I-2
I1
I-1
I-2
I-2
I-1
I1
I-2
I-1
I-2
I-2
I1
I-1
I0
I-2
I-2
I-2
I-2
I1
I-2
I0
I0
I-2
I-2
I-1
I1
I-2
I-1
I0
I2
I-2
I-1
I-1
I-2
I-2
I-1
I-2
I1
I-2
I-2
I-2
I-2
I-2
I-1
I-1
I2
I-2
I-2
I-2
I-2
I-2
I-2
I-2
I-2
I-2
I-2
I-2
I2
I1
I1
I2
I-1
I1
I-1
I-2
I2
I2
I1
I1
I-1
I2
I2
I1
I-1
I1
I1
I2
I2
I-1
I0
I-2
I-1
I1
I2
I2
I2
I0
I1
I-1
I1
I1
I1
I1
I2
I-1
I1
I0
I-1
I0
I1
I2
I2
I-1
I1
I-1
I-1
I1
I2
I2
I2
I-1
I1
I-2
I0
I1
I2
I2
I-1
I-1
I-1
I-1
I1
I0
I2
I1
I-1
I1
I-2
I2
I1
I-1
I2
I1
I2
I2
I1
I1
I2
I2
I2
I2
I-1
I1
I1
I-2
I2
I1
I2
I2
I-1
I-1
I0
I-2
I-1
I1
I2
I-1
I-1
I1
I1
I1
I1
I2
I-1
I2
I0
I1
I2
I-1
I2
I-1
I1
I2
I-1
I0
I1
I-2
I1
I-1
I2
I2
I-1
I-1
I-2
I-1
I-1
I1
I2
I-1
I0
I-1
I-2
I1
I-2
I2
I0
I-2
I1
I-1
I2
I2
I1
I-2
I-1
I2
I-2
I-2
I-1
I-2
I1
I-2
I-2
I-2
I-1
I-2
I1
I1
I1
I2
I2
I-2
I-2
I1
I-2
I2
I-2
I-2
I-1
I-2
I2
I-2
I-2
I-2
I-2
I-2
I1
I0
I-2
I2
I-2
I2
I-1
I2
tp66
sS'4ceb2cef1b520048.jpg'
p67
(I2
I-1
I1
I-2
I-2
I-2
I-2
I-2
I2
I1
I1
I-1
I1
I-1
I-1
I-1
I0
I1
I1
I2
I1
I2
I1
I-2
I1
I-1
I-2
I1
I-1
I-2
I-2
I1
I-1
I2
I2
I2
I2
I1
I-2
I-1
I-2
I1
I2
I2
I2
I2
I-1
I2
I-1
I-2
I-1
I2
I1
I-1
I2
I1
I1
I1
I1
I1
I0
I0
I-1
I0
I-1
I-1
I1
I-1
I-1
I2
I-1
I-2
I1
I-1
I-1
I-2
I2
I1
I-1
I2
I2
I1
I2
I2
I2
I2
I-1
I-1
I-2
I-2
I-1
I-1
I-2
I-1
I1
I-2
I1
I1
I-1
I-1
I0
I-2
I-1
I2
I1
I1
I-1
I-2
I-2
I-2
I-2
I-1
I-2
I-1
I-1
I2
I-1
I-2
I1
I2
I1
I0
I1
I1
I0
I2
I2
I1
I0
I1
I2
I0
I2
I2
I1
I1
I-2
I-2
I-2
I-2
I-1
I-2
I-2
I-1
I-1
I-2
I1
I1
I-1
I-2
I-1
I1
I-2
I2
I1
I1
I1
I1
I1
I-1
I1
I0
I-1
I-1
I-2
I1
I-1
I-2
I2
I1
I2
I2
I-2
I2
I2
I2
I-1
I2
I1
I-1
I-2
I-2
I2
I-2
I1
I-2
I-2
I-2
I-2
I-2
I-2
I-1
I-2
I-2
I-1
I-1
I2
I2
I1
I-2
I-2
I-1
I-1
I2
I2
I-1
I1
I-2
I-1
I-1
I1
I1
I-1
I-1
I1
I-2
I-1
I1
I-1
I-1
I-1
I-1
I-2
I-2
I-1
I-2
I1
I1
I-2
I2
I-2
I1
I-2
I1
I2
I2
I2
I2
I2
I1
I2
I2
I2
I2
I-2
I-1
I1
I-2
I-2
I-2
I-1
I-1
I2
I2
I2
I2
I1
I2
I2
I2
I2
I2
I2
I-1
I1
I2
I1
I2
I1
I1
I2
I-1
I1
I-1
I2
I1
I1
I1
I2
I-1
I2
I2
I1
I2
I-1
I1
I-1
I-2
I-2
I-1
I1
I-1
I2
I2
I-2
I2
I2
I2
I2
I-1
I-1
I-2
I-2
I-1
I-2
I-2
I2
I1
I2
I1
I-2
I1
I-2
I-1
I-1
I1
I-1
I0
I1
I-2
I-2
I1
I-1
I-1
I1
I-2
I-2
I-1
I1
I1
I2
I1
I-1
I2
I-2
I-2
I-2
I-2
I-2
I-2
I1
I1
I-1
I-1
I1
I2
I2
I2
I2
I2
I-2
I-1
I-2
I-2
I-1
I1
I0
I-1
I1
I-2
I1
I1
I-2
I1
I1
I-2
I1
I2
I2
I2
I1
I-2
I-1
I-2
I-2
I-1
I-1
I1
I1
I2
I1
I-1
I1
I2
I0
I-1
I-1
I-1
I-2
I0
I1
I0
I2
I1
I2
I2
I2
I2
I2
I1
I-2
I-1
I-2
I-2
I1
I-2
I-2
I-1
I-1
I-2
I-1
I-1
I-1
I-2
I-1
I-1
I-2
I0
I-1
I1
I-1
I-1
I0
I-2
I1
I-1
I-2
I1
I-2
I0
I-2
I-2
I2
I-1
I2
I1
I1
I2
I1
I2
I-2
I1
I1
I-1
I0
I-2
I1
I-2
I-1
I-2
I-2
I-1
I-2
I-1
I-1
I-2
I-2
I-2
I0
I-2
I2
I1
I-1
I-2
I-2
I-2
I-1
I2
I2
I1
I2
I-1
I-1
I2
I1
I1
I1
I-2
I0
I-2
I-1
I-1
I1
I0
I0
I0
I-2
I-1
I-1
I-2
I2
I2
I-1
I2
I1
I2
I1
I2
I2
I-1
I-1
I0
I2
I2
I2
I2
I-1
I1
I1
I-2
I-2
I2
I2
I2
I2
I1
I2
I2
I1
I-1
I-1
I2
I1
I2
I1
I2
I-2
I1
I1
I-2
I1
I1
I1
I-2
I-1
I-2
I2
I-1
I0
I2
I2
I-2
I-2
I-2
tp68
sS'0b892a1aaa9c4a81.jpg'
p69
(I2
I2
I2
I-2
I1
I0
I-1
I2
I-1
I-2
I-2
I1
I-2
I2
I-2
I2
I-1
I-2
I2
I0
I1
I-2
I2
I0
I2
I-1
I2
I2
I-2
I-2
I-1
I-1
I-2
I2
I0
I2
I1
I0
I0
I1
I0
I-2
I0
I-1
I-1
I-2
I-2
I1
I2
I1
I2
I0
I-1
I0
I-2
I-1
I-2
I-2
I-2
I-2
I-2
I-2
I2
I1
I-1
I2
I-2
I2
I-1
I-2
I2
I2
I1
I2
I2
I2
I1
I2
I-2
I-2
I1
I-2
I0
I-2
I0
I-1
I-2
I1
I-2
I0
I-2
I0
I-2
I-2
I2
I-1
I-1
I2
I-1
I0
I0
I-2
I0
I0
I1
I0
I-1
I1
I0
I-1
I0
I1
I2
I1
I2
I1
I1
I1
I1
I0
I0
I2
I-2
I-1
I-2
I0
I-2
I-2
I2
I1
I-2
I2
I-1
I1
I-1
I1
I2
I-1
I2
I1
I2
I1
I2
I2
I-2
I0
I0
I-2
I-1
I-1
I-1
I-2
I1
I1
I0
I1
I-1
I1
I0
I-1
I2
I0
I0
I1
I-1
I1
I0
I-2
I2
I1
I1
I1
I-2
I0
I-1
I1
I-1
I-1
I-1
I-1
I0
I-1
I-2
I-2
I-2
I-2
I0
I2
I-1
I2
I-1
I0
I-1
I1
I2
I1
I-1
I1
I1
I1
I2
I1
I-1
I-2
I1
I-1
I1
I1
I0
I-1
I-2
I1
I-1
I-1
I-1
I-1
I-2
I0
I2
I0
I-1
I1
I-1
I-1
I1
I0
I1
I0
I-1
I1
I-2
I2
I0
I0
I2
I2
I2
I2
I2
I1
I2
I0
I-1
I0
I1
I2
I0
I0
I-1
I-1
I0
I1
I2
I1
I-1
I1
I2
I1
I2
I2
I-1
I-2
I-1
I-2
I-1
I0
I1
I-2
I-1
I0
I1
I1
I-1
I2
I-1
I-1
I1
I2
I1
I1
I2
I0
I0
I2
I0
I-1
I-2
I-2
I-1
I-2
I0
I-1
I0
I0
I-2
I1
I-1
I1
I0
I0
I0
I-2
I1
I1
I1
I1
I1
I1
I1
I2
I0
I0
I-1
I-1
I1
I0
I2
I2
I-1
I-2
I0
I-1
I0
I2
I2
I-1
I-2
I-1
I-2
I0
I-2
I1
I-1
I-2
I2
I1
I0
I2
I1
I2
I-2
I2
I1
I0
I2
I-1
I1
I-2
I2
I2
I-2
I0
I-1
I-1
I-1
I1
I1
I-2
I1
I0
I-1
I1
I0
I2
I-1
I-1
I0
I-1
I0
I-1
I-1
I-1
I0
I2
I2
I1
I-2
I-2
I-2
I-2
I0
I-1
I-2
I-1
I-2
I-2
I-2
I0
I-2
I-1
I-1
I-2
I1
I1
I-2
I2
I-2
I2
I-2
I-2
I2
I2
I2
I2
I2
I2
I1
I2
I-2
I-2
I-1
I-2
I0
I-2
I0
I-1
I-2
I-1
I-2
I0
I-2
I0
I-1
I-2
I2
I1
I1
I2
I0
I2
I0
I0
I1
I1
I0
I0
I0
I-2
I1
I0
I0
I-1
I-1
I2
I1
I0
I1
I0
I-1
I0
I1
I1
I-2
I-1
I-2
I-1
I-1
I-2
I2
I2
I-2
I2
I-2
I2
I0
I1
I2
I-1
I2
I2
I2
I2
I2
I2
I-2
I0
I0
I-2
I-1
I-2
I-2
I-2
I1
I1
I-2
I1
I-2
I-1
I-2
I-2
I2
I0
I0
I2
I0
I1
I1
I-1
I0
I0
I0
I0
I-1
I0
I0
I-1
I1
I1
I1
I1
I1
I0
I1
I-2
I-1
I-2
I2
I0
I-2
I2
I1
I-1
I-2
I2
I-1
I0
I-2
I2
I1
I0
I-1
I2
I2
I-1
I1
I0
I2
I-1
I0
I0
I-2
I1
I1
I2
tp70
sS'dab4abb0280a4ce0.jpg'
p71
(I1
I1
I2
I-1
I1
I1
I2
I2
I-2
I-1
I1
I1
I2
I1
I0
I2
I2
I2
I0
I-1
I2
I2
I2
I1
I0
I2
I2
I2
I0
I-1
I2
I2
I1
I1
I2
I2
I1
I1
I-2
I-2
I-2
I-1
I-1
I2
I-1
I1
I-2
I-2
I-1
I-2
I0
I-2
I-1
I1
I-2
I-1
I-2
I0
I1
I-1
I0
I1
I-2
I-2
I-2
I-1
I-1
I-1
I1
I1
I-2
I-2
I-2
I1
I1
I1
I1
I2
I-2
I-2
I-2
I-1
I-1
I1
I2
I1
I-2
I-2
I-2
I1
I-2
I2
I1
I-2
I-1
I-1
I2
I2
I-1
I2
I0
I-2
I-1
I2
I1
I1
I-1
I1
I2
I1
I-1
I1
I-1
I1
I1
I-1
I2
I-2
I-1
I2
I-1
I0
I1
I-2
I1
I-2
I0
I1
I-1
I-1
I-1
I-1
I0
I-1
I-1
I-2
I-1
I-1
I-1
I0
I1
I-1
I-2
I-2
I-2
I-2
I-2
I-1
I-1
I-2
I-2
I-2
I-1
I-1
I-2
I1
I-2
I-2
I-1
I-1
I2
I0
I-1
I2
I-2
I2
I2
I1
I2
I1
I2
I2
I2
I1
I2
I1
I-1
I1
I-1
I1
I2
I-1
I2
I-2
I1
I2
I-2
I0
I1
I-2
I1
I-2
I-1
I-1
I-1
I1
I1
I-1
I-1
I-1
I-1
I-1
I2
I2
I2
I1
I-1
I1
I0
I-1
I2
I2
I2
I1
I1
I1
I-1
I0
I2
I1
I-2
I-1
I1
I-2
I-1
I-2
I1
I-2
I-2
I-1
I-1
I-2
I-2
I-1
I-1
I-2
I1
I-1
I1
I1
I2
I2
I2
I2
I-1
I-1
I2
I-2
I2
I-1
I2
I1
I-2
I1
I1
I-2
I-1
I1
I-1
I1
I1
I1
I-1
I1
I-1
I-1
I1
I2
I1
I0
I-1
I1
I-1
I2
I2
I2
I1
I1
I2
I1
I1
I2
I2
I2
I0
I1
I2
I-1
I-1
I2
I1
I-1
I2
I2
I1
I1
I2
I2
I-1
I-2
I1
I-1
I-2
I-2
I-2
I-2
I1
I2
I-1
I2
I-2
I-2
I-1
I-2
I-1
I-2
I-2
I1
I-1
I1
I1
I1
I2
I0
I2
I2
I-1
I-1
I-2
I-2
I1
I0
I1
I2
I-2
I-2
I-2
I-1
I-1
I0
I1
I1
I-2
I-2
I-2
I1
I-1
I2
I2
I0
I-2
I-1
I-2
I1
I-2
I2
I1
I-1
I1
I1
I2
I2
I-1
I2
I2
I0
I2
I2
I1
I2
I1
I1
I2
I2
I1
I1
I-2
I2
I0
I-2
I2
I-2
I-2
I-1
I-1
I-2
I0
I-2
I1
I-2
I-2
I-2
I-2
I-1
I0
I-1
I1
I-2
I-2
I-2
I-2
I-1
I-2
I-1
I-1
I-2
I-2
I-2
I-1
I-2
I-2
I1
I-2
I-2
I-2
I-2
I0
I-1
I-2
I2
I-1
I-2
I-2
I-1
I1
I-2
I-2
I1
I-2
I-1
I1
I1
I0
I-1
I2
I2
I2
I-1
I2
I1
I-1
I2
I-1
I2
I2
I-1
I1
I-2
I2
I2
I1
I2
I2
I-1
I-1
I1
I2
I2
I2
I2
I2
I1
I-1
I2
I2
I2
I2
I2
I2
I1
I-1
I2
I2
I2
I2
I2
I2
I1
I1
I2
I2
I2
I2
I2
I1
I-1
I2
I2
I2
I1
I1
I-1
I-2
I-2
I1
I1
I-1
I-1
I-1
I-2
I-1
I-1
I-1
I1
I2
I2
I-2
I-2
I-1
I-2
I1
I-2
I-2
I-2
I-2
I0
I-2
I-2
I-2
I0
I0
I-2
I-2
I-2
I0
I-1
I-2
I-2
I-2
I1
I1
I-2
I-2
I-1
I-1
I-1
I-1
I1
I1
I1
I-1
I1
I1
I1
tp72
sS'935e2544db71bb2c.jpg'
p73
(I2
I-1
I2
I-2
I2
I-2
I1
I2
I-2
I-1
I-2
I-2
I-2
I1
I-1
I-1
I-2
I-2
I1
I-1
I-2
I-2
I1
I1
I-1
I-2
I1
I-1
I1
I1
I2
I-1
I-2
I-1
I-2
I-2
I-2
I-2
I2
I1
I-1
I1
I2
I2
I1
I2
I-2
I-1
I2
I-2
I1
I-2
I-2
I-1
I-2
I2
I1
I-1
I-2
I-2
I-2
I-2
I2
I2
I2
I2
I-2
I1
I-1
I1
I2
I2
I2
I2
I2
I1
I2
I2
I-1
I-1
I-2
I-2
I-2
I-1
I-2
I-1
I1
I1
I2
I2
I-2
I0
I2
I2
I2
I2
I-1
I2
I-1
I2
I2
I2
I2
I1
I1
I2
I2
I-1
I2
I1
I2
I2
I-2
I2
I2
I-1
I1
I2
I2
I0
I1
I2
I-1
I-1
I-2
I2
I0
I2
I2
I1
I-1
I2
I2
I2
I2
I1
I-1
I-2
I1
I-2
I-1
I2
I-1
I-2
I-2
I2
I0
I1
I2
I1
I0
I1
I1
I-2
I-2
I-2
I-1
I-2
I-1
I-1
I-2
I-2
I-2
I1
I-1
I-1
I-1
I-1
I-2
I-2
I1
I-1
I-1
I-2
I-2
I1
I-1
I-1
I-2
I-2
I-2
I-1
I-2
I-2
I-2
I1
I0
I0
I-2
I2
I2
I1
I2
I2
I-2
I-2
I-2
I-2
I-2
I1
I-1
I-2
I-1
I1
I-1
I2
I-1
I2
I1
I1
I2
I0
I2
I1
I1
I2
I1
I1
I-1
I1
I1
I-1
I0
I1
I-1
I1
I1
I1
I1
I0
I-1
I-1
I1
I-2
I1
I1
I1
I1
I-2
I1
I2
I0
I-2
I0
I1
I2
I-1
I0
I2
I-2
I1
I1
I-1
I-2
I-1
I-2
I-2
I-2
I-2
I-2
I-2
I1
I-2
I2
I-1
I0
I-2
I-2
I2
I-1
I-2
I1
I-1
I-2
I-2
I0
I-1
I-1
I-1
I1
I-1
I-2
I1
I-1
I-1
I1
I1
I1
I1
I1
I-1
I-1
I-1
I-1
I-1
I-1
I-2
I-2
I-2
I-2
I2
I2
I2
I1
I0
I2
I2
I2
I2
I2
I0
I-1
I2
I-2
I1
I1
I1
I0
I-1
I2
I0
I-1
I-2
I-1
I-1
I-1
I2
I2
I2
I2
I-1
I1
I1
I2
I2
I2
I2
I1
I2
I2
I2
I1
I0
I-1
I-1
I-2
I-2
I1
I-1
I1
I1
I1
I2
I2
I-1
I1
I2
I2
I1
I2
I-2
I1
I-1
I2
I2
I2
I2
I0
I1
I2
I2
I-2
I-1
I0
I0
I1
I-2
I-1
I1
I0
I-1
I0
I1
I-1
I0
I1
I-1
I1
I-1
I2
I-1
I2
I1
I-1
I-2
I1
I2
I0
I2
I-1
I-2
I-2
I-1
I-2
I-2
I0
I-2
I-2
I-1
I1
I-1
I2
I2
I-1
I0
I-1
I-1
I-2
I-2
I-2
I-1
I-2
I-2
I-2
I-2
I-2
I-2
I1
I-2
I-2
I-1
I-2
I-2
I-2
I2
I1
I-1
I0
I0
I1
I1
I1
I-1
I-1
I-2
I-1
I-2
I-1
I-1
I-1
I1
I1
I0
I2
I2
I1
I2
I1
I-2
I-2
I0
I-2
I-2
I-1
I-1
I-2
I1
I2
I1
I2
I1
I2
I1
I2
I2
I0
I2
I-1
I-1
I-1
I1
I-1
I1
I2
I2
I1
I1
I1
I-1
I-1
I2
I1
I-1
I-1
I-1
I-2
I-1
I-2
I2
I1
I1
I-1
I-2
I-1
I1
I0
I-1
I1
I-1
I0
I1
I1
I-2
I1
I-1
I-1
I-1
I1
I-2
I1
I-2
I2
I-1
I1
I2
I1
I-2
I-1
I-2
I-1
I-2
I1
I1
I2
I2
I1
I1
I1
I1
I-1
I-2
I2
I2
I2
tp74
sS'7a4cefdb181e795d.jpg'
p75
(I-2
I-1
I-1
I2
I1
I2
I2
I2
I-1
I-1
I1
I1
I1
I1
I-2
I2
I1
I2
I2
I-1
I2
I2
I2
I1
I2
I2
I2
I2
I-2
I2
I2
I2
I2
I-2
I0
I1
I0
I-1
I0
I0
I-1
I1
I-2
I-1
I-2
I-2
I1
I-2
I-1
I1
I1
I-2
I-1
I-2
I-2
I-1
I-2
I-1
I-1
I-1
I-2
I-1
I-1
I-1
I-2
I1
I1
I-1
I-1
I-2
I-2
I-2
I-2
I-1
I0
I-2
I-2
I-2
I-2
I-2
I-2
I0
I-1
I-2
I-2
I1
I-2
I-2
I-1
I1
I-1
I-2
I1
I0
I-2
I0
I0
I1
I-1
I2
I1
I-1
I1
I1
I1
I2
I1
I2
I2
I1
I2
I0
I1
I1
I1
I-1
I-1
I1
I-1
I-2
I2
I2
I1
I1
I1
I-1
I-1
I-1
I1
I1
I2
I-1
I-2
I-1
I-1
I-2
I2
I2
I2
I2
I1
I1
I-1
I-2
I2
I2
I2
I-1
I2
I-1
I-2
I1
I-1
I-1
I-2
I-2
I-1
I-2
I-2
I-2
I0
I-1
I-2
I1
I-1
I-1
I-2
I-1
I1
I-1
I1
I-1
I0
I-2
I-1
I-2
I2
I-1
I0
I1
I1
I2
I-1
I2
I1
I1
I2
I1
I1
I1
I1
I1
I2
I1
I1
I1
I-1
I-1
I-1
I2
I1
I1
I2
I1
I1
I1
I-2
I2
I2
I0
I2
I2
I2
I2
I2
I2
I2
I2
I-1
I2
I1
I-2
I-1
I-2
I-1
I1
I2
I2
I1
I1
I1
I-1
I1
I1
I1
I0
I-1
I1
I1
I-2
I-2
I-2
I-2
I-2
I1
I-1
I-1
I2
I1
I1
I-1
I2
I-1
I-2
I-2
I-1
I-1
I-1
I2
I1
I-1
I-1
I-2
I1
I0
I2
I1
I2
I-1
I-2
I-2
I0
I-2
I1
I2
I1
I0
I-2
I2
I2
I1
I2
I2
I2
I-2
I1
I1
I-1
I2
I2
I2
I1
I-1
I-1
I-1
I-2
I-1
I1
I-2
I-1
I-1
I-1
I1
I-1
I0
I2
I-1
I-1
I0
I0
I2
I1
I1
I1
I2
I1
I1
I-1
I-2
I-2
I-2
I-2
I-1
I-2
I-2
I-2
I-1
I-1
I-1
I1
I1
I-2
I-2
I-1
I-2
I-2
I-2
I-1
I-1
I-2
I-2
I-2
I-1
I-2
I-2
I1
I1
I-1
I-1
I2
I-2
I-2
I-1
I-1
I-2
I-2
I1
I-1
I-1
I1
I1
I2
I1
I2
I2
I0
I1
I0
I-1
I1
I-1
I0
I-1
I0
I2
I-2
I0
I-1
I2
I0
I-2
I2
I-2
I-2
I1
I2
I2
I2
I-1
I0
I0
I1
I2
I2
I2
I1
I2
I1
I1
I-1
I1
I2
I1
I-2
I-1
I-1
I-2
I-2
I2
I1
I2
I1
I2
I-2
I-2
I-1
I-2
I-1
I-2
I-2
I-1
I-2
I-2
I-2
I1
I-2
I-1
I1
I-2
I-2
I-1
I0
I0
I1
I2
I1
I2
I-2
I-2
I-2
I1
I-1
I2
I2
I0
I2
I0
I2
I2
I2
I2
I0
I-1
I0
I1
I2
I2
I2
I-1
I-1
I1
I-1
I-2
I2
I2
I2
I1
I2
I2
I2
I-1
I2
I2
I2
I2
I2
I2
I1
I2
I2
I2
I2
I1
I2
I2
I-2
I2
I2
I1
I2
I2
I1
I-1
I-2
I1
I-1
I2
I1
I0
I-2
I-1
I1
I-1
I-1
I-2
I-2
I1
I-2
I-2
I2
I1
I-2
I-2
I-2
I-1
I-1
I-2
I-2
I-2
I1
I1
I-2
I-2
I-2
I-1
I-1
I-2
I-2
I-2
I1
I-1
I-2
I-1
I1
I1
I2
I-2
I-2
I-1
I-2
I-1
I-1
I1
I1
tp76
sS'0ebd84503a575ca5.jpg'
p77
(I2
I-2
I1
I-2
I1
I-2
I-1
I2
I-1
I2
I-1
I2
I2
I-2
I1
I-2
I-1
I1
I-1
I-1
I-2
I-1
I0
I1
I-1
I1
I1
I1
I1
I-2
I2
I1
I-2
I2
I-2
I2
I1
I-2
I2
I2
I-2
I2
I2
I2
I-1
I2
I-1
I1
I1
I-2
I2
I-2
I1
I1
I-2
I-2
I2
I-2
I1
I-2
I-2
I-1
I-2
I1
I2
I-1
I1
I-2
I-2
I2
I-1
I1
I-1
I-1
I1
I-2
I1
I1
I0
I-1
I-2
I-1
I-1
I0
I0
I-1
I-1
I-1
I-2
I1
I-2
I1
I1
I-2
I2
I-1
I-2
I2
I-2
I2
I-2
I-2
I2
I2
I2
I2
I1
I1
I2
I2
I2
I2
I-2
I-1
I2
I-2
I0
I-2
I0
I1
I-1
I2
I2
I0
I2
I0
I1
I2
I1
I2
I2
I-2
I2
I-2
I2
I2
I-2
I-1
I0
I-2
I0
I-2
I-1
I-1
I-1
I0
I-1
I0
I-1
I-1
I-1
I-1
I1
I-1
I-2
I1
I-2
I-1
I-1
I-2
I2
I2
I-2
I2
I-2
I2
I1
I1
I2
I-1
I2
I2
I2
I-2
I2
I2
I-2
I1
I-2
I0
I0
I-2
I1
I-2
I-1
I2
I-1
I-1
I2
I-1
I2
I-1
I2
I2
I-2
I-2
I2
I-2
I1
I-2
I-1
I1
I-2
I1
I1
I-1
I-1
I-1
I-1
I0
I1
I1
I1
I1
I1
I0
I1
I1
I1
I1
I-2
I-1
I-2
I1
I1
I-2
I2
I-1
I-2
I2
I-1
I2
I0
I-2
I-1
I-2
I1
I1
I-1
I2
I2
I2
I0
I2
I-1
I1
I1
I-2
I2
I-2
I1
I2
I-2
I-2
I2
I-2
I2
I-2
I-1
I1
I-2
I1
I1
I-2
I1
I-2
I-1
I2
I-1
I1
I0
I-1
I1
I-2
I1
I1
I0
I-1
I-1
I-1
I1
I0
I-1
I-1
I-1
I-1
I-2
I-1
I-2
I-1
I-1
I-2
I2
I0
I-1
I2
I-2
I2
I-1
I-2
I2
I1
I2
I2
I0
I0
I2
I2
I2
I2
I-2
I-1
I2
I-2
I1
I-2
I0
I1
I-2
I1
I2
I-1
I2
I-1
I0
I2
I-1
I1
I1
I-2
I2
I-2
I1
I2
I-2
I-1
I0
I-2
I-1
I-1
I-1
I-1
I-1
I1
I1
I1
I-1
I1
I-1
I-1
I1
I1
I-2
I1
I-2
I0
I-1
I-2
I2
I1
I-2
I2
I-2
I2
I-2
I-1
I2
I0
I2
I0
I1
I-2
I2
I2
I-2
I2
I-2
I0
I1
I-2
I2
I-2
I1
I1
I-1
I0
I2
I-2
I2
I-1
I-1
I2
I-2
I-1
I1
I-2
I1
I-2
I1
I2
I-2
I1
I-1
I-1
I-1
I0
I1
I-1
I1
I1
I0
I1
I-1
I2
I1
I1
I1
I1
I-2
I1
I-2
I1
I1
I-2
I2
I2
I0
I2
I1
I2
I2
I2
I1
I-1
I-1
I2
I2
I2
I2
I2
I1
I2
I-2
I-1
I1
I-2
I1
I-2
I1
I2
I-1
I1
I2
I-1
I2
I1
I1
I2
I-2
I-1
I0
I-2
I1
I-2
I-1
I1
I-2
I-1
I-2
I-1
I-1
I-2
I0
I1
I1
I-1
I-1
I1
I1
I1
I2
I-1
I-1
I-1
I-2
I-1
I-2
I1
I-1
I-2
I2
I-2
I-2
I2
I1
I2
I-1
I-1
I-2
I-2
I-1
I-1
I-1
I-1
I2
I2
I-2
I-1
I-1
I-2
I1
I-2
I-1
I2
I-1
I2
I-2
I1
I2
I-2
I2
I-1
I0
I-1
I-2
I1
I-1
I-2
I-1
I-1
I-2
I1
I1
I-2
I2
I-2
I2
I1
I1
I2
I1
I1
I1
I-1
tp78
sS'419205da9cc897d5.jpg'
p79
(I1
I2
I2
I-1
I2
I2
I2
I2
I-2
I-1
I-1
I1
I1
I1
I1
I1
I1
I1
I-1
I1
I1
I1
I-2
I-1
I-1
I1
I-2
I1
I1
I-1
I-2
I1
I1
I1
I1
I2
I2
I1
I-1
I2
I1
I-2
I-2
I1
I1
I0
I-2
I-2
I1
I-1
I1
I1
I-1
I1
I-2
I-1
I-1
I-1
I-1
I-2
I-1
I1
I-1
I-1
I-1
I1
I1
I0
I1
I-1
I-1
I-1
I-1
I-1
I-2
I1
I-1
I-1
I2
I2
I2
I2
I2
I2
I2
I2
I-1
I-1
I-2
I-2
I0
I-1
I1
I-1
I-1
I-2
I-2
I0
I-1
I1
I-1
I-1
I-1
I-1
I1
I1
I-1
I-1
I-1
I-1
I-1
I-1
I0
I1
I1
I1
I1
I1
I1
I2
I-1
I1
I0
I-1
I1
I-1
I1
I-1
I-1
I-1
I-1
I-1
I-2
I-1
I-2
I-2
I1
I1
I-2
I2
I1
I-1
I1
I2
I1
I-2
I1
I-1
I1
I-1
I2
I2
I-2
I-1
I-1
I-1
I-1
I2
I1
I-1
I1
I1
I-1
I1
I-1
I2
I-1
I-1
I1
I1
I1
I1
I0
I1
I-1
I0
I-2
I1
I1
I-1
I1
I0
I2
I-2
I0
I0
I-2
I-1
I1
I-2
I-2
I-1
I-2
I-2
I1
I2
I1
I2
I1
I1
I-1
I2
I2
I-1
I1
I-1
I2
I-2
I2
I1
I-2
I-2
I-2
I-2
I-1
I-1
I-2
I-2
I-2
I-1
I-2
I1
I-2
I-2
I-1
I-2
I1
I1
I-1
I2
I-1
I1
I-2
I-1
I1
I0
I1
I-1
I-1
I2
I2
I2
I1
I2
I-1
I0
I1
I-2
I-1
I-2
I-2
I-2
I0
I2
I-1
I1
I-2
I-1
I-2
I-1
I2
I1
I2
I2
I2
I-1
I1
I1
I-2
I-2
I1
I-2
I-2
I-2
I-2
I-2
I-1
I2
I2
I2
I1
I-2
I-1
I0
I2
I1
I-1
I-1
I-2
I-1
I-1
I-2
I2
I2
I1
I2
I1
I2
I-2
I-2
I1
I1
I-1
I-2
I-2
I-1
I2
I2
I1
I2
I-2
I2
I1
I-2
I-2
I-2
I1
I2
I2
I2
I1
I2
I2
I2
I2
I0
I1
I-1
I2
I-2
I-1
I1
I-2
I-2
I-1
I2
I2
I1
I2
I-2
I-2
I2
I2
I1
I1
I-2
I1
I-2
I1
I-2
I0
I1
I-2
I-1
I-2
I1
I-2
I-1
I2
I2
I2
I2
I-1
I1
I2
I1
I2
I2
I1
I2
I1
I-1
I2
I2
I1
I2
I-2
I-1
I-2
I-2
I1
I-2
I-1
I-1
I-2
I-2
I-1
I-1
I-2
I-2
I-2
I-2
I0
I2
I2
I2
I-2
I1
I-1
I-2
I2
I2
I2
I2
I2
I2
I1
I2
I-2
I-1
I-1
I-2
I-2
I-2
I-2
I-2
I2
I2
I-1
I2
I2
I-2
I-1
I-2
I1
I-2
I-2
I-2
I-2
I-2
I-2
I-2
I-1
I-1
I2
I-2
I-2
I-1
I2
I2
I-2
I2
I-2
I1
I2
I-2
I-1
I-2
I1
I-2
I1
I2
I-1
I1
I-2
I1
I-2
I-2
I2
I1
I-2
I2
I-2
I-1
I-2
I-2
I2
I-1
I2
I2
I1
I0
I-2
I-1
I-2
I2
I2
I-1
I2
I-2
I-2
I-1
I2
I1
I2
I-2
I-2
I-2
I-2
I-2
I2
I2
I2
I2
I-1
I0
I-1
I1
I2
I2
I1
I-1
I1
I2
I2
I2
I-2
I-1
I-1
I-2
I-2
I2
I2
I1
I2
I-1
I2
I2
I0
I1
I-2
I2
I2
I2
I2
I2
I1
I2
I2
I-2
I1
I1
I2
I0
I-1
I-1
I2
I1
I1
I1
I1
I-1
I-1
I-1
tp80
sS'71aeb97e76aee7b3.jpg'
p81
(I2
I1
I-2
I-2
I1
I-1
I-2
I-2
I-1
I0
I-2
I-2
I1
I0
I-2
I-2
I1
I-2
I2
I0
I2
I0
I2
I0
I2
I-1
I2
I1
I-2
I0
I1
I-1
I-2
I0
I0
I-1
I-2
I-1
I0
I-2
I-1
I-2
I1
I-2
I2
I-1
I2
I2
I2
I2
I1
I2
I2
I2
I2
I2
I2
I-1
I2
I2
I1
I2
I-1
I-1
I-2
I-2
I-2
I-2
I-1
I-1
I2
I0
I1
I2
I2
I2
I2
I2
I-2
I-2
I-1
I-2
I-2
I-1
I-1
I-1
I-1
I1
I1
I2
I-2
I1
I2
I1
I2
I2
I2
I2
I2
I2
I2
I2
I1
I1
I-2
I1
I1
I-2
I-2
I-2
I-2
I-2
I1
I-2
I-2
I2
I-1
I-1
I-1
I1
I-2
I-1
I2
I1
I1
I-1
I1
I1
I-2
I1
I-2
I-1
I1
I1
I1
I-2
I1
I-2
I1
I-1
I-1
I-1
I-2
I-2
I-2
I1
I-1
I1
I1
I-1
I-2
I1
I1
I-2
I-2
I-1
I-1
I-2
I-1
I-1
I-1
I-2
I-1
I1
I1
I1
I-1
I-2
I-2
I-1
I-1
I-1
I-2
I2
I1
I0
I-1
I1
I2
I1
I1
I0
I2
I-1
I1
I1
I-1
I-1
I-1
I-2
I0
I-2
I-1
I1
I-1
I-1
I1
I0
I-2
I-1
I1
I-2
I2
I2
I1
I2
I-2
I2
I-1
I1
I2
I2
I2
I2
I2
I1
I2
I2
I-1
I1
I-1
I-2
I-1
I-1
I1
I1
I1
I1
I1
I1
I-2
I1
I1
I0
I2
I2
I2
I2
I2
I1
I1
I1
I2
I0
I-1
I-1
I2
I-1
I1
I2
I-1
I-1
I-1
I1
I1
I-1
I2
I-2
I-2
I1
I-1
I-1
I-2
I-2
I-2
I-2
I-1
I-2
I2
I1
I-1
I2
I2
I2
I1
I2
I-1
I-2
I1
I-2
I1
I-1
I1
I-1
I-2
I-1
I-2
I-1
I-1
I-1
I-2
I-2
I-1
I-1
I-2
I1
I-1
I-2
I-2
I-2
I0
I-2
I1
I-2
I-1
I-2
I-2
I-2
I1
I-1
I0
I1
I2
I2
I1
I2
I2
I1
I1
I2
I2
I-1
I2
I2
I1
I2
I-1
I1
I-2
I-2
I-2
I-2
I-1
I-2
I2
I-1
I1
I2
I2
I1
I1
I1
I-2
I-1
I1
I-2
I-2
I-1
I-1
I1
I1
I2
I2
I2
I-1
I1
I2
I2
I2
I2
I2
I1
I1
I2
I2
I2
I2
I1
I-1
I2
I2
I-1
I-2
I-1
I-1
I-1
I1
I-2
I-2
I1
I-1
I0
I1
I2
I-1
I-1
I2
I1
I1
I2
I2
I2
I-2
I1
I-1
I-1
I-1
I2
I2
I-1
I2
I-1
I1
I1
I1
I2
I-1
I-2
I-1
I1
I-1
I-1
I1
I-1
I-2
I-1
I-1
I-2
I-2
I-1
I-1
I-2
I-2
I-2
I-2
I-2
I-2
I1
I-1
I-2
I-1
I-1
I-2
I-2
I1
I-1
I-1
I1
I0
I1
I-1
I-2
I1
I-1
I-2
I-1
I2
I-1
I-2
I-1
I-2
I-2
I-2
I-2
I0
I-2
I-2
I-1
I-2
I-2
I-2
I0
I-2
I-2
I-1
I-2
I1
I1
I1
I2
I-2
I2
I-1
I2
I2
I2
I2
I2
I2
I1
I2
I2
I1
I2
I2
I-2
I1
I2
I2
I1
I2
I1
I1
I-1
I0
I2
I1
I1
I1
I1
I0
I1
I1
I1
I1
I-2
I2
I2
I2
I2
I2
I1
I2
I2
I-2
I2
I1
I1
I-2
I-2
I-2
I2
I1
I-1
I2
I2
I-2
I-2
I-2
I-2
I-1
I-2
I-2
I-2
I1
I-1
I-1
I-1
I-1
I1
I1
I-1
I-1
I-1
tp82
sS'219dc7a4f4d1afe8.jpg'
p83
(I-1
I-1
I2
I1
I1
I0
I2
I1
I-1
I-2
I2
I1
I2
I2
I-1
I2
I2
I1
I1
I2
I2
I2
I2
I-2
I-1
I0
I1
I2
I1
I1
I1
I2
I2
I-1
I1
I1
I1
I2
I-1
I1
I1
I1
I0
I2
I1
I1
I-2
I-2
I-2
I-2
I-2
I-2
I-2
I-1
I-1
I-1
I-2
I2
I1
I-1
I1
I-1
I-2
I-2
I-2
I-1
I-2
I1
I-1
I-1
I-1
I-2
I0
I2
I1
I2
I2
I2
I-2
I-1
I-1
I-1
I1
I1
I1
I-1
I-2
I-2
I-1
I-1
I1
I-1
I-2
I-1
I-2
I-1
I-1
I-1
I1
I-2
I-1
I-1
I-2
I-1
I-1
I-2
I-2
I-1
I2
I0
I-2
I-2
I-1
I2
I1
I0
I2
I-2
I-2
I0
I1
I-1
I-1
I-2
I-2
I-2
I-2
I-2
I1
I1
I-2
I2
I-1
I-1
I-1
I-2
I1
I-2
I-1
I1
I0
I-1
I-2
I-2
I-2
I-1
I1
I0
I-2
I-2
I-2
I-2
I1
I2
I2
I2
I1
I-1
I-1
I-2
I1
I1
I2
I-1
I1
I-2
I-2
I-1
I1
I2
I-1
I-2
I-2
I2
I2
I1
I2
I2
I2
I2
I2
I-1
I2
I2
I2
I2
I0
I2
I1
I-2
I0
I2
I1
I-1
I2
I1
I1
I0
I-2
I1
I-1
I-2
I2
I2
I2
I2
I-1
I1
I-1
I1
I2
I2
I1
I1
I1
I1
I2
I2
I2
I1
I2
I-1
I-1
I2
I2
I2
I2
I2
I2
I1
I1
I2
I2
I2
I1
I2
I-1
I2
I2
I-2
I-2
I1
I-1
I2
I-2
I-2
I-2
I-1
I-2
I-1
I1
I0
I-2
I-1
I-1
I2
I-1
I2
I2
I2
I1
I1
I-1
I1
I-1
I2
I2
I1
I2
I1
I-1
I1
I2
I2
I2
I1
I-1
I-2
I-2
I-2
I-1
I1
I-1
I1
I-2
I-2
I-2
I1
I1
I0
I1
I2
I-2
I-2
I-2
I-1
I-1
I-1
I1
I1
I-2
I-2
I1
I1
I2
I1
I1
I2
I-2
I-2
I-2
I-1
I-2
I-2
I-1
I-2
I-2
I-2
I0
I-2
I-2
I1
I1
I-2
I-2
I-1
I-2
I-2
I-2
I-1
I-2
I-2
I-2
I-2
I-1
I-2
I-1
I2
I-1
I1
I-1
I-1
I-1
I1
I0
I1
I1
I1
I0
I-1
I-1
I-1
I1
I-1
I1
I-1
I-2
I-2
I-2
I-1
I-2
I-1
I1
I-2
I-2
I-2
I-1
I-2
I-1
I-2
I-2
I2
I2
I1
I-1
I0
I2
I2
I2
I-1
I2
I-1
I-1
I1
I2
I2
I2
I-2
I1
I-2
I-1
I-2
I1
I2
I-1
I-1
I-1
I-1
I-2
I-2
I2
I1
I-1
I1
I-1
I-1
I-2
I-2
I1
I0
I1
I1
I-1
I-1
I-2
I-2
I1
I2
I2
I1
I-1
I-1
I-1
I-1
I2
I2
I2
I1
I1
I0
I-1
I1
I2
I2
I-1
I-1
I1
I1
I1
I1
I2
I2
I0
I1
I2
I-1
I2
I2
I2
I2
I-1
I1
I1
I-2
I-1
I2
I1
I1
I2
I2
I1
I1
I-1
I2
I2
I1
I2
I2
I1
I1
I-1
I2
I1
I2
I2
I2
I1
I1
I0
I1
I2
I2
I2
I1
I0
I0
I-1
I2
I2
I2
I1
I1
I1
I1
I1
I2
I2
I2
I-1
I-1
I-1
I2
I1
I-2
I-2
I1
I-2
I-2
I-2
I-1
I-2
I-2
I-1
I-2
I2
I-1
I-1
I-2
I-2
I1
I-2
I-1
I-1
I-1
I2
I1
I-2
I-2
I-2
I-1
I0
I-2
I-2
I-2
I0
I1
I-2
I-2
I-2
I-1
I-1
I-2
I-1
I1
tp84
sS'5dc56a09854fa7d2.jpg'
p85
(I-2
I-2
I-2
I2
I-2
I-1
I-1
I0
I2
I-2
I1
I2
I0
I2
I2
I2
I2
I1
I-2
I2
I0
I-1
I1
I-2
I2
I-2
I-1
I-1
I-2
I2
I-2
I-2
I-2
I-2
I-1
I-2
I-2
I-2
I1
I-2
I-2
I2
I1
I1
I1
I0
I2
I1
I-1
I-1
I1
I1
I-1
I0
I0
I-2
I-2
I-1
I-2
I-1
I-1
I-1
I0
I-2
I0
I2
I-1
I2
I1
I2
I-1
I1
I2
I1
I1
I1
I2
I2
I-1
I1
I2
I-1
I1
I2
I2
I2
I1
I2
I2
I-1
I-1
I1
I2
I0
I2
I2
I2
I1
I2
I2
I1
I-1
I2
I2
I-2
I-2
I-2
I-1
I-1
I-1
I-1
I-2
I0
I1
I1
I1
I1
I1
I-1
I1
I0
I1
I-2
I-1
I-1
I-1
I-1
I0
I1
I-1
I-1
I1
I2
I1
I1
I2
I-2
I-2
I-2
I-2
I-1
I-1
I2
I-1
I-2
I-2
I-1
I1
I1
I2
I1
I0
I-2
I-2
I-2
I-1
I-2
I-1
I-1
I-2
I0
I-1
I2
I2
I-2
I1
I0
I1
I1
I2
I2
I2
I2
I1
I-1
I-1
I2
I-1
I2
I1
I1
I1
I1
I2
I0
I-1
I-1
I1
I-1
I-1
I1
I-1
I-2
I-2
I0
I-1
I1
I-1
I2
I-2
I-2
I-1
I-2
I-2
I-2
I-2
I-2
I-2
I-2
I-2
I1
I-1
I1
I2
I0
I-2
I-2
I1
I0
I1
I-1
I0
I-1
I-2
I1
I2
I2
I0
I-2
I1
I1
I1
I2
I2
I-1
I-2
I-1
I2
I2
I-2
I-2
I-2
I-2
I-2
I1
I0
I1
I2
I-1
I-1
I1
I2
I1
I1
I2
I1
I-1
I2
I2
I0
I2
I2
I2
I1
I1
I2
I1
I2
I1
I2
I2
I-1
I0
I-1
I1
I1
I2
I2
I2
I0
I2
I1
I1
I1
I-1
I-1
I-1
I-2
I2
I-1
I-2
I-2
I-2
I-2
I-2
I-2
I-1
I-2
I-2
I-2
I-2
I-2
I1
I-2
I-2
I2
I1
I2
I1
I1
I2
I-1
I-2
I-2
I1
I-1
I-1
I1
I-2
I-2
I-2
I-1
I-2
I-1
I0
I-1
I0
I-1
I1
I2
I2
I2
I1
I2
I-2
I-1
I-1
I-2
I0
I-1
I1
I2
I-1
I-1
I1
I0
I-1
I1
I2
I2
I-1
I2
I2
I1
I-1
I2
I2
I1
I2
I2
I2
I1
I0
I2
I1
I-2
I2
I2
I0
I1
I-2
I-1
I1
I-1
I2
I0
I-1
I1
I1
I1
I1
I2
I0
I0
I-1
I0
I-2
I-1
I-1
I-1
I-1
I-1
I1
I-1
I1
I1
I2
I-1
I1
I2
I-2
I-1
I-1
I-2
I1
I-2
I1
I-1
I-2
I-2
I-2
I-1
I1
I1
I-1
I-1
I-2
I-2
I-2
I-1
I-2
I-2
I-2
I1
I-1
I-1
I-1
I2
I-2
I1
I2
I2
I2
I2
I2
I2
I2
I-2
I-2
I-2
I-2
I-2
I0
I0
I1
I2
I0
I1
I-1
I0
I0
I1
I1
I0
I1
I-1
I1
I-1
I1
I-1
I2
I-1
I2
I-1
I-2
I-1
I-2
I-1
I-1
I-2
I-2
I-2
I-2
I-2
I1
I1
I2
I2
I0
I-2
I-2
I-1
I1
I2
I-1
I0
I2
I-2
I-1
I1
I-1
I-2
I-2
I-2
I-1
I-2
I-2
I0
I-2
I-2
I1
I-1
I1
I2
I-1
I-2
I2
I1
I1
I2
I1
I0
I-1
I1
I-1
I-2
I1
I2
I2
I2
I1
I1
I2
I2
I-1
I1
I2
I2
I2
I-1
I1
I1
I1
I2
I-1
I2
I-1
I2
I1
I-2
I2
I0
I-1
I-2
tp86
sS'0bba3e17ca2757e4.jpg'
p87
(I-2
I-1
I-1
I2
I-2
I2
I2
I-1
I2
I2
I2
I1
I2
I-2
I1
I-1
I-1
I0
I-1
I2
I-2
I-1
I1
I-2
I-1
I-2
I-2
I1
I1
I0
I-1
I2
I-1
I0
I2
I2
I-1
I-2
I-2
I-2
I-2
I1
I-2
I0
I1
I1
I1
I-2
I-2
I0
I-2
I1
I1
I2
I1
I-1
I1
I2
I0
I2
I2
I2
I-2
I1
I2
I0
I1
I2
I2
I2
I0
I1
I2
I-1
I2
I2
I1
I2
I-1
I2
I1
I-2
I2
I-1
I0
I1
I-1
I-2
I-2
I-2
I-2
I-2
I-2
I-2
I1
I1
I2
I2
I-2
I-1
I-2
I-1
I2
I2
I2
I0
I1
I-1
I-1
I-1
I-1
I-2
I-1
I-1
I-2
I1
I1
I-1
I-1
I-2
I-2
I-2
I-2
I-1
I-1
I-2
I-2
I-2
I-2
I-2
I-2
I1
I-2
I-2
I-2
I-2
I-2
I-1
I1
I2
I1
I-1
I1
I0
I-2
I0
I2
I-1
I1
I-1
I-1
I-1
I-1
I2
I1
I-1
I-1
I-2
I-1
I1
I2
I2
I0
I1
I1
I0
I2
I2
I1
I-1
I-1
I2
I2
I1
I1
I-1
I-1
I-2
I2
I1
I2
I1
I-1
I1
I-1
I-2
I2
I2
I2
I1
I-1
I-1
I-2
I-2
I2
I2
I1
I1
I1
I-2
I-1
I1
I2
I-1
I1
I-1
I-1
I-2
I1
I2
I0
I1
I2
I1
I1
I1
I2
I2
I1
I1
I0
I-1
I2
I2
I1
I2
I-1
I-2
I-2
I-2
I2
I-1
I-1
I0
I-2
I-2
I-2
I-2
I-2
I1
I-1
I-1
I1
I1
I2
I1
I1
I1
I-2
I2
I2
I1
I2
I2
I2
I2
I2
I2
I2
I2
I2
I1
I2
I-2
I2
I1
I1
I2
I-1
I-1
I-1
I-2
I2
I-1
I1
I-1
I-2
I-2
I-2
I-2
I-1
I-2
I-2
I-1
I-2
I-1
I1
I1
I1
I-2
I1
I-1
I-2
I1
I2
I-1
I1
I1
I-1
I-2
I0
I2
I-1
I-2
I-2
I-1
I-2
I0
I0
I-1
I-1
I-2
I-2
I0
I-2
I0
I-1
I2
I-1
I-2
I-1
I2
I0
I1
I2
I1
I-2
I-1
I1
I0
I1
I2
I1
I0
I-2
I-1
I2
I-2
I-1
I0
I-2
I1
I1
I2
I2
I1
I2
I-1
I1
I1
I1
I-1
I-1
I-2
I-1
I-1
I-1
I-1
I1
I1
I2
I1
I-2
I1
I1
I1
I2
I2
I2
I2
I2
I0
I0
I-1
I0
I-2
I1
I1
I-1
I1
I2
I1
I-1
I-1
I-2
I-2
I-2
I-2
I-2
I-2
I-2
I-2
I-1
I-1
I0
I2
I-2
I-2
I-2
I-1
I0
I2
I1
I2
I2
I-1
I1
I1
I-1
I-1
I1
I-2
I0
I-2
I-1
I0
I-1
I1
I-1
I0
I0
I-1
I0
I2
I1
I-1
I-2
I0
I0
I0
I1
I2
I-1
I-2
I0
I2
I2
I0
I-1
I-2
I-2
I-2
I2
I1
I2
I2
I1
I1
I1
I-2
I1
I2
I2
I-1
I-1
I0
I-2
I-2
I2
I2
I1
I1
I1
I-2
I-1
I1
I1
I-1
I2
I-1
I1
I-2
I0
I2
I-1
I1
I1
I-1
I1
I-1
I1
I1
I0
I0
I0
I-1
I2
I0
I0
I1
I-2
I-1
I-2
I-2
I2
I-1
I-1
I-2
I-2
I-2
I-2
I-2
I-2
I2
I-1
I0
I2
I-1
I0
I0
I-2
I2
I2
I2
I2
I1
I2
I1
I2
I-1
I2
I-1
I0
I1
I-2
I2
I-2
I-1
I0
I-2
I1
I-1
I0
I1
I-1
I1
I-1
I1
I2
I-1
I-2
I2
I2
I2
tp88
sS'22db8a417ce6e00d.jpg'
p89
(I1
I0
I-1
I-1
I-1
I-1
I-1
I-2
I1
I2
I0
I-1
I2
I-2
I1
I-2
I1
I-1
I-1
I-1
I1
I-1
I-1
I1
I1
I1
I0
I-2
I-1
I0
I-1
I-2
I-2
I0
I-1
I-2
I-2
I-2
I1
I-2
I-2
I0
I1
I-1
I2
I2
I1
I1
I0
I1
I-1
I2
I2
I2
I1
I1
I2
I1
I2
I2
I2
I1
I-2
I-1
I-1
I-2
I-2
I1
I-2
I-1
I1
I1
I-1
I2
I-1
I-1
I1
I1
I1
I0
I1
I1
I-2
I2
I1
I2
I2
I2
I2
I2
I1
I2
I2
I2
I2
I2
I2
I-1
I0
I2
I2
I0
I2
I2
I0
I2
I-1
I-2
I-2
I1
I-2
I-2
I-2
I-2
I-2
I-1
I-1
I-2
I-2
I-2
I-2
I-2
I-1
I1
I-2
I-2
I-2
I-1
I-1
I2
I1
I2
I2
I-1
I2
I0
I1
I-1
I-2
I-2
I-1
I0
I-2
I-1
I-1
I-1
I-2
I1
I1
I-2
I-1
I0
I-2
I-2
I-2
I-1
I-1
I-1
I-1
I-2
I-2
I-2
I-2
I1
I-2
I1
I-1
I0
I0
I1
I2
I1
I2
I2
I2
I1
I-1
I1
I2
I2
I2
I-1
I-1
I-2
I0
I1
I2
I2
I1
I1
I2
I1
I1
I2
I1
I-2
I0
I-2
I-2
I-2
I0
I1
I0
I2
I2
I2
I1
I2
I2
I1
I1
I1
I1
I-1
I1
I1
I-1
I-2
I0
I1
I-1
I-1
I-1
I-1
I-2
I-2
I2
I1
I-1
I1
I1
I-1
I-1
I0
I0
I-2
I-1
I-2
I-1
I1
I2
I2
I2
I2
I-1
I0
I-1
I-2
I1
I2
I2
I1
I-1
I-1
I2
I-1
I2
I2
I1
I-1
I-2
I0
I-2
I-2
I1
I-1
I-2
I1
I-1
I-2
I-1
I-1
I-2
I-2
I0
I-1
I-1
I1
I1
I2
I-1
I2
I1
I2
I2
I2
I1
I1
I0
I2
I2
I2
I2
I1
I1
I0
I1
I2
I2
I1
I0
I1
I-1
I2
I-1
I-2
I-2
I1
I-2
I-2
I-2
I-2
I-2
I-1
I-2
I-2
I-2
I-2
I-1
I-1
I1
I2
I-2
I-2
I-2
I1
I1
I2
I2
I2
I2
I-1
I2
I-1
I-1
I0
I-2
I-2
I-1
I-1
I-2
I-2
I1
I-1
I-2
I1
I2
I-2
I-1
I-1
I-2
I-2
I-2
I-2
I1
I-2
I-2
I-2
I-2
I-2
I-2
I-1
I-2
I-2
I-2
I-2
I-1
I1
I2
I0
I1
I2
I2
I0
I-2
I1
I2
I2
I2
I0
I-1
I-2
I1
I2
I2
I2
I1
I1
I2
I1
I2
I2
I-1
I-2
I1
I-2
I-2
I-1
I-1
I0
I1
I2
I2
I2
I2
I2
I2
I2
I2
I1
I2
I-2
I1
I1
I1
I1
I1
I2
I2
I-1
I-1
I0
I1
I1
I2
I2
I0
I1
I1
I1
I1
I1
I2
I-1
I-1
I1
I-1
I2
I2
I2
I2
I2
I-1
I-1
I-1
I-2
I1
I2
I-1
I-1
I-2
I-2
I1
I-1
I0
I-1
I-2
I-2
I-2
I1
I-2
I0
I1
I-2
I-2
I1
I0
I-2
I-1
I-1
I-1
I-2
I1
I-1
I-2
I-1
I0
I1
I1
I2
I0
I1
I-1
I-1
I-1
I-1
I0
I-1
I1
I2
I-1
I-1
I-1
I0
I-1
I1
I2
I0
I-1
I1
I1
I2
I1
I-2
I-2
I-2
I-2
I1
I1
I2
I-1
I1
I2
I2
I1
I0
I2
I2
I2
I0
I2
I-1
I-1
I-2
I-2
I-2
I1
I0
I1
I2
I1
I-1
I-1
I-1
I-1
I1
I-2
I-2
I-2
I-1
I-2
I0
I-1
I2
tp90
sS'ba95d11cab4531cc.jpg'
p91
(I1
I-1
I2
I-1
I2
I-1
I2
I2
I-2
I1
I-1
I2
I2
I-1
I0
I1
I1
I-1
I0
I-1
I1
I0
I0
I1
I1
I0
I0
I2
I-1
I-2
I-1
I2
I-2
I2
I1
I2
I0
I0
I-1
I-1
I-1
I1
I1
I2
I1
I1
I-2
I-2
I1
I-2
I2
I-2
I-2
I1
I-2
I-2
I-1
I-2
I0
I-2
I-1
I-2
I-2
I-1
I-1
I0
I-1
I-1
I-2
I-1
I1
I0
I0
I1
I0
I-1
I0
I1
I0
I0
I1
I0
I2
I0
I1
I2
I-2
I-2
I-2
I-2
I-2
I-2
I0
I-2
I2
I0
I1
I2
I-1
I2
I0
I2
I0
I1
I1
I1
I2
I-1
I2
I1
I-1
I2
I-1
I2
I2
I-1
I2
I-2
I1
I2
I-1
I1
I1
I-2
I-1
I-2
I1
I1
I2
I2
I1
I1
I1
I2
I2
I1
I1
I0
I0
I-1
I0
I1
I-1
I1
I-1
I-1
I2
I0
I2
I-1
I0
I2
I-2
I0
I-2
I-2
I-2
I-2
I-1
I-2
I2
I0
I-1
I2
I1
I2
I1
I1
I-2
I-2
I-1
I-1
I0
I1
I1
I2
I2
I2
I-2
I-1
I2
I-2
I2
I-1
I-1
I1
I-2
I-1
I-2
I-2
I1
I-2
I-1
I-1
I-1
I-2
I-1
I-1
I-2
I-1
I-1
I0
I-1
I1
I1
I2
I1
I1
I2
I2
I-1
I0
I2
I-1
I2
I1
I2
I2
I-2
I1
I-2
I-2
I-2
I-1
I2
I-2
I2
I-1
I1
I2
I1
I2
I0
I2
I-1
I0
I-1
I-1
I1
I-2
I1
I0
I-1
I-1
I-2
I1
I2
I0
I2
I-2
I-1
I2
I-1
I1
I1
I-2
I0
I-2
I-1
I1
I1
I1
I-1
I0
I1
I-1
I1
I1
I0
I-2
I-1
I-1
I1
I-1
I0
I1
I-2
I-2
I1
I-1
I2
I-1
I0
I0
I-2
I-2
I-2
I-2
I-2
I-2
I-2
I-2
I2
I0
I1
I2
I2
I2
I0
I1
I-2
I-1
I-2
I-2
I-1
I1
I2
I1
I0
I1
I1
I1
I2
I-1
I2
I-1
I1
I2
I-2
I1
I1
I-2
I1
I-2
I0
I2
I-1
I-1
I1
I-1
I1
I-1
I1
I2
I-1
I0
I1
I-1
I0
I-1
I2
I2
I-1
I0
I2
I0
I0
I2
I2
I1
I0
I2
I-2
I0
I-2
I2
I1
I-2
I2
I0
I2
I2
I1
I2
I-1
I1
I-1
I1
I-1
I-2
I0
I0
I1
I1
I-2
I-1
I-1
I-1
I2
I-1
I2
I-2
I-2
I1
I-2
I0
I1
I-2
I1
I-2
I-2
I-1
I-2
I-1
I1
I-1
I2
I-2
I-2
I1
I-2
I-2
I-2
I-2
I0
I-2
I-2
I-2
I-2
I-2
I-2
I0
I-1
I-2
I-2
I-2
I-1
I-1
I-2
I1
I-2
I-1
I-2
I-2
I2
I1
I2
I2
I2
I2
I0
I1
I-1
I0
I-2
I-2
I-1
I2
I2
I1
I1
I2
I1
I2
I2
I-1
I2
I0
I2
I2
I-1
I2
I2
I-2
I1
I-1
I2
I2
I1
I2
I2
I-1
I2
I1
I2
I2
I-1
I2
I1
I-2
I-1
I-1
I2
I1
I2
I2
I1
I1
I-1
I2
I1
I0
I2
I2
I-2
I1
I-2
I2
I1
I-1
I2
I0
I2
I2
I1
I2
I1
I1
I-1
I1
I-1
I1
I1
I-1
I0
I1
I-2
I-2
I1
I-1
I2
I-2
I-2
I-1
I-2
I2
I-2
I-2
I1
I-2
I2
I-2
I-2
I-2
I-2
I-1
I-1
I-1
I-2
I1
I-1
I0
I-1
I-2
I1
I-2
I1
I-1
I-1
I2
I0
I-1
I-1
I0
tp92
sS'4085261d622ba0fb.jpg'
p93
(I1
I-1
I2
I-1
I0
I-2
I2
I0
I0
I0
I2
I0
I-1
I0
I-2
I0
I-1
I-2
I2
I2
I1
I0
I2
I-2
I1
I-2
I1
I-2
I-1
I-1
I0
I-2
I2
I1
I2
I-2
I2
I1
I-2
I1
I-1
I1
I2
I2
I2
I2
I-2
I-2
I-2
I-2
I-2
I-1
I-2
I-2
I0
I0
I0
I2
I-1
I1
I-1
I0
I1
I1
I-1
I1
I-2
I1
I1
I-1
I2
I0
I2
I1
I2
I2
I1
I1
I-2
I-1
I0
I-2
I-2
I-1
I-1
I-1
I2
I2
I2
I2
I2
I1
I1
I2
I-2
I-2
I-1
I-2
I-2
I-2
I-1
I-2
I-1
I1
I2
I2
I-1
I-2
I1
I0
I1
I1
I-2
I2
I-1
I0
I-1
I1
I1
I-2
I2
I1
I-1
I1
I0
I2
I-1
I-2
I0
I-1
I-2
I0
I-1
I-1
I-2
I-1
I1
I-1
I1
I1
I0
I-1
I1
I2
I-1
I1
I-1
I0
I0
I1
I2
I2
I1
I-1
I2
I0
I2
I2
I2
I2
I-2
I1
I-2
I-2
I-2
I0
I1
I1
I2
I1
I2
I2
I2
I-1
I-1
I0
I-1
I-1
I-1
I-1
I-2
I0
I-2
I-1
I-1
I-1
I2
I1
I1
I2
I-1
I2
I2
I2
I2
I2
I1
I1
I1
I2
I2
I-1
I1
I-1
I-1
I-1
I2
I1
I-2
I1
I-2
I-2
I-2
I-2
I1
I-2
I-1
I-1
I-2
I-2
I0
I-1
I1
I-2
I-2
I-2
I-2
I-1
I-2
I-1
I-1
I-2
I-2
I-2
I-1
I-2
I1
I-2
I-2
I1
I1
I1
I-1
I0
I1
I1
I-2
I-1
I-1
I-2
I-1
I-1
I1
I-2
I-2
I1
I1
I0
I-1
I-2
I-2
I-2
I-1
I-1
I-2
I-1
I-2
I-2
I1
I2
I2
I2
I2
I1
I0
I1
I-1
I1
I2
I-2
I-1
I-2
I-2
I-2
I1
I2
I2
I1
I0
I-1
I-1
I2
I2
I2
I2
I0
I1
I-1
I2
I1
I2
I2
I-1
I2
I-1
I1
I2
I2
I2
I2
I0
I1
I0
I-2
I-1
I2
I2
I0
I1
I1
I1
I1
I-2
I2
I1
I-1
I2
I2
I-1
I2
I-1
I2
I1
I1
I2
I0
I2
I1
I1
I1
I2
I2
I-1
I2
I1
I-1
I-1
I1
I2
I2
I2
I1
I1
I1
I2
I2
I2
I2
I-2
I-2
I-2
I-2
I-2
I-1
I-2
I-2
I-1
I1
I2
I1
I-1
I-2
I-2
I1
I-2
I-2
I-2
I-2
I-2
I-1
I-2
I-2
I-2
I-2
I0
I-1
I-2
I2
I-2
I0
I-2
I-1
I1
I-1
I-1
I2
I1
I-1
I1
I1
I-1
I-2
I-1
I-1
I1
I-1
I-1
I2
I-2
I-2
I-2
I-1
I1
I-1
I1
I1
I-2
I-2
I1
I-1
I-1
I-1
I-1
I-1
I-2
I2
I-1
I1
I-1
I1
I1
I2
I2
I1
I1
I2
I2
I2
I2
I0
I-1
I2
I2
I2
I0
I0
I-2
I-1
I2
I-1
I2
I2
I1
I2
I1
I2
I2
I2
I1
I-1
I1
I-1
I0
I1
I1
I-1
I-1
I1
I1
I0
I2
I1
I-1
I0
I-2
I-1
I1
I-2
I0
I-2
I-2
I-2
I-1
I1
I-1
I0
I0
I-2
I-2
I-1
I1
I-1
I-2
I0
I1
I-2
I-1
I-1
I-2
I-2
I-1
I-2
I-2
I1
I1
I2
I-2
I-2
I-2
I-2
I-2
I1
I-2
I-1
I2
I1
I-2
I-1
I-1
I-1
I-2
I1
I1
I2
I2
I1
I0
I2
I2
I-1
I-1
I2
I2
I2
I1
I2
I1
I1
I2
I-2
I1
I1
I2
I-1
tp94
sS'016117d18eb647b3.jpg'
p95
(I-1
I-2
I0
I1
I2
I-1
I2
I1
I-2
I-1
I-2
I-2
I-2
I1
I-2
I-2
I-2
I-2
I2
I2
I0
I-2
I-1
I-2
I-2
I-2
I-2
I-1
I2
I1
I0
I1
I1
I-1
I1
I1
I0
I2
I-1
I-1
I2
I2
I1
I2
I1
I1
I0
I-2
I2
I-2
I-1
I-2
I-2
I1
I-1
I2
I2
I1
I-1
I-1
I1
I-2
I2
I2
I0
I1
I-2
I2
I-1
I-2
I2
I2
I2
I2
I2
I1
I1
I2
I1
I2
I0
I-2
I1
I-2
I1
I2
I1
I-1
I-1
I-1
I-1
I0
I2
I0
I-1
I0
I1
I1
I2
I2
I1
I2
I-2
I-2
I-2
I-2
I1
I-1
I2
I-1
I1
I-1
I-1
I2
I1
I1
I2
I2
I-1
I2
I-1
I-1
I-2
I-2
I-2
I-2
I0
I-2
I2
I1
I-1
I2
I-1
I2
I2
I2
I2
I-1
I1
I1
I2
I2
I2
I2
I-2
I-1
I0
I-2
I2
I0
I2
I1
I-2
I-2
I-2
I-2
I-2
I0
I-1
I-1
I0
I-1
I2
I2
I2
I1
I1
I1
I-2
I-1
I-2
I-2
I-2
I-1
I-2
I-2
I0
I-1
I1
I1
I2
I2
I2
I2
I2
I2
I-2
I0
I-2
I-2
I-2
I-1
I1
I1
I2
I-2
I-2
I2
I1
I2
I2
I-1
I-2
I-2
I0
I-1
I2
I2
I-1
I1
I-2
I-2
I0
I-2
I-1
I-2
I-1
I-2
I-1
I1
I-1
I1
I-1
I-1
I-2
I-2
I1
I-1
I2
I1
I-1
I-2
I-1
I1
I-1
I2
I1
I-1
I1
I0
I-2
I-1
I-2
I1
I1
I-2
I1
I1
I2
I-2
I1
I1
I-2
I-1
I-2
I-2
I-1
I-1
I-1
I-2
I-1
I-2
I-2
I1
I-2
I-1
I-2
I-2
I1
I1
I2
I2
I1
I-1
I-2
I0
I-1
I1
I1
I-1
I-1
I-2
I-1
I1
I2
I2
I2
I1
I1
I1
I2
I1
I2
I1
I1
I-1
I2
I1
I0
I2
I-1
I-1
I-2
I-2
I2
I2
I2
I2
I2
I0
I-1
I-1
I1
I-2
I-1
I-1
I-2
I0
I-1
I1
I1
I1
I-2
I-2
I1
I-2
I2
I2
I1
I2
I-2
I2
I0
I-1
I2
I2
I2
I2
I2
I2
I1
I2
I0
I1
I-1
I-2
I1
I-1
I2
I2
I-1
I-2
I-1
I-1
I-1
I1
I2
I0
I-1
I0
I2
I1
I2
I2
I1
I2
I-2
I-2
I-2
I-2
I-2
I-2
I1
I-2
I1
I-1
I0
I2
I2
I2
I2
I2
I1
I2
I0
I-1
I-2
I-2
I-2
I-2
I1
I-1
I2
I0
I-2
I2
I-1
I2
I1
I-1
I1
I-1
I1
I1
I2
I2
I0
I2
I-2
I-2
I-1
I-2
I1
I-2
I-1
I-1
I-2
I-2
I-2
I-1
I-2
I-2
I-1
I-2
I0
I-1
I2
I2
I2
I1
I-1
I-1
I-2
I2
I-2
I-2
I-2
I-1
I-2
I-2
I0
I1
I1
I-1
I2
I2
I2
I1
I2
I2
I-2
I-1
I-2
I-2
I-2
I-1
I-1
I-1
I1
I-1
I-2
I2
I-1
I1
I1
I-1
I1
I0
I2
I1
I2
I2
I1
I1
I-2
I1
I2
I-2
I1
I-1
I-1
I-1
I1
I1
I-1
I-1
I-1
I-1
I-1
I-1
I2
I1
I2
I1
I1
I0
I-1
I2
I1
I2
I-1
I-1
I1
I0
I-1
I1
I-1
I-2
I1
I-1
I-1
I-2
I1
I-1
I1
I1
I1
I-1
I-2
I-1
I-2
I1
I-1
I1
I2
I1
I-1
I1
I1
I-1
I1
I1
I1
I0
I-1
I-1
I1
I1
I1
I1
I2
I-2
I-1
I-2
tp96
sS'eb77fc7a1e0ba30b.jpg'
p97
(I2
I0
I1
I-2
I2
I-2
I-1
I2
I-2
I0
I-2
I1
I-1
I0
I0
I1
I-1
I-2
I0
I0
I-1
I-2
I1
I0
I2
I-2
I1
I2
I-2
I0
I-1
I1
I2
I0
I2
I1
I2
I2
I-2
I-1
I1
I0
I2
I1
I0
I2
I-1
I1
I2
I-1
I2
I-1
I0
I2
I-2
I-1
I-1
I-2
I-2
I-2
I-1
I-2
I1
I1
I1
I2
I0
I2
I0
I1
I2
I2
I2
I0
I2
I0
I2
I2
I-1
I-1
I1
I-2
I1
I-1
I1
I0
I-2
I-1
I-1
I-1
I1
I0
I-1
I1
I-2
I-2
I1
I-1
I2
I-2
I0
I0
I-2
I-1
I-2
I-2
I-2
I0
I1
I1
I0
I2
I-2
I0
I2
I-1
I2
I-1
I1
I2
I-2
I1
I-2
I-2
I-2
I-2
I0
I-1
I2
I0
I0
I2
I1
I2
I1
I2
I-2
I-2
I1
I-1
I2
I-1
I0
I-1
I-2
I-1
I0
I-2
I-1
I-2
I-2
I-2
I0
I1
I2
I1
I2
I-2
I-1
I2
I-1
I0
I2
I-2
I1
I-2
I0
I1
I0
I2
I-1
I-1
I0
I0
I1
I2
I0
I2
I-2
I-1
I2
I-2
I2
I-2
I0
I2
I-2
I0
I-2
I-2
I-1
I-2
I0
I-1
I1
I-1
I1
I1
I1
I1
I0
I0
I-2
I0
I2
I-1
I-1
I-1
I-1
I0
I1
I2
I2
I1
I1
I0
I1
I2
I2
I1
I2
I-1
I2
I0
I1
I0
I-2
I0
I1
I-2
I1
I-1
I-2
I2
I-1
I0
I-1
I-2
I2
I0
I2
I2
I0
I2
I-2
I0
I2
I-2
I2
I-2
I1
I2
I-2
I0
I-1
I-2
I-1
I-2
I-1
I0
I1
I0
I1
I1
I0
I0
I1
I1
I0
I1
I0
I0
I1
I1
I1
I2
I0
I-1
I0
I-1
I1
I0
I2
I1
I-2
I-1
I1
I-1
I-1
I1
I0
I-1
I0
I2
I2
I1
I2
I1
I0
I2
I-2
I-2
I-2
I-2
I-2
I0
I2
I2
I0
I2
I-2
I-1
I2
I-2
I1
I-2
I0
I1
I-2
I1
I0
I-1
I1
I-2
I0
I0
I0
I-1
I-1
I-1
I0
I-1
I-1
I-1
I-1
I-1
I0
I0
I2
I-1
I-1
I1
I-2
I-2
I-1
I-2
I0
I-2
I-1
I0
I-1
I0
I-1
I0
I-1
I-1
I0
I2
I1
I0
I2
I1
I2
I1
I2
I2
I-2
I2
I-2
I-1
I-1
I0
I2
I2
I0
I2
I-2
I0
I2
I-2
I1
I-2
I0
I2
I-1
I0
I1
I-1
I0
I-1
I1
I0
I0
I1
I1
I0
I0
I1
I-1
I-1
I1
I1
I2
I0
I1
I-1
I-2
I2
I-1
I1
I1
I-1
I1
I-2
I2
I1
I0
I0
I-1
I-1
I2
I1
I1
I2
I-2
I-2
I1
I-2
I0
I-2
I1
I1
I-2
I1
I0
I1
I1
I0
I2
I2
I0
I2
I-2
I0
I1
I-2
I2
I-2
I0
I2
I-2
I-1
I-1
I-2
I-1
I-2
I-1
I0
I0
I1
I1
I1
I-1
I1
I1
I2
I1
I2
I2
I1
I2
I2
I2
I2
I-2
I-2
I-1
I-2
I-1
I-2
I-2
I-2
I-1
I-1
I2
I1
I2
I-2
I-1
I1
I-2
I-1
I-1
I-2
I0
I-2
I-2
I-1
I-1
I-1
I0
I-2
I-1
I0
I2
I2
I-2
I0
I2
I-2
I1
I-2
I1
I-1
I-1
I1
I0
I-1
I-2
I-1
I1
I-2
I-2
I2
I-1
I-1
I-2
I2
I2
I1
I1
I2
I1
I2
I-1
I2
I-1
I2
I2
I-2
I1
I1
I1
I-1
tp98
sS'6af9ed5d875fc773.jpg'
p99
(I-2
I-2
I-2
I2
I-1
I-1
I0
I2
I1
I-2
I1
I2
I-1
I2
I1
I2
I2
I2
I-1
I1
I1
I2
I2
I-1
I-1
I1
I1
I-2
I1
I0
I2
I-1
I2
I0
I0
I-1
I2
I2
I0
I2
I2
I2
I1
I1
I1
I1
I2
I0
I-1
I-1
I2
I-1
I0
I-2
I-2
I-2
I-2
I-2
I-2
I-2
I-2
I-2
I1
I-2
I-1
I2
I2
I-1
I0
I1
I-2
I-2
I-1
I-2
I1
I-2
I-1
I1
I-2
I-1
I-2
I-1
I-2
I-2
I-1
I-2
I2
I1
I1
I2
I2
I2
I1
I2
I-2
I-2
I-2
I-2
I1
I-1
I1
I1
I-2
I-2
I-1
I0
I1
I-1
I1
I1
I0
I2
I-1
I0
I2
I-1
I-2
I-1
I2
I-2
I2
I2
I1
I2
I1
I2
I1
I1
I2
I0
I2
I-1
I1
I-1
I0
I-1
I-1
I1
I2
I-1
I1
I-1
I-2
I1
I-1
I1
I-2
I-1
I-1
I-2
I-1
I-2
I1
I-1
I1
I1
I2
I1
I-1
I1
I-2
I-1
I0
I-2
I1
I-2
I-1
I0
I-1
I-1
I-1
I-1
I-1
I0
I1
I2
I2
I-1
I-2
I-2
I-2
I-2
I-2
I-1
I-2
I-1
I2
I-1
I1
I2
I1
I1
I2
I-2
I-1
I0
I1
I-1
I-1
I2
I-2
I2
I1
I2
I2
I1
I2
I-1
I2
I2
I-1
I1
I-1
I-2
I-1
I1
I-1
I-2
I2
I1
I2
I1
I2
I1
I-1
I1
I-1
I1
I1
I-2
I1
I-2
I-1
I-2
I0
I1
I-1
I-1
I-2
I-2
I1
I-2
I-2
I-2
I1
I2
I-1
I2
I2
I-1
I1
I2
I1
I-2
I-2
I-2
I-2
I-1
I1
I-2
I2
I2
I1
I2
I2
I2
I2
I2
I-2
I-2
I-1
I-2
I-1
I-2
I-1
I1
I-2
I1
I-1
I1
I-1
I1
I2
I1
I2
I1
I2
I1
I1
I2
I1
I2
I-1
I1
I1
I-1
I-1
I0
I1
I2
I2
I2
I1
I2
I2
I2
I1
I2
I1
I2
I2
I-1
I1
I-2
I2
I-2
I1
I-2
I-2
I-1
I-2
I-2
I-2
I-1
I-2
I-2
I2
I-2
I2
I2
I1
I-1
I-1
I1
I-2
I1
I-1
I-1
I1
I-2
I-1
I1
I-1
I-2
I-2
I-1
I-2
I-2
I0
I0
I-1
I-1
I0
I2
I1
I2
I2
I2
I-2
I-1
I-2
I-1
I1
I1
I1
I1
I-2
I-2
I-1
I1
I0
I-1
I2
I2
I2
I2
I-2
I-1
I1
I-2
I-2
I-1
I0
I-2
I2
I2
I1
I2
I1
I2
I2
I2
I2
I1
I2
I-1
I2
I1
I1
I1
I-1
I1
I2
I-2
I2
I-1
I-1
I-1
I-1
I0
I-2
I-2
I0
I-2
I-2
I-2
I0
I-2
I-1
I0
I1
I-2
I-2
I-2
I-2
I-1
I-1
I-1
I-1
I-2
I-2
I-2
I-1
I0
I1
I-2
I-1
I-2
I1
I1
I1
I-1
I-2
I0
I-2
I-1
I-2
I-1
I-2
I1
I2
I-2
I-1
I2
I-1
I-1
I2
I-1
I-2
I-1
I1
I1
I-1
I2
I-1
I2
I-1
I1
I2
I1
I1
I-1
I2
I1
I1
I2
I2
I-1
I-2
I1
I-1
I-2
I2
I2
I2
I2
I1
I2
I1
I1
I2
I2
I2
I-1
I2
I-1
I0
I-1
I2
I1
I-2
I-2
I-2
I-1
I1
I-1
I1
I2
I1
I1
I2
I-1
I-2
I-2
I-2
I-2
I1
I1
I1
I2
I2
I-2
I-2
I-1
I-2
I-2
I-1
I1
I-2
I2
I-2
I2
I-1
I1
I2
I1
I-1
I0
I2
I-1
I0
I1
I2
I0
tp100
sS'2367aeb0e6284757.jpg'
p101
(I2
I1
I2
I-2
I1
I-2
I1
I2
I-1
I-1
I-1
I2
I0
I1
I0
I2
I1
I-1
I0
I-2
I1
I-1
I-2
I2
I1
I2
I2
I2
I-1
I-1
I2
I2
I-2
I1
I-1
I2
I-1
I-1
I1
I-1
I-1
I-1
I2
I2
I1
I1
I-2
I-1
I1
I-2
I2
I-2
I-2
I1
I-2
I-2
I-2
I-2
I-2
I-2
I-1
I1
I0
I-1
I-1
I2
I-2
I1
I2
I1
I1
I1
I-2
I2
I-1
I2
I2
I0
I2
I-2
I-2
I1
I-1
I2
I1
I0
I-2
I-2
I-2
I1
I-2
I2
I1
I1
I2
I1
I1
I2
I0
I2
I2
I1
I1
I1
I0
I2
I1
I-1
I2
I-1
I1
I-1
I-1
I2
I2
I1
I2
I1
I0
I2
I-1
I1
I-1
I-2
I1
I-2
I-1
I-1
I-1
I-2
I-2
I-1
I-1
I-2
I-2
I-2
I-1
I-2
I-2
I1
I-2
I-1
I-1
I-2
I0
I-1
I-2
I2
I-1
I1
I-2
I-2
I0
I-1
I-2
I1
I1
I-2
I-2
I-2
I-1
I-2
I-2
I-1
I-2
I-2
I-2
I-2
I-1
I-1
I2
I2
I-1
I-1
I-1
I-1
I-2
I1
I1
I0
I2
I1
I2
I-2
I1
I2
I-2
I1
I2
I-2
I1
I0
I1
I1
I1
I2
I1
I-1
I-1
I0
I-1
I-1
I2
I1
I-1
I1
I-2
I1
I-1
I-2
I2
I2
I2
I2
I0
I2
I1
I1
I2
I2
I2
I0
I1
I1
I1
I-1
I2
I2
I-2
I-1
I-2
I-1
I-2
I-2
I2
I1
I2
I1
I1
I2
I2
I2
I2
I2
I-1
I-1
I0
I-2
I1
I-2
I1
I2
I-2
I-1
I0
I-1
I0
I0
I2
I-1
I-1
I1
I-1
I0
I-1
I2
I-1
I-2
I1
I1
I-2
I1
I-2
I1
I-2
I-2
I2
I-1
I-1
I2
I-1
I2
I2
I1
I-1
I-1
I1
I1
I-2
I2
I1
I-1
I1
I2
I-1
I2
I0
I2
I1
I1
I2
I-1
I0
I1
I1
I-2
I2
I2
I-1
I-2
I-2
I-1
I0
I-2
I2
I-2
I-2
I-2
I-2
I-2
I-2
I-2
I-2
I-2
I-2
I-1
I1
I1
I-1
I2
I-2
I-2
I1
I1
I2
I2
I-2
I2
I1
I2
I2
I1
I2
I-2
I-2
I-1
I-1
I2
I1
I-2
I-1
I-1
I-2
I1
I-1
I2
I-1
I-1
I1
I-1
I-1
I1
I-1
I1
I1
I-1
I-1
I-1
I1
I2
I-1
I1
I2
I-1
I2
I2
I2
I2
I2
I1
I2
I2
I2
I2
I2
I2
I2
I-2
I2
I1
I2
I2
I1
I-1
I-2
I-2
I-1
I1
I-1
I-2
I-1
I-2
I-2
I1
I-2
I-1
I-2
I-2
I-1
I-1
I-2
I2
I-2
I1
I-2
I-2
I2
I1
I-1
I2
I1
I1
I-1
I0
I1
I-1
I-2
I-1
I-2
I-2
I-1
I-2
I1
I1
I2
I1
I-1
I-2
I-2
I0
I-2
I1
I-2
I-2
I-1
I0
I2
I-2
I1
I1
I-2
I-2
I-1
I-2
I-1
I-2
I-1
I-1
I-2
I1
I1
I1
I-1
I1
I0
I-2
I2
I2
I-1
I1
I-2
I1
I-1
I-1
I2
I2
I-1
I2
I-1
I2
I2
I1
I2
I1
I1
I1
I1
I2
I2
I-1
I0
I1
I-1
I-1
I-2
I1
I-2
I-2
I2
I1
I2
I1
I0
I2
I2
I2
I-1
I-1
I2
I-2
I1
I-1
I1
I-1
I-1
I0
I1
I0
I-1
I0
I-2
I2
I1
I-2
I2
I-1
I1
I-2
I-2
I1
I-2
I-1
I-2
I-1
I2
I-2
I1
I2
I-1
I2
I-1
I2
I0
I1
tp102
sS'e95504f28c7d6b56.jpg'
p103
(I0
I-2
I-1
I0
I2
I-2
I-1
I1
I-2
I1
I-2
I-1
I-2
I-1
I-2
I-2
I-2
I-2
I2
I2
I1
I2
I2
I-2
I-1
I-1
I1
I-1
I1
I2
I2
I0
I2
I-2
I-1
I-2
I1
I2
I1
I2
I2
I2
I2
I1
I2
I2
I1
I1
I2
I-1
I2
I2
I1
I2
I-1
I1
I2
I-2
I-1
I-1
I1
I2
I2
I2
I-1
I1
I1
I2
I2
I-1
I2
I-2
I1
I-1
I1
I2
I-1
I1
I-2
I-1
I-2
I-1
I-2
I-2
I0
I2
I1
I0
I1
I2
I2
I2
I2
I2
I-2
I-1
I-2
I-2
I1
I2
I1
I-1
I-2
I-2
I-1
I1
I-1
I-2
I-2
I-1
I-2
I-1
I-2
I-1
I1
I1
I2
I-1
I1
I1
I-2
I-1
I-2
I-2
I1
I-2
I-1
I-1
I-2
I-2
I-2
I-1
I-2
I-2
I-2
I-2
I1
I1
I2
I2
I2
I2
I0
I2
I-1
I0
I-2
I-2
I2
I-2
I0
I-2
I-2
I-2
I-2
I-2
I-1
I-2
I-2
I-2
I-2
I-1
I-1
I1
I-2
I-2
I-2
I-2
I1
I1
I2
I-1
I-2
I2
I1
I1
I-1
I1
I1
I-1
I2
I-1
I1
I-1
I1
I0
I-1
I1
I2
I-1
I1
I-1
I-1
I0
I1
I2
I-2
I-1
I-2
I-1
I-1
I-1
I2
I0
I2
I2
I2
I1
I1
I2
I-2
I0
I2
I-2
I-2
I-1
I0
I-2
I2
I2
I2
I2
I0
I1
I-1
I2
I2
I2
I1
I0
I-1
I-1
I2
I2
I2
I2
I1
I2
I2
I1
I1
I1
I2
I1
I-1
I-1
I1
I-1
I-1
I1
I-1
I2
I0
I1
I1
I1
I1
I-1
I2
I2
I0
I1
I-1
I-1
I0
I1
I2
I-1
I1
I-1
I1
I0
I1
I2
I-1
I1
I-2
I0
I-1
I-1
I-2
I-2
I-1
I2
I2
I1
I1
I2
I2
I2
I2
I2
I-2
I-2
I-2
I-2
I1
I1
I1
I-2
I-2
I-2
I-1
I0
I-2
I-2
I-1
I-1
I-2
I-1
I-1
I1
I1
I1
I2
I-1
I0
I1
I-2
I-2
I-1
I-2
I1
I-2
I-1
I-2
I-2
I-2
I-2
I-1
I-2
I-2
I-2
I-2
I1
I1
I2
I2
I2
I1
I1
I2
I-1
I1
I-2
I-2
I2
I-1
I1
I-1
I-2
I-2
I-2
I-2
I-1
I-1
I-2
I-2
I-2
I-1
I0
I1
I-2
I-2
I-2
I-2
I2
I2
I2
I-1
I-1
I2
I1
I1
I2
I2
I1
I0
I2
I-1
I1
I1
I2
I1
I-1
I1
I2
I-1
I-1
I1
I0
I2
I2
I2
I-1
I1
I1
I1
I2
I1
I2
I-1
I1
I-1
I2
I2
I1
I2
I-2
I-1
I1
I-2
I-1
I-1
I0
I-1
I1
I2
I2
I1
I-2
I2
I1
I1
I2
I2
I1
I2
I1
I2
I2
I2
I2
I1
I-1
I2
I2
I-2
I-1
I1
I-1
I-1
I-2
I-2
I-1
I-1
I-1
I-2
I-1
I-1
I-1
I0
I-1
I1
I2
I-1
I1
I2
I-2
I-2
I-2
I-2
I-1
I-1
I1
I-2
I-1
I-1
I1
I1
I1
I2
I-2
I0
I-2
I0
I-2
I-1
I-1
I-2
I-1
I-1
I1
I-1
I-2
I1
I1
I0
I1
I1
I-1
I-2
I-2
I-1
I1
I0
I1
I-2
I-2
I-2
I-1
I-1
I-2
I1
I2
I0
I1
I1
I1
I0
I1
I1
I-1
I1
I-1
I2
I-2
I-1
I-2
I-2
I-2
I2
I2
I2
I2
I2
I0
I1
I0
I-2
I1
I1
I-1
I0
I-1
I1
I-1
I-1
I1
I-1
I-2
I2
I2
I2
tp104
sS'cef427188b7df5ae.jpg'
p105
(I-2
I1
I-2
I2
I2
I2
I0
I2
I-2
I-1
I-2
I1
I2
I1
I-1
I2
I2
I2
I1
I1
I2
I2
I2
I-1
I1
I2
I2
I2
I-1
I-2
I2
I2
I1
I2
I1
I2
I2
I1
I-1
I2
I1
I-1
I-2
I-2
I-1
I1
I2
I0
I2
I2
I2
I2
I2
I2
I-2
I-1
I-2
I-2
I1
I1
I1
I1
I-2
I-2
I-2
I-1
I1
I-1
I-1
I2
I-2
I-2
I-2
I-1
I1
I-1
I1
I1
I-2
I-2
I-2
I-1
I-1
I1
I1
I-1
I-2
I-2
I-2
I1
I-2
I1
I-1
I-1
I-1
I-2
I-2
I2
I-2
I1
I1
I1
I-1
I-1
I2
I2
I2
I1
I-2
I1
I1
I2
I-1
I-2
I-1
I-1
I1
I-1
I1
I-1
I-2
I-1
I1
I-1
I1
I1
I-1
I-2
I-1
I1
I1
I-1
I2
I-1
I-2
I-1
I-2
I-1
I-1
I-2
I-1
I-2
I-2
I-2
I-1
I-1
I-1
I1
I-1
I-2
I-2
I-2
I1
I1
I-1
I1
I-1
I-2
I-1
I-1
I1
I-1
I-2
I1
I-1
I1
I1
I1
I-1
I-2
I1
I1
I2
I-1
I1
I2
I-1
I-2
I-2
I-1
I-1
I-2
I-1
I-2
I-2
I-2
I1
I1
I1
I1
I-2
I-2
I0
I-1
I2
I2
I2
I2
I1
I2
I1
I1
I1
I2
I2
I-1
I-1
I-1
I-1
I-1
I2
I2
I2
I1
I2
I-1
I1
I-1
I2
I1
I-1
I-2
I0
I-2
I-2
I-2
I1
I-1
I-1
I0
I1
I-2
I-2
I-2
I-1
I-2
I-1
I-2
I-2
I1
I2
I-2
I2
I-2
I2
I2
I2
I2
I2
I2
I0
I2
I2
I0
I-2
I-2
I-1
I-2
I-1
I1
I1
I-1
I1
I1
I-1
I1
I2
I2
I-1
I1
I1
I1
I1
I2
I2
I2
I1
I-1
I2
I-1
I-1
I2
I2
I2
I1
I2
I2
I1
I-2
I2
I2
I2
I2
I2
I2
I1
I1
I2
I2
I1
I2
I2
I-1
I2
I1
I-2
I-2
I-2
I-1
I1
I2
I0
I2
I2
I2
I2
I2
I2
I-2
I1
I-1
I-2
I2
I2
I2
I2
I-1
I-2
I-2
I-2
I1
I0
I-1
I2
I-2
I-2
I-2
I-1
I1
I-1
I1
I1
I-2
I-2
I-2
I-1
I-1
I1
I1
I0
I-2
I-2
I-2
I1
I-1
I2
I1
I-1
I-2
I-2
I-2
I1
I-2
I2
I1
I-1
I-1
I-1
I2
I2
I2
I1
I-2
I1
I1
I1
I-1
I-2
I-2
I-1
I1
I-1
I-1
I-2
I-2
I-2
I0
I-1
I-1
I-1
I-2
I-2
I-2
I1
I1
I1
I2
I-2
I-2
I-2
I-2
I-1
I-1
I-2
I1
I-2
I-2
I-2
I-1
I-1
I-2
I-1
I-1
I-2
I-2
I-2
I0
I-1
I-2
I1
I-1
I-2
I-2
I-2
I1
I-1
I-2
I1
I-1
I-1
I-1
I0
I1
I-2
I1
I1
I1
I-1
I1
I1
I-2
I-2
I-1
I1
I1
I-1
I-1
I-2
I-2
I0
I2
I2
I2
I1
I-1
I-2
I1
I1
I2
I2
I2
I1
I1
I2
I2
I2
I2
I2
I2
I-1
I1
I1
I1
I2
I2
I2
I2
I-1
I2
I1
I1
I1
I2
I2
I1
I-2
I-1
I-1
I-2
I-2
I2
I1
I-1
I1
I1
I-1
I-2
I-2
I0
I-1
I-1
I-2
I-2
I2
I2
I-1
I2
I2
I2
I1
I2
I0
I-1
I-2
I-2
I-1
I-1
I-2
I-1
I1
I0
I-2
I-1
I-1
I0
I1
I-2
I-1
I1
I-1
I-1
I-1
I2
I1
I1
I-2
I2
I2
I2
I2
I1
I2
I2
I-1
tp106
sS'e6fcee2172162d7f.jpg'
p107
(I-2
I0
I-2
I2
I-2
I2
I2
I2
I2
I1
I2
I2
I2
I-1
I2
I2
I2
I2
I-2
I1
I-1
I-1
I0
I-1
I-2
I-2
I-1
I-1
I2
I1
I2
I2
I2
I-1
I2
I2
I1
I1
I-2
I0
I-1
I0
I-2
I-2
I-2
I-2
I2
I-2
I-2
I2
I-2
I0
I-1
I-1
I-2
I-2
I-2
I2
I1
I1
I1
I-2
I-2
I-2
I1
I-1
I-1
I0
I-2
I-2
I-2
I1
I2
I1
I1
I-2
I-2
I1
I0
I1
I-2
I-1
I-1
I-2
I-1
I-1
I1
I-2
I-2
I1
I0
I0
I-1
I-1
I-2
I-2
I0
I0
I-1
I-1
I-1
I0
I-1
I1
I1
I0
I1
I2
I0
I-1
I2
I-1
I2
I1
I-1
I1
I-1
I2
I0
I-1
I1
I-1
I0
I1
I-2
I1
I0
I-1
I2
I2
I2
I2
I1
I2
I2
I2
I2
I2
I2
I-1
I2
I2
I2
I2
I-1
I1
I0
I-2
I-1
I1
I1
I-1
I1
I1
I1
I1
I-1
I1
I0
I-2
I1
I1
I0
I1
I1
I0
I-2
I-2
I0
I-1
I-1
I-2
I-2
I-2
I-2
I-2
I-1
I-2
I1
I0
I-1
I2
I-1
I2
I-2
I-2
I1
I0
I-2
I1
I-1
I-1
I-2
I-2
I1
I-2
I-2
I1
I2
I-1
I-2
I0
I-2
I-2
I-1
I-2
I0
I-2
I-2
I0
I-2
I-1
I-1
I0
I-1
I-1
I0
I-2
I1
I0
I0
I1
I-2
I2
I-1
I1
I2
I2
I2
I2
I1
I2
I2
I2
I2
I2
I-1
I2
I2
I1
I-2
I-2
I1
I-1
I2
I2
I1
I2
I-1
I2
I2
I1
I2
I2
I1
I1
I-1
I2
I2
I2
I2
I2
I2
I1
I2
I2
I2
I2
I0
I2
I1
I-2
I1
I1
I-1
I2
I0
I0
I-2
I-1
I-2
I-2
I1
I-1
I2
I1
I-2
I2
I1
I2
I2
I1
I-1
I-2
I-2
I-2
I-1
I0
I0
I0
I-2
I-2
I1
I1
I1
I-1
I-2
I-1
I-2
I-2
I1
I-2
I-2
I1
I-2
I-1
I-1
I-2
I-1
I-2
I-2
I2
I0
I1
I1
I-1
I-2
I-2
I-1
I0
I-1
I0
I-1
I-2
I-2
I1
I2
I1
I2
I0
I-1
I2
I-2
I-1
I-2
I-2
I-1
I-2
I0
I-1
I1
I-2
I0
I1
I-1
I1
I0
I-2
I-1
I0
I-1
I1
I1
I1
I-2
I-1
I0
I-1
I-1
I-2
I-1
I2
I1
I0
I1
I-1
I2
I1
I-1
I0
I-1
I1
I-1
I-2
I2
I-1
I0
I1
I-1
I0
I-2
I-2
I1
I1
I0
I1
I-1
I-1
I-1
I2
I2
I1
I2
I1
I2
I-1
I2
I1
I-2
I0
I-1
I-2
I-1
I-1
I-2
I-2
I1
I0
I-1
I1
I-2
I-1
I-2
I-2
I2
I2
I2
I2
I2
I-1
I1
I2
I1
I1
I-2
I-2
I-1
I-1
I-1
I-2
I1
I-2
I1
I1
I0
I2
I-2
I2
I0
I-1
I2
I2
I1
I2
I0
I2
I2
I1
I2
I1
I1
I0
I2
I2
I1
I1
I-2
I-2
I1
I-2
I-1
I-2
I-2
I-1
I-1
I2
I1
I1
I-2
I0
I1
I0
I2
I2
I1
I2
I1
I2
I2
I2
I2
I-1
I2
I-1
I1
I1
I1
I1
I-2
I1
I-1
I-1
I0
I-1
I-2
I-2
I2
I0
I-2
I2
I-1
I1
I-2
I-2
I1
I-1
I-1
I-1
I2
I1
I1
I-1
I2
I0
I-1
I1
I1
I-1
I-2
I-1
I-1
I0
I-2
I-1
I1
I-1
I-2
I-1
I1
I1
I1
I-1
I0
I-1
tp108
sS'8265e15edbf6d4e0.jpg'
p109
(I-2
I2
I-1
I2
I2
I2
I2
I2
I-2
I1
I1
I1
I1
I-1
I2
I-1
I0
I2
I-2
I1
I-2
I-2
I-2
I-1
I-1
I-2
I-2
I-2
I1
I-2
I-1
I-2
I-2
I2
I0
I-1
I-2
I-2
I0
I-2
I-2
I-2
I-2
I-2
I0
I-1
I1
I-2
I-1
I2
I-1
I2
I1
I-1
I-2
I-1
I1
I1
I1
I2
I0
I2
I-1
I0
I2
I-1
I2
I-1
I1
I1
I-2
I2
I2
I-2
I1
I-1
I-1
I-2
I2
I2
I1
I-1
I-2
I-2
I-2
I-2
I2
I2
I1
I2
I-2
I-1
I-1
I1
I2
I2
I2
I2
I-1
I1
I2
I2
I2
I2
I1
I2
I2
I0
I-2
I-1
I-2
I-2
I1
I-1
I-2
I1
I-2
I-1
I-2
I-2
I1
I0
I1
I2
I2
I-1
I0
I2
I-2
I-1
I1
I-2
I-1
I-2
I1
I-1
I-1
I1
I2
I1
I-1
I1
I1
I2
I2
I2
I1
I1
I-1
I1
I2
I2
I2
I1
I-1
I1
I1
I2
I2
I1
I-1
I-2
I-2
I-1
I1
I1
I0
I2
I-2
I-2
I-1
I-1
I1
I2
I1
I-2
I1
I-2
I2
I2
I1
I2
I1
I2
I-1
I1
I2
I0
I2
I-1
I2
I-1
I1
I2
I-2
I-1
I-1
I-2
I-1
I-2
I-1
I2
I1
I-1
I-1
I1
I2
I1
I2
I2
I-2
I-2
I-2
I-2
I-2
I2
I2
I0
I-2
I-2
I-1
I2
I-1
I2
I2
I0
I-1
I0
I1
I1
I2
I2
I1
I-1
I-2
I-1
I-2
I-1
I-2
I-1
I-2
I-2
I2
I-1
I2
I1
I1
I2
I2
I2
I2
I2
I-1
I-1
I2
I-2
I1
I1
I2
I1
I-2
I1
I-1
I-1
I2
I1
I-1
I-1
I-2
I-2
I-2
I-2
I1
I-2
I-2
I-2
I-2
I-2
I-2
I-1
I-2
I-2
I-2
I-2
I0
I-2
I-2
I2
I-2
I-2
I-2
I-2
I0
I-1
I1
I2
I-2
I-1
I-1
I-2
I1
I2
I2
I1
I-1
I-2
I-2
I-2
I-2
I-2
I1
I-2
I-1
I2
I1
I1
I-1
I-1
I-2
I-2
I-1
I-1
I-1
I-2
I-1
I-1
I-1
I1
I2
I1
I1
I1
I1
I1
I1
I2
I2
I-1
I-1
I1
I1
I-1
I2
I2
I2
I1
I1
I2
I1
I1
I2
I2
I1
I-1
I-1
I-1
I-1
I0
I2
I1
I-1
I1
I-2
I-1
I1
I1
I2
I1
I2
I2
I2
I2
I-1
I-1
I-1
I-2
I2
I1
I2
I1
I1
I1
I-2
I-1
I1
I1
I-1
I-1
I1
I-2
I-1
I-1
I1
I-1
I-1
I-1
I-1
I-2
I-1
I-1
I-1
I-1
I-2
I1
I-2
I-1
I-1
I2
I1
I-1
I1
I1
I-1
I1
I2
I1
I-1
I1
I1
I1
I1
I2
I2
I-1
I0
I-1
I-2
I-1
I0
I1
I-2
I1
I-1
I-2
I0
I-2
I1
I1
I-1
I-2
I1
I-2
I2
I2
I2
I2
I1
I2
I1
I2
I1
I1
I2
I-1
I1
I0
I1
I2
I1
I1
I1
I-1
I1
I-1
I1
I2
I1
I1
I-1
I-1
I2
I-1
I2
I2
I-2
I-2
I-2
I-2
I-2
I1
I2
I-2
I-1
I-2
I-1
I2
I-2
I2
I1
I-2
I1
I2
I2
I2
I2
I2
I1
I-1
I-1
I-1
I-2
I-2
I-2
I-1
I-2
I-2
I2
I-1
I0
I2
I1
I-2
I-1
I1
I-1
I1
I-2
I-1
I1
I-1
I2
I-2
I-2
I-1
I-2
I1
I-2
I-2
I-2
I-1
I-2
I2
I-1
I-2
I2
I-2
I2
I-1
I2
I2
I-1
I1
I2
I1
tp110
sS'4e985c94bb0c5469.jpg'
p111
(I2
I2
I1
I-2
I1
I1
I-1
I-1
I-1
I-2
I-2
I-2
I-2
I1
I2
I-1
I-1
I-1
I-2
I1
I-2
I-2
I-2
I-1
I-1
I-2
I-2
I-1
I1
I1
I-1
I-1
I-2
I-1
I-2
I-2
I-2
I1
I2
I-1
I2
I-2
I-1
I-2
I-2
I-2
I-1
I1
I2
I2
I0
I0
I1
I1
I1
I2
I1
I0
I0
I1
I1
I-2
I2
I1
I2
I0
I0
I1
I-2
I1
I1
I2
I2
I0
I1
I-2
I1
I2
I2
I2
I1
I-1
I1
I1
I2
I0
I1
I1
I2
I-1
I-2
I1
I-1
I0
I2
I2
I1
I2
I2
I1
I2
I2
I-1
I-2
I-2
I-2
I-1
I2
I0
I1
I2
I2
I2
I-1
I-1
I-1
I0
I1
I2
I-1
I-1
I-1
I-1
I0
I-2
I2
I-1
I2
I2
I2
I2
I2
I2
I2
I2
I2
I-1
I-1
I-1
I-2
I2
I2
I1
I2
I-2
I-2
I-1
I-2
I-2
I-1
I1
I-1
I0
I1
I-1
I2
I1
I2
I1
I1
I0
I-2
I2
I-1
I2
I0
I-1
I-1
I-2
I1
I-2
I-2
I-2
I-2
I-1
I2
I-1
I1
I-2
I-2
I-2
I-2
I-2
I-2
I-2
I-1
I1
I1
I-2
I2
I2
I2
I2
I2
I-2
I-2
I-2
I-2
I-1
I-1
I-1
I1
I-2
I-1
I1
I1
I2
I0
I1
I0
I-2
I-1
I-2
I-2
I-2
I-1
I-2
I-2
I1
I-1
I0
I2
I-1
I1
I1
I1
I-1
I1
I2
I1
I-1
I2
I1
I-1
I1
I2
I1
I1
I-1
I1
I2
I1
I2
I-1
I-1
I2
I-2
I-1
I1
I1
I-2
I-2
I1
I-2
I1
I-1
I-1
I-2
I-2
I-2
I-2
I1
I0
I1
I1
I-2
I-2
I-2
I-1
I-1
I1
I-1
I-1
I-2
I-2
I-2
I0
I2
I-1
I1
I1
I-2
I-1
I0
I2
I-1
I-2
I-1
I-1
I-2
I-1
I-2
I-1
I-1
I-1
I1
I-1
I0
I-1
I2
I1
I1
I1
I0
I2
I-2
I-1
I-2
I-2
I0
I1
I2
I2
I2
I1
I1
I2
I1
I2
I2
I2
I-1
I-2
I2
I1
I-2
I2
I2
I2
I2
I1
I2
I-1
I2
I2
I2
I2
I-1
I2
I-1
I2
I2
I2
I1
I2
I-2
I1
I1
I2
I-1
I0
I1
I0
I-1
I-1
I2
I-2
I1
I2
I1
I0
I1
I2
I-2
I1
I1
I-2
I-2
I-2
I-2
I-2
I2
I-1
I2
I-1
I2
I0
I-2
I-2
I-2
I-2
I-2
I-1
I-2
I-1
I-1
I-2
I2
I-2
I1
I0
I1
I2
I1
I1
I2
I2
I2
I2
I2
I-2
I-2
I-1
I-2
I2
I1
I1
I2
I-2
I-2
I-2
I-2
I-2
I-2
I1
I-2
I1
I2
I2
I2
I2
I2
I2
I2
I-1
I-2
I2
I-2
I-1
I0
I0
I-2
I-1
I2
I1
I1
I-1
I1
I2
I2
I2
I1
I-2
I1
I-1
I-2
I-1
I-1
I-1
I0
I2
I0
I-2
I1
I1
I-1
I1
I1
I-1
I-2
I-1
I-1
I1
I-1
I0
I1
I-2
I-1
I2
I-1
I2
I-1
I1
I-1
I-2
I-1
I-2
I-2
I-2
I-2
I-2
I-1
I2
I-2
I0
I2
I0
I-1
I1
I-1
I-2
I0
I-1
I0
I-2
I1
I-1
I1
I2
I1
I2
I1
I2
I-2
I1
I-1
I-1
I1
I1
I1
I1
I0
I-1
I1
I-1
I1
I-1
I0
I1
I-1
I1
I-1
I-1
I2
I-1
I-1
I1
I2
I1
I1
I1
I1
I-1
I-1
I-1
I-2
I1
I1
I-1
I2
I2
I-1
I-2
I-2
tp112
sS'f6107601d2f1f5d4.jpg'
p113
(I-2
I-1
I-1
I2
I-1
I1
I1
I2
I1
I1
I2
I2
I2
I-1
I1
I2
I1
I2
I-1
I1
I0
I0
I-1
I-2
I0
I-1
I-2
I-1
I0
I-2
I-2
I-1
I-1
I2
I1
I2
I2
I1
I-1
I2
I0
I1
I-1
I-1
I-1
I1
I1
I-1
I-2
I1
I1
I-1
I1
I-1
I-2
I-2
I-2
I-1
I-1
I1
I-2
I1
I-2
I-1
I0
I1
I0
I-2
I1
I1
I-2
I0
I1
I0
I-1
I1
I1
I2
I1
I2
I2
I1
I1
I2
I2
I2
I1
I1
I-2
I-1
I1
I2
I1
I-1
I1
I-2
I-2
I-1
I-2
I-1
I-2
I-1
I-1
I0
I2
I1
I1
I1
I1
I2
I1
I2
I-1
I-1
I-1
I-2
I-2
I-1
I1
I-1
I1
I2
I2
I2
I2
I2
I1
I2
I-1
I-1
I-1
I-2
I1
I-1
I2
I-1
I-1
I-1
I-2
I-1
I1
I2
I-1
I-1
I-2
I-2
I-2
I-1
I-2
I-2
I-2
I-2
I-2
I-1
I1
I2
I-1
I-1
I-1
I-2
I1
I2
I-1
I1
I1
I1
I-1
I1
I1
I-1
I-1
I-2
I1
I-1
I1
I2
I-1
I-2
I-2
I-1
I-2
I-2
I-2
I-2
I-2
I-2
I1
I-1
I1
I2
I2
I-2
I-1
I-2
I-2
I-2
I-2
I-2
I-2
I-2
I-2
I-2
I1
I1
I2
I2
I0
I-2
I0
I1
I1
I2
I1
I0
I0
I0
I1
I1
I2
I1
I-1
I0
I-2
I1
I1
I-1
I2
I1
I2
I2
I2
I2
I1
I-1
I-1
I-1
I-2
I-1
I-2
I1
I2
I-2
I1
I2
I2
I2
I2
I2
I1
I2
I2
I1
I2
I1
I2
I-1
I-1
I2
I-1
I0
I2
I2
I2
I1
I2
I1
I1
I2
I2
I0
I0
I-2
I1
I-1
I-1
I-1
I-1
I-1
I-1
I-1
I0
I-2
I-1
I0
I-1
I-1
I-2
I0
I-2
I-1
I0
I0
I1
I-1
I1
I2
I-2
I2
I2
I1
I1
I2
I2
I2
I2
I-1
I-2
I1
I-2
I1
I-2
I-2
I-2
I-1
I-2
I-2
I-1
I-2
I-1
I1
I-1
I2
I1
I2
I0
I2
I0
I-1
I1
I-1
I1
I-1
I2
I2
I-2
I1
I2
I-1
I0
I2
I2
I2
I1
I1
I1
I0
I1
I2
I2
I1
I0
I0
I-2
I-1
I0
I1
I-1
I-2
I0
I-2
I-2
I0
I-2
I-1
I-2
I1
I-1
I-2
I2
I-2
I2
I2
I2
I2
I2
I2
I-1
I1
I-2
I-2
I-2
I-1
I0
I-2
I2
I0
I1
I2
I2
I2
I1
I2
I-2
I-2
I-2
I-2
I-1
I-2
I-1
I-2
I-2
I-2
I-2
I1
I1
I1
I-1
I-1
I-2
I-2
I-1
I-1
I-1
I-2
I-1
I-1
I-1
I1
I1
I1
I-2
I0
I1
I-2
I2
I2
I2
I2
I2
I2
I1
I1
I-1
I-2
I-2
I-2
I-2
I-2
I1
I1
I-1
I-2
I-2
I0
I-2
I-1
I-2
I-2
I-2
I0
I2
I-1
I2
I2
I2
I-2
I2
I0
I-2
I1
I-1
I-2
I-2
I-2
I-2
I-2
I2
I1
I2
I2
I1
I-1
I-1
I-1
I1
I1
I0
I-1
I1
I-1
I-1
I1
I1
I-1
I-2
I-1
I-2
I-2
I-1
I-2
I2
I-1
I2
I2
I1
I2
I2
I1
I-1
I2
I-1
I2
I0
I1
I2
I-2
I2
I2
I2
I2
I2
I0
I-2
I2
I-2
I-2
I0
I2
I1
I2
I1
I2
I1
I1
I-1
I0
I1
I1
I2
I0
I1
I-1
I1
I-2
I-1
I-1
I2
I-2
I-2
I1
I-2
I-1
I0
I2
tp114
sS'dd71105c94b9d77f.jpg'
p115
(I1
I2
I2
I-1
I-1
I2
I2
I1
I1
I2
I2
I2
I2
I-2
I1
I-1
I1
I1
I-1
I-2
I0
I-1
I-1
I2
I1
I2
I2
I1
I-1
I-1
I1
I-1
I1
I1
I2
I-1
I1
I1
I-2
I-2
I-2
I-2
I-2
I1
I-2
I0
I-2
I-2
I-2
I-1
I-1
I-2
I-1
I-2
I-1
I-2
I1
I1
I2
I1
I-1
I2
I-2
I-1
I0
I-2
I-1
I-2
I1
I-1
I-1
I1
I-2
I1
I-1
I2
I-1
I-1
I1
I-2
I-1
I1
I-2
I0
I-1
I-2
I-1
I1
I1
I2
I1
I2
I1
I-1
I-1
I-1
I2
I-1
I-1
I-1
I-2
I1
I-1
I2
I1
I-1
I1
I2
I2
I2
I1
I1
I0
I1
I-1
I-2
I-1
I-2
I-2
I-2
I2
I1
I2
I1
I2
I-2
I-1
I2
I-2
I-1
I-2
I-2
I-2
I-2
I-2
I-2
I1
I1
I0
I2
I-1
I1
I-2
I0
I1
I1
I-2
I1
I-1
I-1
I1
I1
I1
I-1
I1
I1
I-1
I2
I2
I2
I1
I2
I1
I1
I2
I2
I2
I2
I-1
I-1
I-2
I1
I1
I-1
I2
I1
I2
I2
I-1
I2
I2
I-1
I1
I1
I1
I1
I2
I1
I2
I-1
I2
I1
I1
I2
I-2
I2
I-1
I-2
I-2
I-2
I1
I1
I2
I2
I1
I2
I2
I2
I2
I1
I0
I-1
I-2
I-2
I1
I1
I-1
I-2
I-1
I-2
I-2
I-1
I0
I-1
I-2
I-2
I-2
I-2
I-1
I0
I0
I-2
I-2
I0
I-2
I-1
I0
I-2
I0
I-2
I-1
I0
I2
I2
I-2
I-2
I-1
I0
I-1
I2
I2
I1
I-1
I-1
I2
I1
I2
I2
I2
I2
I-2
I-1
I-2
I-2
I1
I-1
I-1
I-1
I-1
I-2
I-1
I-1
I-2
I-1
I-1
I-1
I-1
I1
I1
I2
I-1
I2
I2
I-2
I2
I2
I2
I1
I1
I2
I-1
I1
I2
I2
I2
I-1
I2
I-1
I0
I-2
I0
I0
I-2
I-2
I-2
I-2
I-2
I1
I-2
I-1
I-2
I-2
I-2
I-1
I-2
I-2
I-2
I-2
I-1
I-2
I1
I2
I1
I-1
I-2
I1
I-2
I1
I1
I-1
I1
I-2
I1
I-1
I1
I1
I-2
I-1
I-1
I-1
I-2
I-1
I1
I-2
I-2
I1
I-2
I-1
I-1
I-2
I2
I1
I1
I2
I1
I2
I1
I2
I-1
I0
I2
I-1
I-2
I-1
I1
I0
I2
I2
I2
I2
I2
I2
I2
I2
I2
I2
I1
I2
I1
I-2
I-2
I-2
I-2
I-2
I2
I2
I2
I2
I2
I-1
I-1
I2
I-1
I-1
I1
I-2
I-1
I-2
I-1
I0
I1
I2
I1
I1
I1
I1
I1
I-1
I1
I1
I-2
I-1
I-2
I1
I-1
I-1
I2
I-1
I1
I2
I2
I1
I2
I2
I-2
I-1
I-2
I-2
I-1
I0
I-1
I1
I0
I-2
I1
I1
I2
I-2
I2
I0
I2
I2
I-2
I2
I1
I0
I1
I2
I2
I2
I2
I1
I2
I-1
I2
I2
I2
I2
I-2
I1
I-1
I-2
I0
I-2
I2
I1
I0
I-1
I-1
I0
I-2
I2
I1
I-1
I1
I1
I-1
I2
I1
I2
I1
I-1
I1
I-2
I0
I-1
I0
I1
I-2
I-1
I-2
I1
I-1
I0
I2
I-2
I0
I1
I-1
I-2
I-2
I-2
I-1
I-2
I-2
I1
I-2
I-2
I-2
I-1
I0
I-2
I-2
I2
I0
I2
I-2
I-2
I-2
I-2
I-1
I-1
I-1
I-2
I1
I-1
I1
I-1
I-1
I1
I-2
I1
I2
I2
I2
I2
I1
I0
I2
I-2
I1
I-1
I1
I-1
tp116
sS'95f0e5d1143886bb.jpg'
p117
(I-2
I-2
I-2
I2
I-2
I2
I1
I2
I2
I1
I2
I2
I1
I-1
I1
I2
I1
I2
I-1
I2
I-1
I1
I2
I-2
I-2
I-1
I1
I-2
I2
I-1
I2
I1
I1
I1
I2
I1
I1
I2
I-2
I-1
I0
I2
I-2
I-1
I-2
I-2
I2
I-1
I-2
I1
I1
I-1
I-1
I-1
I-2
I-2
I-2
I-1
I-2
I-1
I-1
I-1
I-1
I-1
I1
I2
I2
I2
I2
I2
I-2
I-1
I1
I-2
I1
I-1
I2
I2
I-2
I-1
I-2
I-1
I-2
I1
I1
I1
I2
I-1
I-1
I2
I0
I2
I2
I2
I-1
I-1
I1
I0
I1
I2
I2
I1
I-2
I0
I-1
I2
I-1
I2
I1
I1
I2
I1
I2
I1
I1
I-1
I0
I2
I1
I-1
I1
I1
I-2
I0
I-1
I1
I-2
I-2
I1
I-2
I1
I1
I2
I-1
I-1
I-1
I-2
I-2
I-1
I-2
I1
I-2
I-2
I-2
I-2
I-1
I-2
I-1
I0
I-2
I-2
I-2
I-1
I-2
I-2
I0
I1
I-2
I-2
I-2
I-2
I-2
I-2
I-1
I-2
I-2
I-2
I-1
I-1
I1
I2
I-2
I2
I-2
I-2
I-1
I2
I-2
I-1
I-1
I-1
I1
I-2
I2
I-1
I-2
I1
I2
I1
I2
I0
I1
I-1
I-1
I2
I1
I2
I0
I0
I-1
I-1
I2
I1
I2
I2
I0
I1
I-1
I2
I2
I2
I2
I2
I-1
I1
I1
I2
I1
I2
I2
I2
I-1
I-2
I2
I-1
I-2
I2
I2
I2
I2
I2
I2
I1
I2
I1
I-2
I-2
I-2
I-1
I-2
I-2
I-2
I-2
I-2
I2
I1
I-1
I2
I-2
I1
I0
I2
I2
I1
I1
I2
I1
I2
I2
I2
I1
I1
I1
I-1
I2
I2
I1
I2
I-2
I-2
I-1
I-2
I2
I-2
I1
I2
I-2
I-2
I-2
I-2
I-2
I-1
I-1
I-1
I-1
I1
I-2
I2
I-1
I2
I1
I0
I2
I-1
I2
I1
I2
I2
I1
I2
I-2
I1
I-2
I-2
I-1
I2
I-1
I-1
I1
I1
I2
I0
I-2
I1
I2
I1
I1
I1
I-2
I-2
I-2
I-2
I-2
I-1
I-2
I-2
I-2
I-1
I2
I2
I2
I2
I1
I1
I-2
I-1
I1
I-2
I1
I-2
I-1
I1
I-2
I1
I-2
I-1
I-1
I-2
I-1
I-1
I1
I-1
I-2
I1
I-1
I1
I1
I2
I0
I-1
I2
I1
I1
I1
I2
I1
I-2
I1
I-1
I2
I0
I-1
I-1
I1
I2
I0
I-1
I-1
I1
I-1
I-1
I1
I-1
I-2
I-1
I2
I-2
I1
I-2
I-1
I-2
I-2
I2
I-1
I2
I2
I1
I-1
I-1
I1
I-1
I1
I2
I-1
I2
I-2
I0
I0
I-1
I1
I-1
I-2
I0
I-2
I-2
I-1
I1
I-1
I-1
I0
I2
I-2
I-1
I-2
I-2
I-2
I-2
I-2
I-2
I-2
I-2
I-1
I-1
I0
I2
I-2
I1
I-2
I-2
I-2
I1
I-2
I0
I1
I1
I2
I-2
I2
I0
I-2
I2
I2
I1
I2
I-1
I2
I-1
I1
I2
I1
I2
I1
I2
I-1
I1
I2
I-1
I0
I2
I-2
I0
I-1
I1
I1
I0
I2
I2
I0
I1
I1
I1
I1
I1
I1
I2
I-1
I-1
I1
I1
I1
I2
I2
I2
I1
I2
I1
I1
I2
I1
I-1
I-2
I-2
I-1
I-1
I-2
I-2
I2
I0
I-2
I2
I-2
I2
I1
I1
I2
I1
I-1
I-1
I1
I-1
I1
I-2
I-1
I-1
I-1
I1
I-1
I-1
I-1
I-1
I1
I-1
I-1
I-1
I-1
I-1
I-1
I-1
I2
I1
I1
I-2
I1
I-1
tp118
sS'29586d52d50be8cd.jpg'
p119
(I2
I-1
I-2
I-2
I-1
I-2
I-2
I-2
I1
I-1
I-2
I-1
I-1
I1
I-1
I-1
I1
I0
I1
I-1
I1
I1
I2
I1
I-1
I1
I2
I2
I1
I-2
I2
I2
I2
I2
I2
I2
I2
I1
I-2
I2
I-1
I1
I2
I-1
I1
I1
I2
I2
I2
I1
I1
I2
I2
I1
I2
I1
I1
I-1
I1
I1
I0
I2
I1
I-1
I-1
I-1
I-1
I-1
I1
I-2
I0
I-1
I-1
I1
I2
I2
I-2
I-1
I-2
I-2
I-2
I-2
I1
I-2
I-2
I-2
I-2
I-2
I-2
I-1
I-2
I-2
I-2
I-2
I-2
I-2
I-2
I2
I-2
I-1
I1
I-2
I-1
I1
I2
I2
I1
I-1
I-2
I0
I1
I2
I-1
I-2
I-1
I0
I-1
I1
I2
I-1
I-1
I0
I1
I1
I2
I2
I-1
I-1
I-2
I-1
I-2
I-2
I-2
I-2
I-2
I-2
I2
I2
I2
I2
I2
I2
I1
I2
I1
I2
I2
I-2
I-1
I-1
I-1
I-2
I2
I2
I1
I1
I2
I1
I-2
I-2
I2
I-1
I-2
I-2
I-2
I-2
I-2
I-1
I2
I-1
I2
I-1
I2
I-1
I-1
I2
I-1
I0
I-2
I-2
I-2
I-2
I-2
I-2
I-2
I-2
I1
I1
I2
I2
I1
I2
I2
I1
I1
I2
I-2
I-1
I-1
I2
I0
I2
I2
I-1
I1
I1
I1
I1
I2
I1
I-2
I1
I-1
I-1
I-2
I2
I1
I1
I2
I2
I2
I2
I1
I2
I2
I1
I2
I2
I1
I-1
I2
I2
I1
I0
I1
I-2
I-2
I-2
I-2
I1
I2
I1
I-1
I-2
I0
I2
I-2
I-1
I1
I-1
I-2
I-1
I2
I-2
I-2
I-1
I-1
I-2
I-1
I0
I-1
I0
I-1
I1
I2
I1
I1
I0
I-2
I-2
I-2
I-2
I-2
I-1
I-1
I1
I-1
I-1
I-2
I2
I1
I1
I2
I2
I-1
I-2
I-2
I-1
I-2
I2
I2
I1
I-1
I-1
I2
I2
I-1
I2
I2
I1
I0
I2
I1
I2
I1
I1
I1
I-1
I-1
I1
I2
I2
I2
I1
I1
I1
I2
I1
I1
I1
I-1
I-1
I1
I1
I0
I1
I0
I-1
I1
I-1
I-1
I-1
I-1
I-1
I0
I1
I-1
I1
I2
I1
I-1
I-1
I-1
I-2
I-2
I-2
I-1
I-2
I-2
I-2
I-2
I-2
I-2
I1
I-1
I-2
I-2
I-2
I-1
I-2
I-2
I1
I-2
I-2
I-2
I-2
I-1
I-1
I2
I1
I2
I1
I-1
I2
I1
I2
I-1
I-2
I-1
I-2
I-1
I-1
I1
I-2
I-1
I0
I1
I1
I1
I2
I-1
I1
I-1
I1
I-1
I-1
I-1
I-1
I0
I-2
I1
I1
I2
I1
I-1
I1
I-1
I-2
I1
I2
I2
I1
I-1
I0
I-1
I-2
I2
I2
I2
I1
I1
I0
I-2
I-2
I2
I2
I-1
I-1
I1
I-2
I-2
I1
I1
I-2
I-1
I-2
I0
I-1
I1
I2
I-1
I-1
I-2
I-1
I-2
I-2
I-2
I-2
I-2
I-2
I2
I1
I1
I2
I1
I1
I1
I1
I-1
I0
I-1
I-1
I-2
I-1
I-1
I1
I2
I1
I0
I2
I-1
I1
I2
I2
I2
I1
I0
I1
I-2
I2
I2
I2
I2
I2
I2
I2
I-1
I2
I2
I1
I2
I2
I2
I1
I2
I2
I2
I1
I-1
I0
I-2
I-1
I-2
I1
I2
I-1
I1
I2
I-1
I1
I1
I2
I-1
I1
I-1
I0
I-1
I1
I-1
I0
I1
I-1
I-2
I-2
I-1
I-1
I-2
I-2
I-2
I1
I2
I-2
I-2
I-2
I-2
I-2
I-2
I-2
I1
I2
I-1
I-1
I2
I1
tp120
sS'877bda5c3abff50a.jpg'
p121
(I1
I1
I1
I-1
I2
I1
I0
I-2
I-2
I-1
I-1
I-2
I-2
I1
I-1
I-2
I-2
I-2
I1
I1
I-2
I-2
I-1
I-1
I-1
I-2
I-1
I0
I1
I1
I-1
I1
I2
I-1
I-2
I-1
I1
I-2
I2
I2
I1
I-1
I-1
I-1
I2
I-1
I-1
I0
I1
I1
I-2
I2
I-1
I0
I2
I2
I2
I2
I1
I2
I2
I1
I2
I2
I2
I-1
I-1
I2
I1
I2
I2
I2
I2
I1
I2
I1
I2
I2
I1
I1
I1
I-2
I1
I2
I1
I-1
I0
I-1
I1
I-1
I2
I-1
I-2
I-1
I-2
I-1
I-2
I-2
I-2
I-2
I-2
I-2
I2
I-1
I2
I0
I-1
I-2
I-2
I-2
I-2
I-2
I1
I1
I-2
I2
I1
I0
I0
I2
I0
I-2
I-2
I-1
I-1
I-1
I2
I1
I-1
I-1
I-1
I1
I2
I2
I2
I2
I-2
I-2
I-2
I-2
I-1
I-1
I1
I1
I-2
I-1
I1
I1
I-1
I2
I2
I2
I1
I2
I2
I1
I1
I2
I2
I1
I1
I2
I0
I-1
I-1
I2
I-1
I2
I2
I1
I1
I1
I2
I2
I0
I0
I-1
I1
I2
I0
I1
I0
I2
I-1
I1
I2
I-2
I-2
I-2
I-2
I-2
I-2
I0
I-2
I-1
I-2
I1
I2
I1
I2
I-1
I-1
I-2
I-1
I-2
I-1
I1
I-2
I-2
I-2
I-1
I-2
I-2
I-1
I-1
I-2
I-2
I-1
I-2
I-2
I-2
I1
I-2
I-2
I0
I1
I-1
I1
I-1
I2
I2
I2
I2
I1
I-2
I-2
I-2
I1
I-1
I1
I1
I1
I1
I-1
I-1
I-1
I2
I-1
I2
I1
I-2
I-2
I-2
I0
I-2
I-2
I-2
I-2
I-2
I-2
I2
I1
I2
I2
I-1
I-2
I-1
I-2
I1
I2
I2
I1
I0
I-1
I-2
I1
I2
I2
I2
I0
I2
I-2
I1
I2
I1
I0
I-2
I-2
I1
I-2
I-2
I-1
I-1
I-2
I-2
I-1
I-2
I-2
I-2
I-2
I-1
I1
I2
I1
I-2
I-1
I-1
I-2
I1
I-1
I1
I2
I2
I2
I-1
I2
I2
I2
I2
I2
I2
I1
I1
I2
I2
I2
I2
I1
I1
I-1
I-1
I2
I2
I2
I2
I2
I2
I1
I2
I2
I2
I2
I-1
I-1
I2
I-2
I1
I2
I1
I1
I-2
I2
I2
I-1
I1
I0
I-1
I-1
I1
I2
I-1
I-1
I-2
I-1
I-1
I-1
I2
I2
I2
I2
I2
I-1
I-2
I-1
I-2
I-1
I1
I-2
I-2
I1
I1
I-1
I-1
I1
I-2
I-2
I-2
I-1
I1
I-1
I1
I0
I-2
I-2
I-2
I-1
I1
I1
I-1
I1
I-2
I-2
I-2
I-1
I-1
I-1
I1
I1
I-2
I-1
I0
I1
I-1
I1
I2
I-1
I-1
I1
I1
I1
I1
I2
I-1
I-2
I1
I1
I-2
I-1
I1
I-1
I-2
I1
I1
I-2
I-1
I-2
I0
I2
I1
I1
I1
I1
I1
I1
I1
I-1
I2
I-1
I1
I1
I-1
I-1
I-1
I-2
I-1
I-1
I-1
I-2
I0
I1
I1
I1
I2
I1
I-2
I-1
I-1
I-1
I-1
I-2
I1
I-2
I-2
I-2
I-1
I-2
I-2
I-1
I-2
I-2
I-2
I1
I1
I1
I1
I2
I-1
I0
I2
I2
I2
I2
I2
I1
I2
I2
I2
I2
I-1
I0
I-2
I2
I1
I-1
I1
I1
I-1
I-1
I1
I-1
I1
I-1
I1
I-1
I-1
I-2
I2
I2
I2
I2
I1
I1
I2
I2
I-1
I1
I2
I2
I0
I-1
I2
I-1
I-2
I-2
I-2
I0
I-2
I-2
I-2
I0
I-2
I-2
I-1
I2
tp122
sS'0739b82cdebfe859.jpg'
p123
(I2
I0
I0
I-2
I-1
I-2
I-2
I-2
I1
I1
I-1
I-2
I-1
I-1
I-1
I-2
I-1
I-2
I1
I0
I-1
I-2
I-1
I0
I-2
I-2
I-1
I-2
I2
I-1
I2
I-2
I1
I1
I2
I-2
I2
I2
I-2
I-2
I-1
I0
I2
I0
I-1
I0
I0
I2
I1
I0
I-1
I-1
I0
I-2
I2
I2
I2
I1
I1
I1
I-2
I1
I1
I1
I1
I-1
I-1
I-2
I-1
I-1
I2
I2
I2
I1
I1
I0
I0
I-1
I1
I1
I-2
I-1
I-2
I-1
I-2
I-1
I2
I2
I2
I2
I2
I2
I2
I2
I-1
I-2
I2
I-2
I1
I1
I2
I1
I-2
I1
I-1
I1
I0
I1
I1
I1
I-1
I2
I0
I0
I-1
I-1
I-2
I-1
I1
I1
I2
I2
I2
I2
I2
I2
I2
I2
I-1
I1
I0
I-2
I1
I1
I2
I1
I1
I0
I1
I-1
I-1
I2
I0
I1
I1
I2
I-2
I1
I1
I1
I2
I1
I1
I-2
I-1
I-1
I2
I1
I0
I1
I-2
I-2
I-1
I-2
I-1
I-2
I-1
I1
I-1
I0
I1
I0
I2
I1
I1
I2
I1
I2
I-2
I-1
I-2
I-2
I-1
I-1
I0
I-1
I-1
I-2
I-1
I1
I2
I1
I1
I1
I-2
I-2
I-2
I-2
I-2
I-2
I-2
I-2
I-1
I0
I-1
I2
I1
I1
I2
I1
I-1
I-2
I-1
I-1
I-1
I1
I0
I-2
I-1
I0
I2
I1
I1
I1
I-2
I-2
I-1
I1
I0
I-1
I2
I-2
I-2
I0
I-1
I-2
I-2
I-2
I-2
I-1
I1
I1
I-1
I1
I-2
I0
I-1
I-1
I-1
I-1
I-1
I-2
I1
I-1
I2
I1
I1
I1
I-1
I-1
I-1
I2
I-1
I-1
I1
I-2
I-2
I-2
I2
I-2
I-1
I-1
I-1
I-2
I-2
I1
I-1
I0
I-1
I1
I-2
I-2
I2
I-2
I2
I1
I2
I2
I-1
I2
I-2
I2
I2
I2
I2
I1
I2
I-2
I2
I2
I0
I2
I-2
I0
I1
I1
I1
I1
I-1
I2
I-1
I1
I-1
I-1
I-2
I-2
I1
I-2
I2
I1
I2
I2
I1
I2
I-2
I1
I1
I2
I2
I-1
I-1
I-2
I1
I1
I2
I2
I2
I1
I2
I2
I1
I-1
I-1
I-2
I-2
I-2
I-2
I-2
I-2
I-1
I2
I2
I2
I2
I2
I2
I2
I2
I-2
I-2
I0
I-2
I1
I1
I-1
I0
I-2
I-1
I-1
I-1
I-1
I1
I2
I2
I1
I2
I-2
I-1
I-2
I-2
I-2
I-2
I1
I-1
I2
I2
I2
I2
I2
I2
I2
I2
I-1
I-1
I-2
I-2
I-1
I1
I2
I1
I-1
I-2
I2
I1
I-2
I2
I1
I1
I1
I2
I-2
I2
I2
I2
I2
I2
I1
I-2
I-1
I-2
I-1
I0
I-1
I-2
I-2
I1
I1
I1
I0
I0
I-1
I2
I0
I1
I0
I-1
I2
I-1
I2
I2
I0
I1
I-2
I-1
I-2
I-2
I-1
I-2
I-1
I-2
I1
I-2
I-1
I1
I2
I-1
I-1
I1
I-2
I-2
I-2
I-2
I-2
I-2
I-2
I-2
I-1
I-1
I-2
I2
I1
I1
I0
I0
I-1
I-2
I0
I-1
I-1
I-1
I0
I-2
I-2
I1
I0
I1
I-1
I1
I-2
I-1
I2
I1
I1
I1
I2
I-1
I0
I2
I-2
I-2
I-2
I-2
I-1
I0
I2
I1
I-1
I1
I1
I-1
I-1
I2
I1
I2
I1
I2
I-1
I2
I-1
I-2
I-1
I2
I0
I1
I1
I0
I0
I0
I-1
I0
I-2
I2
I2
I1
I2
I1
I1
I0
I2
I-1
I2
I-2
I1
I-2
tp124
sS'46a070492b5cc0bd.jpg'
p125
(I-2
I-1
I1
I2
I1
I2
I2
I-2
I-1
I-2
I2
I-2
I-1
I2
I-2
I-2
I1
I-1
I2
I1
I2
I1
I-1
I-1
I-2
I0
I-1
I-1
I2
I2
I1
I1
I1
I-2
I-2
I-2
I-2
I-1
I2
I-1
I1
I1
I-2
I1
I1
I-1
I-1
I-2
I-2
I-1
I-2
I0
I-2
I-2
I2
I2
I2
I2
I2
I2
I2
I2
I1
I-1
I-2
I-2
I-2
I0
I1
I-1
I1
I-1
I0
I2
I-2
I2
I1
I1
I1
I1
I-1
I2
I1
I2
I2
I1
I1
I-2
I2
I-1
I-1
I2
I1
I2
I-1
I2
I1
I1
I2
I1
I2
I1
I1
I-1
I-2
I1
I-1
I-1
I0
I-2
I2
I-2
I1
I2
I-2
I2
I-1
I2
I-1
I-1
I2
I-2
I0
I1
I1
I0
I1
I2
I-2
I-1
I-2
I-1
I-2
I-1
I1
I-2
I1
I-1
I-2
I2
I0
I2
I1
I2
I-1
I-2
I-2
I0
I-1
I1
I2
I0
I-1
I-1
I-1
I1
I2
I2
I1
I1
I-2
I-2
I-1
I-2
I-2
I-1
I-1
I-1
I-1
I1
I2
I1
I1
I-2
I-2
I-2
I-2
I-2
I2
I1
I0
I2
I1
I2
I1
I0
I1
I-1
I1
I-1
I2
I1
I-1
I-1
I-2
I-1
I-2
I-2
I-2
I-2
I-2
I-2
I2
I-1
I-1
I2
I2
I-1
I-2
I-2
I-2
I-2
I-2
I-2
I-2
I-2
I-2
I-2
I0
I-1
I1
I2
I0
I-2
I-2
I-1
I-1
I1
I-1
I0
I0
I-2
I-1
I-1
I1
I-1
I0
I-1
I-1
I2
I-2
I-1
I1
I1
I2
I-1
I-1
I1
I-1
I1
I1
I-2
I0
I1
I2
I1
I-1
I2
I-2
I0
I1
I2
I1
I1
I-2
I-1
I1
I-1
I2
I2
I2
I2
I0
I2
I2
I1
I2
I2
I2
I0
I-1
I2
I1
I1
I2
I2
I2
I1
I2
I1
I1
I1
I1
I1
I1
I-2
I-1
I-1
I-2
I1
I1
I1
I1
I-1
I1
I-1
I-1
I0
I2
I0
I-1
I-1
I-2
I0
I-2
I2
I0
I-2
I2
I2
I1
I2
I2
I2
I2
I2
I0
I-1
I-2
I-2
I-1
I1
I2
I0
I1
I-2
I-2
I1
I-2
I2
I1
I1
I-1
I-1
I-1
I2
I0
I2
I2
I2
I-1
I-1
I1
I0
I-1
I2
I2
I2
I-1
I2
I1
I1
I2
I2
I2
I1
I-1
I-1
I-2
I1
I-1
I-2
I-2
I-2
I0
I-2
I0
I0
I-2
I2
I-2
I2
I-2
I-2
I2
I-2
I-1
I2
I1
I-2
I1
I0
I-2
I-2
I-2
I-1
I-2
I-1
I-1
I-1
I0
I-1
I-2
I2
I-1
I1
I1
I1
I-1
I-2
I-2
I1
I-1
I2
I2
I-1
I-2
I-2
I-2
I1
I1
I2
I0
I1
I-2
I-2
I-1
I-1
I-2
I-1
I1
I1
I-1
I1
I2
I2
I2
I0
I-2
I-2
I-1
I-2
I2
I2
I2
I2
I2
I2
I2
I1
I2
I-1
I1
I-2
I-1
I1
I-1
I-1
I0
I1
I-1
I1
I0
I-1
I0
I-2
I1
I-1
I-2
I0
I1
I0
I-2
I-2
I-1
I-2
I-2
I-1
I-2
I-2
I-2
I-2
I1
I0
I1
I2
I1
I-2
I-2
I-1
I-1
I-1
I-2
I-1
I-1
I-2
I-2
I-1
I-1
I-2
I1
I-1
I-1
I1
I-2
I-1
I2
I-2
I-1
I1
I-2
I-1
I1
I1
I2
I1
I1
I0
I0
I-1
I-2
I2
I2
I2
I2
I-1
I2
I2
I2
I1
I0
I2
I2
I2
I0
I1
I1
I2
I1
I-1
I1
I1
I1
I-1
tp126
sS'1337ec3c9c5cb78a.jpg'
p127
(I-2
I-2
I-1
I2
I2
I0
I2
I2
I-2
I2
I-1
I2
I2
I-2
I1
I-1
I-1
I-2
I-1
I-2
I-1
I-2
I-1
I2
I1
I0
I1
I1
I-1
I2
I0
I1
I2
I-2
I0
I-2
I1
I-1
I0
I0
I-1
I2
I0
I2
I1
I2
I1
I-2
I1
I-2
I2
I-1
I1
I1
I-2
I-2
I1
I-2
I0
I-2
I-2
I-1
I-2
I1
I1
I0
I-1
I-2
I-1
I1
I2
I2
I0
I1
I1
I1
I2
I2
I1
I-1
I0
I-1
I1
I1
I2
I2
I-1
I-1
I2
I-1
I2
I2
I2
I2
I-2
I-1
I0
I-2
I-1
I1
I2
I-2
I1
I1
I1
I2
I-2
I-1
I1
I2
I2
I1
I-2
I-1
I2
I-2
I1
I-1
I-1
I1
I-1
I2
I2
I-1
I2
I-1
I1
I2
I1
I1
I-1
I-2
I1
I-1
I1
I1
I-1
I-2
I-1
I-1
I2
I1
I1
I2
I-2
I-2
I-2
I-2
I1
I-2
I-1
I-2
I-2
I-2
I-1
I-1
I1
I-1
I-2
I-2
I-2
I-2
I-2
I-1
I-2
I-2
I-2
I-2
I2
I2
I2
I2
I2
I-2
I1
I-1
I0
I-2
I-1
I1
I1
I1
I2
I1
I-1
I2
I-1
I-1
I1
I-2
I2
I-2
I1
I2
I-2
I-1
I-1
I-2
I0
I-2
I-1
I-2
I-1
I-1
I2
I0
I2
I-1
I-1
I-1
I-2
I1
I1
I-2
I-2
I-2
I-2
I-2
I2
I2
I2
I2
I1
I-2
I-2
I1
I2
I2
I-2
I-1
I1
I-2
I1
I1
I1
I-2
I-2
I-1
I-1
I0
I-1
I-2
I-2
I-1
I2
I1
I2
I2
I2
I-1
I2
I2
I-2
I-1
I2
I-2
I1
I-2
I1
I1
I-2
I1
I1
I-1
I-1
I-1
I-1
I-1
I2
I1
I2
I1
I0
I1
I-1
I1
I1
I2
I2
I0
I-2
I-1
I1
I2
I2
I2
I2
I2
I2
I2
I2
I2
I-1
I-1
I1
I-2
I1
I1
I2
I-2
I-1
I1
I-1
I2
I-2
I2
I1
I2
I2
I2
I1
I-2
I2
I-2
I2
I0
I0
I1
I-2
I-1
I1
I-2
I1
I-2
I-1
I1
I-1
I1
I-1
I-1
I-1
I-2
I-1
I1
I1
I1
I1
I1
I2
I1
I1
I2
I-1
I-1
I-2
I-2
I2
I0
I2
I2
I-2
I-2
I-1
I-2
I1
I-1
I-1
I0
I-2
I-2
I-2
I-1
I-2
I-1
I-1
I-2
I2
I2
I2
I2
I2
I-2
I0
I0
I1
I-1
I-2
I0
I2
I0
I1
I1
I-1
I1
I-1
I1
I2
I-1
I2
I-2
I-1
I2
I-1
I1
I-1
I-2
I1
I-2
I1
I2
I-1
I-1
I0
I-1
I2
I1
I1
I0
I-2
I-2
I1
I-2
I1
I-1
I-2
I-2
I-2
I1
I1
I-1
I1
I-2
I-2
I-1
I0
I1
I-2
I-1
I-2
I-2
I-2
I-1
I2
I-2
I2
I1
I1
I-1
I-1
I-1
I-1
I-1
I1
I1
I2
I1
I2
I0
I1
I2
I-1
I1
I2
I-2
I2
I-1
I2
I2
I-2
I-1
I-1
I-2
I1
I-1
I-1
I-2
I-2
I-1
I1
I-1
I-1
I-2
I-2
I-2
I0
I2
I2
I1
I1
I-2
I-1
I-2
I2
I2
I2
I-1
I1
I-2
I-2
I-1
I1
I2
I-1
I-1
I1
I-2
I-1
I1
I1
I-1
I-1
I-2
I1
I1
I0
I1
I1
I-1
I1
I-1
I2
I-2
I-2
I1
I-2
I1
I-2
I1
I2
I-1
I-2
I2
I2
I2
I2
I1
I2
I1
I2
I-1
I-2
I2
I2
I2
I2
I2
I1
I1
I2
I-2
I2
I-1
I-1
I-2
tp128
s.