(dp0
S'f602e6a24622e080.jpg'
p1
(I2
I2
I1
I-2
I1
I-1
I-1
I-1
I-1
I-2
I-2
I-1
I-2
I2
I1
I1
I1
I-1
I-1
I0
I-1
I-2
I-2
I0
I-2
I-2
I-2
I-2
I2
I2
I0
I1
I-1
I-2
I2
I-1
I-2
I1
I-2
I-2
I-1
I-2
I1
I-1
I0
I1
I-1
I1
I2
I1
I1
I1
I1
I2
I1
I1
I-1
I-1
I0
I1
I2
I-1
I2
I-1
I1
I0
I-2
I2
I-1
I-1
I1
I2
I2
I2
I-2
I1
I1
I-1
I2
I2
I0
I2
I1
I2
I1
I2
I2
I-1
I1
I-1
I-1
I1
I2
I2
I1
I2
I2
I1
I2
I2
I2
I2
I-1
I1
I-2
I1
I2
I0
I-1
I1
I-1
I2
I-1
I-1
I-1
I-1
I2
I-2
I1
I2
I-2
I-2
I-2
I-2
I-2
I-1
I1
I-2
I1
I1
I-1
I2
I-1
I2
I1
I2
I1
I-1
I-2
I1
I-1
I2
I2
I2
I1
I-1
I-1
I1
I2
I2
I2
I2
I-2
I-2
I-2
I-2
I-1
I2
I0
I2
I-2
I-2
I-1
I1
I2
I1
I2
I2
I-2
I-2
I-2
I1
I1
I1
I2
I2
I-1
I1
I-2
I-1
I1
I-2
I1
I-2
I-2
I-1
I-2
I-1
I-2
I-1
I-2
I-2
I-2
I-2
I2
I-1
I-2
I2
I2
I1
I-1
I-1
I-2
I-2
I-2
I-2
I1
I-2
I-2
I-2
I-2
I-2
I-2
I-1
I-2
I-2
I-2
I-2
I-2
I0
I-1
I2
I2
I-1
I-2
I-2
I-2
I-2
I-1
I-2
I1
I-2
I-2
I-2
I-2
I-1
I-1
I-2
I-2
I1
I2
I1
I2
I2
I-1
I2
I2
I-1
I2
I1
I1
I2
I1
I2
I-1
I-2
I-2
I-1
I1
I0
I2
I1
I2
I2
I-1
I2
I2
I0
I1
I2
I2
I1
I1
I2
I1
I-2
I2
I2
I1
I-1
I-2
I-1
I-2
I-2
I2
I2
I2
I2
I1
I1
I0
I1
I2
I2
I2
I-1
I1
I-1
I1
I1
I2
I2
I-1
I0
I1
I-2
I-1
I0
I-1
I1
I-2
I-1
I1
I0
I1
I-1
I1
I1
I-2
I-1
I-2
I-1
I-1
I-1
I-1
I-2
I0
I-2
I-2
I1
I-2
I-1
I-2
I-2
I0
I-1
I1
I2
I-2
I0
I1
I-1
I2
I2
I-1
I2
I-1
I2
I1
I2
I2
I0
I1
I1
I1
I1
I2
I2
I-1
I-1
I0
I-1
I1
I1
I2
I2
I-1
I-1
I-1
I1
I1
I1
I1
I2
I-1
I2
I-1
I-1
I1
I-2
I1
I-2
I1
I2
I-1
I1
I1
I-1
I-2
I1
I2
I-1
I2
I2
I0
I1
I0
I2
I1
I2
I2
I-1
I-2
I0
I-1
I1
I2
I1
I1
I-1
I-1
I1
I1
I2
I2
I1
I-2
I-2
I-1
I-1
I1
I1
I-1
I1
I-2
I-2
I-1
I-1
I-1
I-2
I-1
I1
I-2
I-1
I1
I-1
I1
I1
I2
I2
I1
I1
I-2
I-1
I-1
I-2
I1
I-2
I-2
I-2
I-2
I-2
I-2
I-1
I-2
I-2
I-2
I-2
I1
I-1
I-1
I2
I1
I-1
I-1
I-2
I-2
I-2
I-2
I-1
I-1
I-1
I-2
I-2
I-1
I-2
I-1
I1
I-2
I-2
I-2
I-2
I-1
I1
I2
I2
I1
I0
I-1
I-2
I-1
I1
I1
I-1
I1
I-2
I-2
I-2
I-1
I-1
I-1
I-2
I-2
I-1
I2
I1
I-1
I2
I2
I-1
I-1
I2
I2
I1
I1
I1
I2
I1
I1
I-1
I-2
I2
I2
I2
I2
I1
I2
I2
I0
I-1
I-1
I2
I1
I2
I1
I-2
I2
I2
I2
I2
I1
I2
I2
I-1
tp2
sS'3ac04f662d111193.jpg'
p3
(I-1
I-1
I-2
I1
I-2
I-1
I-2
I-2
I2
I2
I-1
I0
I1
I-2
I-1
I-2
I-1
I1
I1
I-1
I-1
I2
I0
I1
I1
I2
I1
I1
I-1
I-2
I-1
I-1
I-1
I2
I2
I2
I2
I0
I-2
I-2
I-2
I1
I1
I-2
I-2
I-2
I2
I2
I1
I2
I1
I-1
I-1
I-1
I2
I0
I2
I-1
I1
I-1
I-2
I-2
I-1
I1
I1
I-1
I2
I-2
I-2
I-1
I-1
I-2
I-2
I-2
I-1
I-2
I-2
I-1
I0
I-1
I1
I1
I-1
I-1
I1
I-2
I-1
I1
I-2
I1
I0
I1
I-1
I-1
I1
I-2
I2
I0
I-2
I-1
I-1
I-1
I0
I2
I2
I2
I2
I2
I1
I-1
I1
I2
I2
I1
I1
I1
I-1
I1
I2
I2
I1
I2
I2
I1
I-1
I2
I2
I2
I2
I2
I2
I1
I2
I2
I2
I2
I1
I2
I1
I-2
I1
I-1
I0
I2
I1
I-1
I-1
I-1
I-2
I-1
I1
I-1
I2
I1
I1
I2
I1
I2
I2
I-1
I1
I1
I-2
I-1
I-1
I1
I-2
I-2
I1
I-2
I1
I-1
I-1
I-1
I-1
I1
I-1
I-2
I-2
I-2
I-2
I-1
I1
I-1
I-2
I-2
I-2
I-2
I-2
I-1
I-1
I-2
I-2
I-2
I-2
I-2
I1
I1
I1
I-2
I-2
I-1
I-2
I0
I1
I-1
I2
I-2
I-2
I-1
I-2
I-1
I-2
I-2
I-2
I-2
I-2
I-2
I1
I-2
I-1
I2
I-2
I-1
I-2
I-2
I1
I2
I1
I2
I1
I1
I1
I1
I2
I1
I-1
I1
I1
I1
I1
I-2
I2
I2
I2
I2
I2
I2
I1
I2
I2
I2
I2
I2
I2
I-1
I-1
I2
I2
I2
I2
I2
I2
I1
I2
I2
I2
I2
I1
I2
I2
I-2
I1
I1
I0
I-1
I1
I2
I1
I-1
I-1
I-1
I-2
I-2
I2
I2
I-1
I1
I1
I-1
I-1
I1
I2
I-1
I-1
I-1
I0
I-2
I1
I-1
I-1
I-1
I0
I1
I-1
I-2
I-2
I1
I-1
I-1
I-2
I-2
I-2
I-1
I-2
I-2
I-1
I-2
I-2
I-2
I-2
I2
I1
I1
I0
I1
I-2
I-2
I-1
I-1
I-1
I-1
I1
I-2
I-2
I0
I1
I1
I-1
I2
I-1
I-1
I1
I2
I1
I1
I0
I0
I1
I2
I2
I1
I2
I0
I2
I1
I2
I1
I-1
I-1
I-1
I-2
I-1
I1
I-1
I1
I1
I1
I1
I-1
I1
I1
I2
I1
I1
I-2
I1
I1
I-1
I-1
I-1
I-1
I-2
I-2
I2
I0
I1
I1
I1
I-1
I-1
I-2
I-1
I-1
I-2
I-1
I-2
I-2
I-2
I-2
I2
I1
I0
I2
I1
I-1
I1
I1
I1
I-1
I-1
I-1
I2
I-1
I-1
I2
I-2
I-2
I-1
I-2
I-2
I-2
I-1
I-1
I-1
I1
I1
I2
I2
I2
I1
I2
I-1
I-1
I-2
I0
I2
I-1
I1
I-2
I2
I2
I2
I2
I1
I2
I0
I2
I2
I2
I2
I1
I2
I0
I-1
I2
I2
I1
I2
I2
I1
I1
I1
I2
I2
I2
I2
I-1
I1
I-1
I0
I1
I1
I2
I-1
I1
I2
I0
I2
I1
I2
I2
I-2
I1
I-2
I-2
I-1
I2
I-1
I-2
I1
I-2
I0
I1
I2
I-1
I-2
I-1
I-2
I-2
I-2
I-2
I-2
I-2
I-2
I0
I-2
I-2
I-2
I0
I-1
I-2
I-2
I-2
I1
I-2
I-1
I-2
I-1
I2
I0
I-2
I-1
I-1
I0
I2
I-2
I-2
I-2
I-2
I-2
I-2
I1
I1
I2
I-2
I2
I2
I2
I2
I2
I1
I2
I-2
tp4
sS'1eadac46084f7613.jpg'
p5
(I1
I-1
I1
I-1
I-1
I-1
I1
I-2
I1
I2
I2
I-1
I-2
I-2
I-1
I-2
I-2
I-1
I1
I-2
I-2
I-1
I-1
I2
I1
I1
I1
I0
I-1
I1
I-1
I-1
I2
I-1
I-1
I-1
I2
I-1
I1
I2
I-1
I1
I1
I2
I-1
I1
I-1
I-1
I-2
I-2
I-2
I-2
I-1
I-2
I2
I1
I2
I2
I-1
I2
I-1
I0
I2
I2
I2
I1
I2
I-1
I1
I-1
I1
I1
I-1
I-2
I-1
I-2
I-2
I-2
I1
I-1
I1
I1
I-1
I-2
I-1
I-2
I0
I1
I1
I1
I2
I-1
I-2
I1
I-2
I-2
I-2
I-2
I-2
I-2
I-2
I1
I1
I1
I2
I1
I2
I1
I2
I1
I2
I2
I-1
I1
I-2
I-1
I-2
I2
I1
I0
I2
I1
I1
I2
I1
I2
I2
I2
I0
I-1
I2
I-2
I-1
I2
I2
I2
I1
I2
I2
I1
I1
I2
I2
I2
I2
I1
I1
I-1
I-1
I2
I2
I0
I2
I2
I2
I1
I2
I2
I1
I2
I-1
I2
I-1
I-2
I2
I-2
I1
I0
I-1
I-2
I-2
I-2
I-2
I-2
I-2
I-1
I-2
I-2
I-2
I-1
I-2
I1
I-1
I-1
I-2
I-2
I0
I-2
I-2
I1
I1
I-1
I-1
I0
I-2
I-2
I-2
I-1
I-2
I-2
I-1
I-1
I-2
I-2
I-2
I2
I2
I1
I1
I-1
I-2
I-2
I-2
I-2
I-2
I-1
I-2
I-2
I0
I-1
I2
I2
I2
I1
I1
I2
I-2
I-1
I2
I-2
I-1
I-1
I1
I-1
I0
I2
I1
I2
I-1
I2
I1
I-2
I-2
I1
I2
I2
I1
I2
I1
I-1
I2
I-1
I2
I1
I2
I-1
I1
I1
I-2
I-2
I0
I1
I-1
I-1
I1
I-2
I-2
I-2
I1
I-1
I1
I-1
I-1
I-2
I-2
I-1
I1
I2
I-1
I1
I-1
I-1
I1
I-2
I2
I-1
I1
I1
I2
I1
I-1
I2
I-2
I-1
I-2
I-2
I-2
I-2
I0
I-1
I1
I1
I2
I2
I2
I2
I1
I2
I2
I2
I-1
I-2
I-1
I-2
I-2
I1
I-1
I-2
I1
I2
I2
I2
I-1
I2
I1
I1
I2
I2
I2
I1
I1
I2
I2
I1
I2
I2
I1
I-1
I1
I1
I1
I0
I1
I-1
I-1
I-1
I-2
I-1
I-2
I-2
I2
I1
I2
I2
I2
I1
I-1
I2
I-2
I0
I-2
I-2
I-1
I-2
I-1
I1
I1
I-2
I1
I-1
I1
I-2
I-1
I-2
I-1
I-2
I-2
I1
I-2
I2
I-2
I2
I0
I0
I2
I-1
I-2
I2
I0
I2
I1
I2
I-1
I-2
I-1
I0
I-1
I1
I2
I1
I-1
I-1
I1
I1
I-1
I2
I1
I2
I0
I2
I-1
I1
I-1
I1
I2
I2
I2
I1
I2
I1
I2
I2
I2
I2
I-2
I1
I1
I-2
I2
I0
I-1
I-1
I-1
I-1
I-2
I-2
I-2
I1
I-2
I-2
I-2
I-2
I2
I0
I-2
I2
I0
I-1
I-1
I-2
I0
I-1
I-2
I0
I1
I-1
I-2
I-1
I-2
I-2
I-2
I-1
I-2
I-2
I-2
I-1
I-1
I-1
I-1
I2
I1
I-1
I1
I-1
I-2
I-2
I-2
I-1
I-1
I0
I-1
I-1
I-2
I-2
I0
I1
I-1
I-1
I-1
I2
I-2
I1
I2
I1
I0
I1
I2
I-2
I1
I2
I0
I2
I-2
I2
I1
I-1
I2
I1
I1
I1
I-1
I2
I2
I2
I1
I1
I1
I2
I1
I-1
I1
I1
I-1
I0
I-1
I-1
I1
I1
I1
I1
I0
I1
I1
I-1
I0
I2
I-2
I-2
I-2
I-2
I-2
I2
I2
I2
tp6
sS'4964ebfdc4b2507b.jpg'
p7
(I1
I2
I2
I-1
I0
I2
I1
I-1
I0
I1
I1
I-1
I-1
I-1
I-1
I-2
I-1
I-1
I1
I0
I0
I1
I-1
I0
I-1
I1
I-1
I-1
I1
I2
I0
I1
I-1
I-2
I-1
I-2
I-2
I-2
I1
I-2
I-2
I-2
I-2
I-2
I-2
I-2
I-2
I-1
I-1
I2
I-2
I-2
I-2
I-1
I1
I1
I2
I2
I1
I-1
I2
I2
I1
I1
I0
I-1
I0
I1
I2
I1
I1
I-1
I-1
I0
I-2
I2
I1
I1
I1
I1
I0
I2
I1
I2
I2
I1
I1
I-1
I2
I-1
I-1
I2
I1
I-1
I1
I2
I2
I1
I2
I2
I1
I1
I2
I2
I-2
I-2
I-2
I2
I2
I-1
I-1
I1
I2
I2
I1
I1
I2
I0
I1
I1
I1
I-2
I-1
I-2
I1
I-1
I-1
I-2
I-2
I-2
I-2
I-1
I-1
I-2
I-2
I1
I-1
I-1
I-2
I1
I-1
I-2
I1
I1
I-1
I-2
I-2
I1
I-2
I2
I1
I0
I-1
I-1
I-2
I1
I-2
I2
I2
I2
I1
I-1
I2
I2
I0
I2
I2
I2
I-1
I2
I0
I2
I2
I1
I0
I1
I2
I2
I-1
I-1
I1
I-1
I0
I1
I2
I1
I-1
I1
I2
I0
I-1
I2
I1
I-1
I2
I2
I2
I1
I2
I2
I-1
I-1
I-1
I-1
I-2
I-2
I-1
I-2
I-2
I-2
I-1
I-1
I-2
I1
I-1
I-2
I-2
I-2
I0
I-2
I-2
I1
I1
I-1
I-1
I0
I-2
I-2
I-2
I-1
I1
I-2
I-1
I-1
I-2
I-2
I-1
I-2
I-2
I-2
I-1
I1
I2
I2
I-2
I-2
I-2
I-1
I-1
I1
I0
I-1
I-1
I-1
I-2
I1
I-2
I1
I1
I-1
I1
I1
I2
I2
I-1
I2
I1
I1
I1
I2
I2
I1
I1
I2
I2
I1
I2
I2
I1
I-1
I0
I0
I-1
I-1
I2
I1
I2
I0
I2
I-1
I-1
I-1
I0
I1
I2
I-2
I1
I-2
I-2
I-2
I1
I2
I-1
I-2
I-2
I-2
I-1
I-1
I-2
I-2
I-2
I0
I-1
I1
I-1
I-2
I-2
I-1
I1
I-1
I-2
I1
I-1
I-2
I-1
I1
I1
I-1
I-2
I1
I-1
I1
I2
I1
I-1
I-2
I0
I1
I-1
I2
I2
I2
I-1
I1
I1
I1
I-1
I2
I2
I2
I1
I1
I2
I1
I1
I2
I2
I-1
I1
I2
I2
I-1
I0
I2
I-1
I-1
I2
I2
I0
I-1
I-1
I2
I2
I1
I1
I2
I2
I2
I2
I-1
I2
I0
I2
I1
I1
I1
I-1
I-2
I1
I0
I-1
I-1
I-1
I-2
I-2
I-1
I-1
I-2
I-2
I-2
I-1
I-2
I-2
I1
I0
I-2
I-1
I1
I-2
I-2
I-2
I0
I-1
I-1
I1
I-2
I-2
I-2
I-2
I1
I-2
I1
I-2
I2
I1
I1
I1
I2
I0
I2
I2
I2
I1
I1
I0
I2
I2
I-1
I0
I2
I2
I2
I-2
I-2
I0
I-2
I-1
I-1
I2
I-1
I-1
I1
I2
I1
I-1
I2
I0
I-2
I1
I2
I2
I1
I1
I1
I-2
I-1
I2
I1
I1
I-1
I2
I-2
I-1
I-1
I-1
I-1
I-1
I-2
I-2
I-2
I-2
I-2
I2
I2
I-2
I2
I2
I0
I0
I-1
I-2
I-2
I-2
I-2
I-2
I-2
I-2
I-2
I-2
I-2
I2
I-2
I-2
I-2
I1
I2
I-2
I-2
I-2
I-2
I-2
I1
I0
I-1
I2
I-2
I2
I2
I2
I2
I1
I1
I1
I2
I-1
I1
I1
I2
I0
I-1
I-1
I2
I0
I2
I1
I-1
I1
I2
I2
I1
I2
I2
I2
I-2
tp8
sS'e126d6f338015b90.jpg'
p9
(I2
I-2
I2
I-2
I1
I-2
I1
I2
I-1
I1
I-1
I2
I2
I-1
I0
I1
I1
I1
I0
I-1
I1
I1
I0
I1
I-2
I1
I1
I1
I2
I-2
I2
I2
I-2
I2
I1
I2
I2
I0
I-1
I2
I-1
I2
I2
I2
I2
I2
I-2
I-1
I1
I-2
I2
I-2
I1
I2
I-2
I-2
I-1
I-2
I0
I-1
I-1
I-1
I-2
I-1
I-1
I0
I-1
I-1
I-1
I-1
I-1
I-1
I-1
I1
I-1
I-1
I1
I-1
I0
I-1
I-2
I1
I-1
I1
I0
I-1
I-1
I-2
I-2
I1
I-2
I1
I-1
I0
I2
I-2
I-2
I2
I-2
I2
I2
I-2
I0
I1
I2
I2
I1
I-2
I2
I2
I-2
I2
I-2
I-1
I1
I-2
I1
I-2
I1
I0
I-2
I1
I1
I-1
I0
I-1
I-1
I-1
I1
I1
I1
I0
I1
I-1
I-1
I-1
I1
I-1
I-1
I-1
I-1
I-1
I-1
I-2
I1
I0
I-1
I1
I-1
I-1
I-2
I-2
I1
I1
I-2
I1
I1
I-1
I-2
I-1
I0
I-2
I-2
I-1
I-2
I-2
I-1
I-2
I2
I-1
I2
I2
I2
I2
I2
I2
I2
I2
I-2
I-1
I1
I-2
I-1
I-2
I-1
I-1
I0
I1
I1
I1
I0
I-1
I-1
I-1
I1
I1
I1
I0
I1
I-1
I-1
I-1
I1
I1
I1
I-1
I-2
I-1
I-2
I-2
I2
I2
I1
I2
I-1
I1
I-2
I-2
I2
I1
I2
I1
I1
I-2
I-1
I1
I1
I1
I-2
I-1
I-2
I-2
I-1
I-2
I2
I-2
I2
I2
I1
I-2
I2
I2
I-1
I1
I-2
I1
I1
I-2
I0
I-2
I-2
I-1
I1
I1
I1
I0
I0
I-2
I-1
I-1
I1
I1
I1
I0
I-1
I-1
I-1
I-2
I1
I2
I-1
I1
I-2
I1
I-1
I-2
I2
I2
I2
I2
I1
I2
I-2
I-1
I2
I1
I2
I-1
I2
I-2
I-2
I1
I-1
I1
I-2
I-2
I-2
I-2
I-1
I-2
I2
I-1
I2
I1
I-1
I1
I2
I1
I-2
I-1
I-1
I2
I2
I-1
I1
I-2
I-2
I1
I1
I1
I1
I-1
I0
I-2
I-1
I-2
I1
I1
I-1
I0
I-2
I-1
I-2
I-2
I2
I1
I-2
I2
I-2
I-2
I-2
I-2
I2
I2
I2
I2
I2
I2
I-1
I2
I1
I2
I2
I-2
I2
I-2
I0
I2
I-1
I1
I-1
I-2
I-2
I-2
I0
I-2
I2
I1
I2
I2
I-1
I2
I2
I2
I-1
I-1
I1
I2
I2
I-2
I2
I-2
I-2
I-2
I-1
I1
I1
I-2
I-2
I-2
I-2
I-2
I2
I2
I2
I2
I0
I-2
I-2
I-2
I2
I2
I-2
I0
I-2
I-2
I-2
I-2
I2
I1
I2
I2
I2
I-1
I1
I2
I-2
I0
I2
I-2
I2
I-2
I-1
I-2
I-2
I0
I-2
I-2
I-2
I-2
I-2
I-2
I2
I1
I2
I-2
I-2
I1
I2
I0
I-1
I1
I1
I2
I2
I0
I1
I-1
I1
I1
I2
I2
I2
I-1
I-1
I-1
I-1
I-2
I2
I2
I2
I1
I-2
I-1
I-2
I-2
I2
I2
I1
I2
I1
I1
I1
I2
I2
I-1
I2
I-1
I2
I-1
I1
I-1
I-2
I1
I2
I-2
I-2
I-2
I-2
I-2
I2
I2
I2
I2
I-1
I-1
I-1
I-1
I2
I2
I1
I-1
I-1
I1
I1
I1
I-1
I-1
I1
I-1
I-1
I-1
I1
I1
I1
I-1
I2
I2
I-1
I1
I1
I2
I-1
I1
I-1
I1
I-2
I-1
I2
I-1
I-1
I1
I2
I1
I1
I1
I2
I1
I1
I-1
I0
I1
I1
I0
tp10
sS'8b5dd318152f3e68.jpg'
p11
(I-1
I-1
I-1
I1
I-1
I-1
I-1
I1
I1
I-1
I1
I2
I1
I1
I-1
I2
I2
I-2
I1
I1
I2
I-2
I-2
I-1
I-1
I-2
I-2
I-2
I1
I0
I-2
I-2
I-1
I0
I1
I-2
I-1
I-2
I-1
I-1
I-2
I1
I1
I1
I0
I-1
I1
I1
I-1
I-1
I1
I-1
I-2
I-1
I-1
I-2
I-2
I-1
I-1
I-2
I-2
I-2
I-1
I-2
I-2
I1
I-2
I-1
I-2
I-2
I2
I2
I2
I2
I1
I2
I1
I1
I2
I2
I2
I-1
I-1
I1
I0
I-1
I2
I2
I2
I1
I2
I1
I0
I1
I1
I1
I1
I-2
I-2
I-2
I-2
I0
I2
I2
I2
I1
I2
I0
I1
I-1
I0
I1
I1
I2
I2
I1
I1
I1
I2
I-2
I1
I2
I1
I-1
I-2
I1
I-2
I-2
I2
I2
I-2
I2
I-1
I-2
I-1
I1
I2
I-1
I-1
I1
I-1
I1
I2
I2
I-1
I0
I-1
I1
I-1
I2
I2
I2
I1
I0
I2
I1
I1
I2
I2
I2
I-1
I2
I-1
I-1
I2
I2
I2
I2
I0
I-2
I-2
I1
I1
I0
I-1
I1
I1
I1
I-1
I-2
I-1
I-1
I-2
I1
I1
I2
I2
I2
I2
I2
I1
I2
I2
I1
I2
I1
I-1
I-1
I2
I2
I1
I0
I-1
I-2
I-2
I-2
I1
I-1
I-1
I1
I-2
I-2
I-2
I-1
I-1
I-2
I1
I-1
I-2
I-2
I-2
I1
I1
I1
I0
I0
I-2
I-2
I-1
I-1
I-1
I-1
I-1
I-2
I-2
I-1
I1
I0
I-2
I-1
I-1
I-1
I-2
I-1
I-1
I-1
I-2
I1
I1
I-2
I-1
I-1
I-2
I-2
I-2
I-1
I-2
I-2
I-2
I-2
I-1
I-1
I1
I2
I-1
I2
I2
I-2
I0
I1
I2
I1
I2
I2
I-2
I-2
I-1
I-1
I-1
I-2
I-1
I-2
I-2
I-2
I1
I0
I1
I1
I0
I-2
I-2
I-1
I0
I1
I0
I0
I-2
I-2
I-1
I-2
I2
I2
I2
I1
I-2
I2
I2
I2
I2
I1
I1
I1
I2
I-2
I0
I-1
I-2
I-2
I1
I2
I-2
I0
I1
I-2
I-2
I-2
I1
I-2
I-2
I-1
I-2
I-2
I-2
I-2
I2
I2
I2
I2
I-1
I1
I1
I-1
I2
I2
I2
I1
I-1
I1
I1
I2
I2
I2
I2
I1
I2
I1
I2
I2
I1
I1
I-1
I-2
I-2
I-1
I-1
I1
I2
I2
I2
I2
I2
I-2
I1
I-2
I1
I1
I-1
I2
I2
I2
I-1
I2
I2
I-1
I2
I2
I2
I1
I-1
I2
I1
I1
I2
I2
I-1
I1
I0
I2
I2
I2
I2
I-1
I-1
I0
I-1
I2
I2
I2
I1
I-1
I-1
I1
I1
I2
I2
I2
I-2
I-2
I1
I-1
I1
I2
I2
I2
I-2
I1
I-2
I-1
I1
I1
I1
I1
I-1
I-2
I-1
I1
I1
I-1
I-2
I0
I1
I1
I-1
I-2
I-2
I0
I-2
I1
I1
I2
I1
I-1
I-2
I2
I1
I2
I2
I2
I-1
I-2
I-2
I-1
I0
I2
I1
I-2
I-2
I-2
I-2
I0
I1
I1
I-2
I-1
I-2
I-2
I-2
I-1
I-1
I-2
I-2
I-1
I-2
I-2
I-1
I1
I-1
I-1
I-1
I-1
I-2
I-1
I-1
I1
I0
I1
I0
I-2
I-1
I-1
I0
I-1
I-2
I-1
I-1
I-1
I-1
I-1
I-2
I1
I2
I-2
I-2
I-2
I-2
I-2
I-2
I-1
I-1
I2
I-2
I2
I2
I2
I2
I2
I1
I2
I1
I-2
I1
I1
I1
I-1
I-1
I-1
I1
I0
I1
I1
I-2
I2
I2
I2
tp12
sS'452a1818093ff537.jpg'
p13
(I2
I1
I-1
I-2
I-1
I-1
I-2
I-2
I1
I-1
I-2
I-2
I-1
I1
I0
I-2
I0
I1
I0
I1
I0
I1
I-1
I-1
I1
I1
I-1
I1
I-1
I-1
I-1
I1
I0
I1
I1
I2
I1
I-1
I-1
I1
I-1
I-1
I1
I-2
I-2
I-2
I1
I2
I2
I2
I-2
I0
I-2
I-1
I2
I2
I2
I2
I2
I1
I1
I0
I1
I0
I0
I-2
I2
I-2
I-2
I-2
I-1
I-1
I-1
I-2
I-2
I-2
I-2
I0
I1
I1
I1
I2
I2
I-2
I2
I1
I-1
I-1
I-2
I-2
I-1
I1
I-1
I-1
I0
I-1
I-1
I1
I-2
I0
I-1
I1
I1
I1
I2
I2
I2
I2
I0
I-2
I2
I1
I2
I2
I-1
I2
I1
I2
I2
I2
I1
I-1
I2
I-1
I-1
I2
I2
I2
I0
I2
I2
I1
I0
I2
I2
I2
I2
I2
I2
I0
I2
I2
I2
I2
I0
I-2
I-1
I-2
I-1
I-1
I-2
I-1
I-1
I1
I0
I1
I-1
I-2
I0
I1
I1
I1
I-2
I1
I1
I1
I1
I1
I-1
I-2
I-1
I0
I-1
I-2
I-2
I-1
I-2
I-1
I-1
I-2
I-2
I1
I1
I-2
I1
I2
I-2
I-2
I-2
I-1
I-1
I-1
I1
I1
I-2
I-2
I-2
I1
I1
I2
I2
I2
I-2
I-2
I1
I-1
I-1
I1
I1
I1
I-2
I2
I2
I1
I2
I2
I2
I1
I1
I0
I-1
I-2
I1
I1
I-1
I-1
I-1
I-1
I0
I-1
I-1
I-2
I-1
I-2
I-1
I1
I1
I-1
I-2
I2
I2
I2
I2
I2
I1
I-1
I1
I-2
I1
I-1
I0
I-2
I-2
I-1
I-2
I-1
I0
I-1
I-2
I-2
I-1
I-2
I-1
I0
I1
I-2
I-2
I-2
I-2
I-1
I-2
I-1
I-1
I-2
I-2
I-2
I-1
I-2
I-1
I1
I-2
I-2
I-2
I2
I-1
I1
I2
I2
I1
I-1
I2
I1
I1
I1
I1
I-1
I-1
I2
I0
I-1
I2
I2
I1
I1
I1
I-2
I1
I0
I1
I-2
I-2
I0
I1
I0
I-2
I1
I-2
I-1
I2
I2
I2
I2
I2
I1
I2
I2
I2
I2
I2
I-2
I-1
I1
I-1
I0
I2
I2
I2
I1
I2
I1
I1
I2
I2
I2
I1
I-2
I2
I-1
I2
I1
I-2
I-2
I-2
I-2
I-2
I-2
I-2
I-1
I-1
I0
I-1
I2
I-1
I-1
I2
I0
I1
I-1
I1
I2
I1
I-1
I-1
I-2
I1
I0
I2
I2
I-1
I2
I2
I2
I2
I2
I1
I-2
I-1
I-2
I-2
I1
I1
I1
I-2
I1
I-1
I2
I1
I2
I2
I2
I0
I-1
I1
I-1
I2
I2
I1
I2
I-2
I-2
I2
I-2
I-1
I-1
I-1
I0
I-1
I2
I1
I1
I2
I-1
I1
I0
I1
I-2
I-2
I-2
I-2
I-1
I-2
I-2
I0
I-1
I2
I-1
I-1
I-1
I-2
I-1
I-2
I-2
I0
I-2
I-1
I1
I-1
I-2
I-2
I-2
I-2
I-1
I-2
I1
I1
I-2
I-2
I2
I-1
I-2
I-2
I-1
I-1
I-2
I2
I2
I-2
I-1
I1
I1
I1
I2
I2
I2
I-2
I1
I1
I-1
I1
I2
I1
I-1
I0
I-1
I1
I-1
I-1
I1
I-2
I0
I0
I2
I1
I1
I-1
I-1
I1
I-2
I2
I1
I1
I1
I-1
I2
I2
I-1
I2
I2
I2
I1
I1
I2
I2
I2
I-1
I2
I-2
I-2
I-2
I-2
I1
I-2
I-2
I-2
I-1
I-1
I-2
I-2
I-1
I1
I-2
I1
I2
I1
I2
I2
I0
I-1
I-1
I-2
I-2
I2
I1
I2
tp14
sS'401633b03b0b3480.jpg'
p15
(I2
I-2
I1
I-2
I-1
I-2
I-1
I2
I1
I2
I-1
I2
I2
I-2
I1
I0
I1
I-2
I-1
I-2
I0
I-2
I-2
I2
I1
I1
I1
I-1
I-1
I1
I1
I-1
I-1
I-1
I-2
I-2
I-2
I-1
I2
I-1
I1
I2
I2
I2
I2
I2
I-1
I1
I1
I-2
I2
I-1
I1
I2
I-2
I-2
I0
I-2
I1
I-2
I-1
I1
I-2
I-1
I0
I-1
I-2
I-2
I-1
I-1
I2
I2
I-1
I2
I-1
I2
I1
I-2
I2
I-1
I-1
I1
I-1
I2
I-2
I-2
I1
I1
I2
I1
I1
I-1
I-1
I1
I1
I2
I1
I-1
I1
I-1
I1
I2
I1
I-1
I-1
I-1
I1
I-2
I1
I1
I1
I2
I-2
I-1
I2
I-1
I2
I-1
I1
I1
I-2
I1
I2
I-2
I2
I-2
I-1
I-1
I-1
I1
I-2
I-2
I-1
I-2
I-2
I-2
I1
I-1
I-2
I1
I-2
I-1
I-2
I-2
I2
I2
I1
I2
I1
I1
I1
I2
I2
I1
I1
I-1
I2
I-1
I2
I2
I-2
I-1
I1
I-2
I1
I1
I2
I2
I-2
I-1
I-1
I1
I1
I-1
I1
I1
I-1
I-1
I-2
I-1
I2
I-1
I1
I-1
I-2
I-2
I-1
I1
I2
I-1
I-1
I-2
I-2
I-2
I1
I2
I1
I1
I-2
I-2
I-2
I-2
I2
I2
I-1
I2
I-1
I-1
I-2
I-1
I2
I-1
I1
I1
I2
I-2
I-1
I1
I-2
I-2
I-1
I-2
I1
I-2
I-2
I-2
I-2
I-2
I-1
I-1
I-1
I-2
I-2
I0
I-2
I-1
I1
I-2
I1
I1
I1
I-1
I-2
I-1
I1
I2
I2
I1
I-1
I-1
I1
I1
I2
I2
I2
I1
I2
I2
I2
I2
I2
I2
I1
I-2
I-2
I-1
I1
I-2
I2
I2
I2
I2
I1
I2
I-1
I1
I1
I1
I2
I-1
I2
I-1
I-1
I1
I-1
I2
I2
I-2
I-1
I-2
I-1
I-1
I2
I2
I2
I1
I2
I1
I1
I2
I0
I-1
I-2
I-2
I1
I2
I1
I1
I-1
I-2
I1
I-1
I-2
I-1
I-1
I-2
I-2
I-2
I-1
I-2
I1
I1
I2
I-2
I-2
I-2
I-2
I-1
I-2
I-2
I-2
I-2
I-2
I-2
I2
I1
I1
I2
I1
I-1
I-1
I-1
I-1
I1
I2
I-1
I1
I-2
I-2
I-1
I-1
I1
I-1
I-2
I0
I-2
I-2
I-1
I1
I-1
I2
I0
I2
I-2
I-1
I2
I-2
I-1
I-2
I-2
I0
I1
I2
I-1
I-2
I-2
I2
I2
I2
I1
I-1
I-2
I-1
I-1
I2
I2
I2
I1
I1
I-1
I0
I-1
I2
I2
I1
I-1
I0
I-1
I-1
I0
I2
I1
I2
I0
I-1
I-1
I1
I-1
I1
I2
I2
I1
I1
I1
I-1
I-1
I1
I2
I2
I-1
I2
I-1
I-1
I-1
I1
I1
I2
I-2
I2
I-2
I-2
I-2
I-2
I0
I-2
I-2
I-2
I2
I2
I1
I2
I2
I2
I1
I1
I-1
I1
I2
I2
I2
I1
I0
I1
I-1
I-1
I2
I2
I2
I1
I1
I1
I1
I1
I2
I2
I1
I0
I-1
I-1
I-1
I-1
I2
I-1
I2
I1
I1
I1
I1
I1
I1
I2
I2
I1
I1
I2
I-1
I-1
I2
I2
I2
I1
I2
I2
I1
I-1
I2
I2
I2
I2
I2
I1
I2
I2
I-2
I-2
I-2
I-2
I-2
I-2
I2
I-1
I-2
I-2
I-2
I1
I-1
I-2
I-2
I-2
I1
I-2
I-1
I1
I-1
I2
I2
I-2
I-2
I-2
I-2
I1
I-2
I-2
I-2
I-1
I2
I-2
I-2
I-2
I-2
I1
I-2
I-2
I-1
tp16
sS'31f500362946cd02.jpg'
p17
(I1
I2
I2
I-1
I-1
I2
I2
I1
I1
I-2
I2
I1
I-1
I2
I-1
I2
I1
I1
I1
I1
I2
I2
I-1
I-1
I1
I1
I-2
I0
I-1
I-2
I-2
I-1
I0
I2
I1
I2
I2
I2
I-1
I1
I1
I-2
I-2
I1
I-1
I-2
I-2
I-2
I-2
I-1
I-2
I-2
I-2
I-2
I-1
I-1
I-2
I2
I-2
I-1
I-1
I-2
I1
I-1
I-2
I2
I0
I1
I-2
I-1
I-1
I-2
I-1
I0
I-2
I-2
I-1
I-2
I1
I2
I2
I2
I2
I2
I1
I1
I0
I1
I-2
I-2
I1
I-1
I-1
I-1
I0
I-2
I-1
I-1
I1
I-1
I-1
I-2
I-2
I-1
I-1
I-2
I-2
I1
I2
I-2
I-2
I-2
I2
I2
I1
I2
I0
I-2
I-2
I-1
I2
I1
I-1
I0
I-2
I-2
I-1
I-2
I2
I2
I2
I2
I2
I2
I2
I2
I1
I1
I-2
I-2
I-1
I-1
I1
I1
I2
I-1
I1
I1
I1
I2
I2
I-1
I-1
I1
I1
I-1
I-1
I1
I-2
I-1
I1
I1
I2
I1
I-2
I-1
I0
I2
I2
I2
I2
I2
I2
I2
I2
I1
I2
I2
I2
I2
I2
I-1
I2
I2
I2
I2
I1
I1
I-2
I-2
I-1
I2
I2
I-1
I2
I-2
I1
I1
I1
I2
I0
I-1
I-2
I-1
I-2
I-1
I-1
I-2
I-2
I-2
I-1
I-2
I-1
I1
I-2
I-2
I-1
I-1
I1
I2
I1
I2
I1
I2
I2
I2
I1
I0
I-2
I-1
I2
I1
I2
I0
I-2
I-2
I-2
I1
I-2
I-2
I-2
I2
I1
I2
I-2
I-2
I-2
I-2
I-2
I-1
I1
I-2
I-2
I-2
I-2
I2
I-2
I2
I1
I-2
I1
I0
I1
I2
I-1
I2
I-1
I1
I1
I2
I2
I1
I1
I1
I1
I1
I2
I1
I-2
I-1
I1
I1
I1
I0
I1
I-2
I-1
I-1
I2
I0
I-1
I1
I-2
I-2
I-1
I-2
I-2
I-2
I-2
I-2
I0
I2
I2
I1
I1
I-1
I1
I1
I-2
I-2
I-2
I-1
I-2
I-1
I-2
I-2
I-2
I-2
I2
I-1
I-2
I2
I-2
I-2
I-1
I-2
I2
I1
I-1
I2
I1
I2
I-1
I2
I-1
I-1
I-1
I-1
I-1
I-2
I1
I-1
I-1
I-1
I0
I1
I-1
I1
I0
I-1
I0
I1
I2
I1
I1
I1
I-1
I1
I-1
I2
I-1
I-1
I-1
I-2
I-1
I-2
I2
I-1
I1
I1
I-1
I2
I2
I-1
I-2
I-2
I2
I2
I2
I1
I1
I-2
I-1
I0
I2
I1
I-2
I-1
I-2
I-2
I-1
I-1
I2
I1
I2
I2
I2
I2
I2
I1
I-2
I-1
I-1
I-2
I-1
I-1
I-1
I0
I1
I0
I-1
I1
I-1
I1
I1
I-2
I1
I1
I2
I1
I1
I2
I-1
I-1
I-1
I1
I-1
I-1
I-1
I-2
I-2
I1
I2
I1
I1
I-1
I2
I2
I2
I1
I2
I2
I2
I1
I2
I-1
I1
I2
I2
I2
I0
I1
I-2
I-1
I-1
I2
I1
I1
I1
I-2
I1
I1
I-1
I1
I1
I-1
I-1
I1
I-1
I1
I1
I1
I-1
I-2
I0
I-1
I-2
I-1
I-2
I-1
I-2
I-1
I2
I1
I2
I2
I0
I0
I2
I2
I1
I2
I1
I0
I2
I2
I2
I2
I-1
I-2
I-2
I1
I1
I-2
I-2
I2
I-2
I-2
I-2
I-2
I-2
I-2
I-1
I-1
I2
I-1
I-1
I-1
I-1
I1
I-2
I1
I1
I1
I2
I-1
I2
I2
I0
I1
I2
I1
I-2
I-2
I-2
I1
I-2
I-2
I-1
I-1
I0
I-2
I-1
I0
tp18
sS'a841509293d945a0.jpg'
p19
(I2
I1
I1
I-2
I-2
I-2
I-2
I-2
I2
I1
I-1
I-1
I1
I-1
I-1
I-2
I-1
I2
I1
I2
I1
I2
I1
I-2
I-1
I1
I-2
I-1
I1
I1
I-1
I0
I0
I-1
I1
I-1
I-1
I-2
I-1
I-1
I-2
I-1
I2
I-1
I2
I2
I-1
I2
I1
I1
I1
I2
I2
I1
I2
I1
I2
I-1
I1
I2
I-1
I2
I-1
I1
I-1
I-1
I2
I-2
I1
I0
I-2
I-2
I-1
I-2
I-2
I-2
I-2
I-2
I-1
I2
I1
I2
I1
I-1
I-1
I1
I1
I0
I1
I-1
I0
I-2
I-1
I1
I0
I1
I1
I0
I-2
I-1
I1
I-1
I2
I2
I2
I2
I1
I-2
I-2
I-1
I-2
I1
I-2
I-2
I-2
I1
I-2
I-1
I2
I0
I-1
I1
I2
I2
I2
I2
I2
I-1
I-2
I-1
I2
I-2
I-1
I-1
I-2
I-2
I0
I2
I1
I1
I-1
I-2
I-1
I1
I2
I1
I2
I1
I2
I0
I2
I2
I-1
I1
I1
I-2
I1
I1
I2
I2
I-1
I-1
I-2
I-1
I-2
I2
I1
I2
I1
I-1
I2
I2
I2
I2
I1
I2
I-2
I-1
I-1
I-2
I-2
I-2
I-2
I-2
I-2
I-1
I0
I-2
I1
I2
I-2
I-1
I1
I1
I1
I2
I2
I2
I1
I2
I2
I2
I2
I1
I0
I-1
I2
I2
I2
I2
I-1
I-2
I-1
I-2
I2
I-1
I1
I0
I-2
I-2
I-2
I-2
I-1
I-2
I-2
I-2
I-2
I-1
I-2
I1
I1
I-2
I-1
I-2
I-2
I-2
I-1
I-2
I-2
I2
I2
I2
I2
I2
I1
I2
I1
I-2
I1
I-1
I0
I1
I1
I-1
I-2
I-1
I1
I-1
I-1
I-1
I-1
I-2
I-2
I-1
I-1
I-2
I-2
I-1
I-2
I-2
I1
I1
I1
I-1
I0
I-2
I-2
I-1
I2
I-1
I-1
I-1
I-2
I1
I0
I2
I2
I1
I1
I-2
I1
I-1
I2
I1
I2
I-1
I-1
I1
I-1
I-2
I2
I2
I1
I1
I-1
I-2
I1
I2
I2
I2
I-2
I0
I1
I-2
I1
I1
I2
I1
I-1
I1
I2
I-1
I-1
I2
I1
I1
I1
I2
I1
I1
I2
I1
I1
I1
I1
I0
I1
I-2
I-2
I-1
I-1
I-1
I2
I2
I2
I2
I2
I1
I1
I2
I-1
I-1
I-1
I-2
I-2
I-2
I-1
I0
I1
I1
I-1
I2
I-1
I1
I2
I1
I2
I1
I1
I2
I2
I-2
I-1
I2
I-1
I2
I-2
I-2
I-2
I-2
I-1
I-2
I1
I-2
I-1
I-1
I-1
I1
I-1
I2
I-1
I-2
I-1
I-1
I1
I1
I1
I-1
I-2
I0
I-1
I1
I-1
I-1
I0
I-2
I-1
I2
I1
I-1
I2
I0
I2
I-1
I1
I2
I-2
I1
I-1
I-2
I1
I0
I1
I1
I0
I-2
I-2
I-1
I-1
I1
I1
I2
I-1
I-2
I1
I1
I2
I1
I2
I2
I-2
I-1
I-2
I-1
I-2
I-2
I-2
I-2
I-2
I-2
I2
I1
I1
I2
I-2
I-2
I1
I1
I2
I2
I2
I2
I2
I2
I2
I2
I0
I1
I1
I-2
I2
I1
I2
I1
I-2
I-1
I0
I-2
I1
I1
I-1
I-2
I-2
I-1
I-1
I-1
I-1
I-2
I-2
I-1
I-1
I-1
I-1
I1
I2
I-2
I-1
I-2
I-2
I-2
I-2
I-2
I-2
I2
I2
I2
I1
I2
I2
I-2
I2
I2
I-1
I-2
I-2
I1
I-2
I-2
I-1
I-1
I1
I-2
I-2
I-1
I-1
I-1
I-1
I1
I2
I1
I-1
I2
I2
I2
I1
I2
I1
I1
I2
I-2
I-2
I2
I2
I2
tp20
sS'2c70670e888de1d3.jpg'
p21
(I1
I2
I2
I-1
I1
I1
I1
I1
I-1
I-1
I0
I-1
I1
I1
I1
I0
I2
I1
I-1
I1
I1
I0
I1
I-1
I1
I-1
I1
I2
I-1
I0
I-1
I2
I2
I0
I-1
I2
I2
I-1
I1
I2
I-1
I-2
I-1
I0
I-2
I-2
I-2
I-1
I0
I0
I-1
I-2
I-2
I0
I-1
I1
I0
I1
I2
I-1
I1
I1
I-1
I-2
I-1
I-2
I-1
I-1
I-1
I-1
I-1
I0
I1
I1
I1
I1
I0
I2
I-1
I-1
I1
I-1
I2
I-1
I1
I1
I-2
I-2
I-2
I-2
I0
I-2
I-2
I-1
I-2
I-2
I-2
I0
I-2
I-2
I-1
I-2
I1
I1
I2
I2
I-2
I2
I2
I1
I-2
I-1
I2
I2
I1
I-1
I2
I-2
I-1
I1
I0
I-1
I1
I-2
I1
I-2
I-1
I-1
I-1
I1
I-1
I-1
I-1
I-2
I-2
I-2
I1
I0
I1
I1
I2
I-1
I-2
I1
I-2
I-1
I2
I-2
I1
I-2
I-1
I-2
I-1
I2
I2
I-1
I1
I-2
I-2
I-2
I1
I1
I-2
I-1
I-2
I-2
I-2
I-2
I2
I2
I2
I2
I1
I2
I2
I2
I2
I2
I1
I1
I2
I-2
I2
I1
I2
I2
I-1
I1
I2
I-2
I-1
I2
I2
I2
I1
I2
I1
I1
I-1
I2
I2
I2
I2
I2
I2
I1
I2
I2
I2
I2
I-1
I1
I2
I-2
I-1
I1
I1
I2
I2
I2
I2
I1
I1
I2
I2
I2
I2
I2
I-2
I-1
I-1
I2
I2
I1
I2
I-1
I1
I2
I2
I-2
I-1
I2
I2
I1
I-2
I-2
I-2
I-2
I0
I-1
I-1
I-1
I-2
I-2
I-2
I0
I1
I-1
I-1
I-1
I-2
I-2
I-2
I-1
I-1
I-2
I-2
I-2
I-2
I-2
I-1
I1
I1
I-2
I-1
I1
I-2
I-1
I-2
I-1
I2
I-1
I1
I2
I-2
I-2
I-2
I-2
I-2
I-2
I-1
I-1
I-2
I-2
I-2
I2
I-2
I2
I2
I-1
I-1
I-2
I1
I2
I1
I-2
I1
I-1
I-2
I-2
I-1
I1
I1
I1
I1
I-2
I-2
I-1
I1
I1
I2
I-1
I-1
I-2
I-1
I-1
I1
I2
I2
I1
I1
I0
I0
I1
I2
I1
I1
I-1
I2
I-1
I-1
I1
I-1
I-1
I2
I-2
I2
I-2
I-2
I0
I-2
I1
I-2
I-2
I0
I-2
I-2
I-2
I1
I-2
I-2
I0
I-2
I-2
I-2
I-2
I1
I-1
I2
I-1
I-2
I2
I2
I1
I-1
I2
I2
I2
I2
I-1
I2
I-1
I2
I2
I1
I1
I0
I-2
I-1
I-2
I-1
I-1
I1
I0
I1
I1
I1
I-1
I-1
I0
I-1
I1
I2
I-1
I1
I-1
I-1
I1
I-1
I2
I2
I-1
I1
I-1
I1
I-1
I0
I2
I2
I-1
I-1
I-1
I-2
I-1
I2
I2
I1
I1
I-2
I-1
I1
I1
I2
I2
I2
I2
I2
I1
I1
I2
I2
I2
I-2
I-2
I2
I-2
I1
I1
I2
I2
I-2
I1
I1
I-1
I1
I2
I2
I2
I1
I1
I1
I-1
I1
I1
I2
I2
I0
I1
I1
I-1
I1
I2
I2
I2
I-1
I-1
I1
I-1
I-1
I1
I1
I2
I1
I2
I1
I1
I1
I2
I2
I2
I1
I-1
I-2
I-1
I1
I2
I2
I1
I-1
I-2
I-1
I1
I-1
I-2
I-1
I1
I-2
I-2
I-2
I-1
I0
I-2
I-2
I-1
I0
I2
I-2
I-2
I-2
I-2
I-1
I-2
I-2
I-1
I1
I1
I-2
I-1
I-2
I-1
I2
I-2
I-2
I-2
I-2
I-2
I-2
I-2
I-1
I2
I-2
I-1
I1
I2
tp22
sS'6b6125aea5957fdf.jpg'
p23
(I-1
I2
I1
I1
I2
I2
I1
I2
I-2
I1
I-2
I-2
I0
I-1
I1
I-2
I-1
I1
I-1
I-2
I-1
I0
I-1
I2
I-1
I2
I2
I2
I1
I1
I2
I2
I2
I-1
I1
I2
I2
I2
I-1
I1
I1
I-2
I-2
I-1
I2
I2
I-1
I-1
I2
I1
I1
I2
I2
I1
I-2
I2
I2
I-1
I2
I2
I-1
I1
I0
I1
I1
I-2
I1
I-2
I-1
I-1
I-1
I0
I-2
I-1
I-1
I-1
I-2
I-1
I1
I-2
I-2
I1
I0
I-1
I1
I1
I-2
I-2
I-2
I0
I-1
I1
I1
I-1
I-2
I-2
I-1
I1
I0
I2
I1
I0
I-2
I-1
I0
I1
I-1
I-2
I-2
I-1
I-2
I-2
I-2
I-2
I-2
I1
I-2
I-2
I-2
I-2
I-1
I1
I2
I2
I2
I1
I0
I1
I-1
I1
I1
I-2
I-1
I-2
I-1
I-1
I1
I2
I1
I1
I1
I-1
I0
I-2
I1
I-1
I-1
I-1
I1
I-1
I-2
I-2
I-1
I-1
I-2
I-1
I-1
I-2
I-2
I-2
I1
I-1
I-1
I1
I-1
I-2
I-2
I-2
I0
I1
I1
I-2
I-2
I2
I2
I1
I1
I0
I2
I2
I-1
I-1
I-1
I-1
I-1
I1
I2
I0
I2
I1
I1
I-1
I2
I2
I-1
I1
I1
I-1
I1
I1
I1
I2
I1
I0
I1
I-1
I-2
I1
I1
I-2
I2
I2
I2
I1
I-1
I2
I-1
I-2
I2
I2
I2
I1
I-1
I1
I-1
I2
I2
I2
I2
I1
I1
I1
I2
I2
I2
I2
I-1
I2
I2
I-1
I1
I-1
I1
I2
I0
I1
I1
I1
I2
I1
I2
I2
I-1
I-2
I-1
I-2
I1
I-1
I0
I1
I-2
I-1
I-1
I-1
I1
I-1
I1
I1
I-2
I-1
I-2
I-1
I-2
I1
I1
I1
I2
I1
I-1
I2
I-1
I2
I2
I2
I2
I1
I-1
I1
I2
I2
I2
I2
I-2
I-2
I-2
I-2
I1
I2
I1
I1
I-2
I-2
I-1
I1
I0
I-1
I-1
I1
I2
I2
I-2
I-2
I1
I-1
I0
I2
I1
I-2
I-2
I0
I1
I0
I1
I1
I-2
I-1
I-1
I-1
I-1
I-1
I1
I-2
I-2
I-2
I-1
I-1
I-2
I-1
I1
I-2
I-2
I-1
I-1
I-2
I-2
I-1
I-1
I-2
I-1
I-2
I-2
I-2
I-2
I1
I-1
I0
I-2
I-2
I-2
I-1
I-1
I1
I-1
I-2
I-2
I-2
I-1
I0
I1
I-2
I-2
I-2
I-2
I-2
I-2
I-2
I-2
I-1
I-1
I2
I-2
I-2
I-2
I1
I2
I2
I2
I2
I2
I2
I2
I2
I1
I2
I2
I-2
I1
I2
I1
I2
I2
I2
I2
I-1
I1
I-1
I1
I-2
I1
I1
I0
I-1
I-2
I-1
I-2
I-2
I2
I2
I2
I2
I-1
I0
I-1
I-2
I2
I2
I2
I1
I0
I-1
I-2
I-1
I2
I2
I0
I-2
I-1
I2
I2
I2
I2
I1
I2
I2
I-2
I-2
I2
I0
I-1
I2
I-1
I-2
I-2
I-2
I-1
I-2
I0
I-1
I-2
I-1
I1
I1
I1
I1
I0
I2
I-2
I-1
I1
I-1
I-2
I-1
I1
I-2
I2
I2
I0
I2
I-1
I2
I-1
I-1
I2
I1
I1
I1
I-2
I1
I1
I2
I2
I2
I2
I2
I1
I2
I2
I2
I1
I1
I-1
I2
I2
I-2
I0
I-1
I-1
I1
I2
I1
I2
I-2
I0
I-1
I-2
I-1
I1
I0
I1
I1
I1
I-2
I-1
I-2
I-2
I-2
I2
I1
I-1
I2
I0
I1
I-1
I-2
I0
I2
I-2
I-2
I-2
I-2
I1
I-2
I-2
I-1
tp24
sS'b4bf26de0c31debb.jpg'
p25
(I-1
I-1
I-2
I1
I0
I1
I-1
I-2
I0
I-1
I-1
I-2
I-2
I1
I-1
I-1
I-2
I-2
I1
I-1
I-2
I-2
I-2
I1
I1
I-2
I-2
I-2
I-1
I-1
I-2
I-2
I-2
I1
I-1
I-2
I-2
I-2
I1
I-1
I-1
I1
I-1
I-1
I1
I-1
I2
I1
I1
I1
I-1
I1
I1
I-1
I2
I2
I1
I1
I-1
I2
I1
I1
I2
I2
I2
I1
I-1
I2
I2
I1
I2
I2
I2
I1
I0
I2
I1
I-1
I2
I2
I2
I0
I-1
I1
I-1
I1
I2
I2
I2
I1
I-1
I0
I1
I1
I2
I2
I1
I1
I0
I1
I1
I2
I2
I1
I0
I1
I2
I-1
I-1
I-1
I1
I0
I1
I-1
I-2
I1
I-1
I2
I1
I1
I1
I-1
I-2
I1
I-1
I1
I2
I2
I-1
I-2
I-2
I1
I-1
I2
I2
I2
I-1
I-1
I-1
I1
I-1
I2
I2
I2
I1
I1
I0
I1
I1
I2
I2
I2
I-1
I-1
I-1
I-1
I-1
I2
I2
I2
I-1
I-1
I-1
I1
I2
I2
I2
I2
I-2
I-2
I-2
I1
I-1
I-1
I-2
I-1
I-2
I-2
I0
I-1
I-1
I1
I1
I-1
I-2
I-2
I-1
I-2
I-2
I-1
I0
I-2
I-2
I-2
I-2
I-2
I-2
I0
I0
I-2
I-2
I-2
I-2
I-2
I-2
I0
I1
I-2
I-2
I-2
I-2
I-2
I-2
I-1
I-1
I-2
I-2
I-2
I-2
I-2
I-2
I1
I-1
I-2
I-2
I-2
I-2
I-2
I-1
I1
I-1
I-2
I-2
I-2
I-2
I1
I1
I-2
I-2
I2
I1
I-1
I1
I-1
I2
I2
I2
I1
I-1
I1
I-1
I-1
I2
I2
I2
I1
I-1
I1
I0
I-2
I2
I2
I2
I1
I0
I1
I-1
I-2
I2
I2
I2
I0
I-1
I-1
I-2
I-2
I2
I2
I2
I1
I0
I-1
I-1
I-1
I2
I2
I2
I0
I-1
I-1
I-1
I-1
I2
I2
I2
I1
I-1
I-1
I-1
I-1
I2
I2
I1
I-1
I0
I-1
I-1
I-1
I1
I0
I1
I1
I-1
I1
I-1
I2
I2
I1
I1
I0
I-1
I1
I-2
I2
I1
I1
I2
I1
I1
I2
I-1
I2
I2
I2
I2
I2
I1
I1
I0
I2
I2
I1
I2
I1
I1
I0
I0
I2
I2
I2
I1
I1
I1
I0
I-1
I2
I2
I2
I1
I1
I1
I1
I1
I2
I2
I2
I1
I0
I-1
I2
I2
I-1
I-2
I-1
I1
I0
I0
I-2
I-2
I1
I-1
I2
I1
I1
I-1
I-1
I-2
I1
I-1
I1
I1
I1
I-1
I-2
I-2
I1
I-1
I2
I1
I1
I-2
I-2
I-2
I1
I-2
I1
I1
I1
I-2
I-2
I-2
I2
I0
I2
I2
I2
I-2
I-2
I-2
I0
I0
I2
I2
I1
I-2
I-2
I-2
I0
I2
I2
I1
I1
I-2
I-2
I-2
I-1
I-1
I-1
I-2
I-1
I-2
I-2
I0
I-1
I-1
I1
I1
I-2
I-2
I-2
I-1
I-1
I-2
I-1
I-1
I-2
I-2
I-2
I-1
I-1
I-1
I1
I-1
I-2
I-2
I-2
I-1
I-1
I-2
I1
I0
I-2
I-2
I-2
I-1
I-2
I-2
I0
I-1
I-2
I-2
I-2
I-2
I-2
I-2
I1
I-1
I-2
I-2
I-2
I-1
I-1
I1
I1
I-1
I-2
I-2
I-2
I-1
I1
I1
I-2
I-2
I2
I2
I1
I2
I2
I2
I-1
I-1
I2
I2
I2
I1
I-1
I2
I2
I2
I1
I0
I2
I2
I2
I0
I-1
I2
I2
I2
I1
I-1
I2
I2
I2
I1
I-1
I2
I2
I2
I1
I1
I2
I2
I-1
tp26
sS'a3026119b70e9393.jpg'
p27
(I-1
I2
I2
I1
I1
I2
I2
I2
I-1
I1
I2
I1
I1
I-1
I0
I1
I1
I1
I0
I-1
I1
I1
I1
I1
I-1
I1
I1
I1
I1
I-1
I2
I2
I2
I1
I-1
I2
I2
I2
I1
I2
I2
I-2
I-2
I1
I-2
I-1
I-2
I-2
I-2
I-1
I-1
I-2
I-2
I-2
I-2
I-1
I-1
I1
I1
I-1
I-1
I-2
I-1
I-1
I-1
I-1
I0
I-1
I-2
I-2
I-1
I-1
I-1
I0
I0
I-2
I-2
I-2
I-1
I-1
I-2
I0
I1
I-1
I-2
I-2
I-1
I-2
I-2
I-1
I1
I-2
I-2
I-2
I-2
I-2
I-2
I-1
I-2
I-2
I-2
I-2
I-2
I-2
I2
I-2
I-1
I2
I2
I1
I-1
I1
I1
I2
I1
I-1
I1
I-1
I1
I1
I2
I1
I1
I-1
I-1
I0
I1
I-2
I2
I2
I2
I1
I1
I1
I-1
I-1
I2
I2
I1
I-1
I-2
I-2
I-1
I-1
I2
I2
I2
I2
I0
I1
I1
I2
I2
I2
I2
I0
I1
I1
I2
I-1
I2
I2
I2
I-1
I1
I2
I-1
I-1
I2
I1
I-1
I-2
I-2
I1
I1
I1
I-1
I-1
I-1
I-1
I0
I-1
I1
I-2
I-2
I1
I-1
I-1
I-1
I-1
I-2
I-2
I1
I1
I2
I1
I2
I2
I1
I2
I2
I2
I1
I1
I-1
I-1
I0
I2
I2
I1
I1
I-1
I-1
I0
I1
I2
I1
I1
I-2
I-2
I-2
I-1
I-2
I-1
I-1
I-2
I1
I1
I2
I2
I-1
I2
I1
I-1
I1
I2
I1
I1
I-1
I1
I2
I0
I2
I2
I1
I2
I2
I0
I2
I2
I2
I2
I-1
I-1
I-2
I-2
I1
I1
I-1
I-1
I-1
I-2
I-2
I-1
I-1
I-1
I-1
I0
I-2
I-2
I-2
I1
I-1
I-1
I1
I2
I-1
I-1
I1
I1
I-1
I1
I2
I2
I-1
I1
I-2
I1
I-1
I2
I2
I2
I2
I-1
I-1
I1
I-1
I2
I2
I1
I1
I1
I1
I2
I2
I-2
I-2
I1
I-2
I-2
I-2
I-2
I-1
I-1
I-1
I-2
I-2
I-2
I-2
I1
I1
I1
I0
I-2
I-2
I-2
I1
I1
I1
I0
I1
I-2
I-2
I-2
I0
I-1
I-1
I-1
I1
I-2
I-2
I-2
I-2
I-2
I-2
I-1
I-1
I-2
I-2
I-2
I-2
I-2
I-2
I1
I-1
I-2
I-2
I-2
I-2
I-2
I-2
I1
I-2
I-2
I-2
I-2
I-1
I-2
I2
I-2
I-1
I2
I2
I-1
I1
I2
I2
I2
I2
I1
I-1
I1
I2
I2
I2
I2
I2
I1
I0
I2
I2
I1
I2
I2
I2
I0
I-1
I2
I1
I1
I2
I2
I2
I1
I-1
I1
I1
I2
I2
I2
I2
I1
I-1
I2
I2
I2
I2
I2
I2
I1
I0
I2
I2
I2
I2
I2
I2
I0
I2
I2
I2
I0
I2
I1
I-2
I-1
I-2
I-1
I-1
I1
I1
I1
I-2
I-2
I-2
I-1
I-1
I-1
I-1
I1
I-2
I-2
I-2
I1
I-1
I-1
I2
I2
I-1
I-1
I-1
I1
I1
I2
I2
I2
I-1
I-1
I-2
I-1
I1
I2
I1
I2
I-2
I-2
I-2
I-1
I1
I1
I1
I1
I-2
I-2
I-2
I-1
I-1
I1
I1
I1
I-2
I-2
I1
I1
I-2
I2
I2
I0
I0
I2
I2
I2
I2
I-1
I1
I-1
I-1
I1
I1
I1
I2
I-1
I-2
I-2
I-2
I1
I-2
I-2
I-2
I-1
I-2
I-2
I-2
I-1
I2
I0
I-2
I-1
I-1
I0
I0
I-1
I-1
I-2
I0
I-1
I-1
I-2
I-2
I1
I-2
I0
I-2
I2
tp28
sS'c6748f5a747e134d.jpg'
p29
(I-1
I2
I2
I1
I1
I2
I2
I2
I-1
I-1
I2
I2
I2
I1
I2
I2
I2
I2
I-2
I1
I1
I1
I1
I-1
I1
I0
I1
I2
I-1
I-1
I-1
I1
I2
I1
I2
I2
I2
I2
I-2
I1
I-1
I-2
I-2
I-1
I-2
I-2
I-2
I-2
I-2
I1
I1
I-2
I-2
I-2
I-2
I-2
I-2
I-1
I1
I-2
I-2
I-2
I-2
I-2
I-1
I-1
I-1
I-2
I-2
I-1
I-2
I-1
I0
I1
I1
I-2
I0
I-1
I-1
I-1
I1
I-1
I2
I-1
I-2
I1
I-2
I-1
I-2
I-2
I1
I-2
I-1
I-1
I-2
I-2
I-1
I-1
I-2
I-1
I-1
I1
I-2
I1
I2
I1
I2
I2
I2
I1
I-2
I0
I2
I2
I2
I-1
I1
I-2
I-1
I1
I2
I2
I2
I-1
I1
I-2
I0
I2
I2
I2
I2
I-1
I2
I-1
I2
I1
I1
I0
I1
I-2
I-1
I1
I-1
I0
I1
I2
I2
I1
I2
I0
I1
I2
I-1
I1
I1
I-2
I0
I-1
I-1
I0
I1
I1
I-1
I0
I2
I-1
I-1
I1
I-1
I-2
I-2
I-2
I-1
I2
I2
I2
I2
I2
I0
I1
I2
I-2
I2
I2
I2
I2
I-1
I0
I1
I-2
I2
I1
I1
I-1
I-2
I-2
I-1
I-2
I-1
I-2
I-2
I0
I-1
I1
I0
I1
I1
I-2
I1
I2
I0
I-1
I1
I-1
I1
I0
I1
I0
I-2
I1
I1
I-1
I1
I-1
I-1
I0
I0
I1
I2
I-1
I2
I-1
I-1
I1
I-2
I1
I-2
I-2
I-1
I-2
I-2
I-1
I1
I1
I-2
I-2
I-1
I1
I-1
I1
I2
I0
I-2
I-1
I2
I1
I-1
I2
I1
I2
I1
I2
I2
I1
I2
I1
I2
I2
I0
I-1
I0
I-2
I1
I1
I-2
I-1
I-2
I-1
I1
I-1
I-1
I-2
I-1
I0
I0
I1
I1
I1
I1
I0
I1
I2
I0
I1
I2
I-1
I1
I-1
I2
I0
I-1
I1
I-1
I2
I-1
I-1
I-1
I1
I-2
I-2
I-1
I-2
I-2
I-1
I-2
I-2
I-2
I-2
I0
I-1
I-1
I2
I2
I-2
I-2
I1
I-2
I-2
I-1
I-2
I-2
I-2
I-1
I1
I-2
I2
I2
I2
I1
I1
I2
I2
I1
I1
I0
I-1
I1
I1
I1
I1
I0
I-1
I1
I-1
I2
I0
I0
I1
I-2
I-2
I-2
I-2
I-2
I-2
I-2
I-2
I0
I1
I2
I1
I1
I2
I2
I2
I1
I1
I2
I2
I2
I-2
I0
I-2
I-2
I2
I2
I2
I2
I0
I2
I-2
I2
I2
I-1
I1
I-1
I-2
I2
I-1
I0
I-2
I-1
I-2
I-1
I-2
I-1
I-2
I-2
I-2
I-2
I-1
I0
I1
I1
I-2
I-2
I0
I-1
I0
I2
I-1
I1
I-2
I0
I-1
I-1
I2
I-1
I-1
I0
I-1
I-1
I1
I2
I-1
I0
I-1
I1
I-1
I2
I-1
I2
I2
I-1
I2
I2
I1
I2
I2
I2
I2
I-2
I-2
I1
I-2
I1
I0
I1
I-1
I-2
I0
I2
I-1
I-2
I-1
I-2
I1
I2
I2
I2
I2
I2
I1
I2
I2
I2
I2
I2
I-2
I2
I1
I2
I2
I0
I0
I1
I-2
I-1
I1
I1
I1
I1
I1
I1
I1
I2
I1
I1
I2
I-1
I-1
I-2
I-2
I-1
I-2
I-2
I-2
I-2
I-2
I0
I2
I1
I-2
I-1
I1
I-1
I-2
I1
I2
I-1
I2
I2
I-1
I-2
I-1
I-2
I1
I-2
I-2
I-1
I-1
I0
I-2
I-1
I-1
I0
I-1
I-1
I-1
I2
I1
I1
I-2
I1
I-1
tp30
sS'9ec749c67b7aeba6.jpg'
p31
(I-2
I-2
I-2
I2
I-1
I-1
I-2
I0
I1
I1
I-1
I1
I-1
I-1
I1
I1
I-2
I-2
I-1
I-2
I-2
I-2
I-2
I2
I1
I-2
I-1
I1
I-1
I1
I-1
I1
I2
I-1
I-2
I0
I2
I1
I2
I2
I2
I2
I1
I-1
I-2
I-1
I2
I2
I1
I1
I2
I-2
I1
I1
I0
I-1
I-1
I-2
I-2
I-2
I-1
I-2
I1
I2
I2
I2
I-1
I1
I-1
I-1
I2
I2
I2
I1
I1
I1
I-1
I-1
I2
I1
I1
I-1
I2
I-2
I-2
I-1
I-1
I-1
I0
I-2
I2
I-2
I-2
I-1
I-2
I-2
I-2
I-2
I-1
I-2
I-2
I-2
I-1
I-2
I1
I-2
I-1
I2
I2
I2
I2
I2
I1
I-1
I2
I-2
I1
I2
I1
I2
I-2
I1
I-1
I-1
I-2
I-1
I1
I1
I2
I1
I-1
I2
I-1
I2
I2
I2
I1
I1
I2
I1
I-1
I2
I2
I2
I1
I2
I2
I1
I2
I2
I2
I2
I1
I2
I2
I-2
I1
I2
I2
I1
I1
I2
I2
I-1
I1
I1
I0
I-2
I2
I1
I-1
I-1
I-2
I-2
I-2
I-2
I1
I-1
I-2
I-1
I1
I2
I1
I2
I2
I-1
I-2
I-1
I-2
I-1
I0
I1
I-2
I-1
I-1
I-2
I-2
I0
I1
I-2
I-1
I-2
I-2
I-2
I-2
I-1
I-1
I-1
I-2
I-2
I-2
I-2
I-2
I1
I0
I-1
I-1
I1
I-2
I-2
I-1
I0
I-1
I-1
I1
I2
I-1
I0
I1
I1
I-2
I1
I2
I1
I2
I2
I2
I2
I2
I-1
I-2
I-1
I-2
I-2
I1
I-2
I-1
I1
I-2
I-2
I-2
I-2
I1
I2
I2
I2
I1
I-1
I-1
I-1
I1
I1
I1
I-1
I-1
I-2
I-2
I-2
I2
I2
I1
I1
I0
I-2
I-1
I-1
I2
I1
I1
I0
I1
I-1
I-1
I0
I-1
I-1
I-1
I-1
I2
I-2
I-1
I1
I-2
I-2
I-2
I-2
I-2
I-2
I0
I-1
I-1
I-2
I2
I2
I1
I2
I2
I-1
I2
I2
I2
I2
I1
I1
I-1
I2
I2
I2
I2
I1
I2
I1
I-1
I2
I2
I2
I1
I2
I2
I1
I1
I2
I2
I2
I2
I1
I1
I-1
I1
I2
I2
I2
I1
I1
I2
I-1
I1
I2
I1
I1
I0
I1
I2
I-1
I2
I1
I1
I-1
I-1
I0
I-2
I-2
I-1
I-2
I-2
I-1
I1
I-1
I1
I-2
I-1
I-2
I-2
I1
I1
I-1
I-2
I-2
I-2
I-1
I-1
I1
I-1
I0
I-2
I-2
I-2
I1
I-1
I-1
I0
I1
I-2
I-2
I-2
I1
I-1
I1
I1
I1
I-2
I-2
I-2
I1
I-1
I1
I1
I-1
I-2
I-1
I-1
I1
I1
I2
I1
I0
I-1
I-1
I2
I-1
I-1
I0
I-1
I-1
I1
I2
I2
I1
I2
I1
I0
I-2
I1
I1
I-2
I-2
I-2
I-1
I-1
I-2
I0
I-2
I1
I1
I1
I2
I1
I2
I-1
I-1
I0
I0
I-1
I-1
I1
I-2
I-2
I-2
I-1
I-1
I-2
I-1
I-1
I-2
I-2
I-2
I-1
I-1
I-2
I1
I-2
I-2
I-2
I-2
I1
I-1
I0
I2
I0
I-2
I-1
I1
I0
I1
I-1
I0
I-1
I-1
I1
I2
I1
I0
I2
I1
I-2
I2
I2
I1
I2
I2
I2
I2
I2
I0
I-2
I-2
I2
I1
I2
I2
I-1
I1
I2
I2
I1
I0
I2
I2
I2
I0
I-1
I2
I2
I2
I1
I1
I2
I1
I1
I-1
I2
I-1
I-1
I-2
I-2
I1
I-2
I-2
I-2
I-1
I-2
I-1
I-2
I2
tp32
sS'bfa6d5b47966ca8c.jpg'
p33
(I-1
I2
I2
I1
I-1
I2
I2
I1
I1
I2
I2
I2
I-1
I-2
I-2
I-1
I-2
I-2
I2
I1
I2
I1
I2
I-1
I2
I0
I2
I2
I-2
I2
I0
I1
I2
I-2
I-1
I-2
I-1
I1
I1
I1
I2
I-2
I-2
I1
I-2
I-2
I-2
I-2
I-2
I-1
I-2
I-2
I-2
I-2
I-1
I-2
I1
I2
I-2
I1
I0
I-1
I1
I2
I-2
I2
I-2
I2
I2
I1
I2
I-1
I0
I2
I2
I2
I2
I2
I-2
I-2
I0
I-2
I1
I0
I1
I1
I-2
I-1
I2
I-1
I1
I-1
I-1
I1
I-2
I1
I-1
I-1
I1
I-1
I1
I-2
I-1
I-2
I-1
I-1
I-2
I2
I2
I1
I-1
I1
I2
I2
I-1
I-1
I-1
I-1
I-1
I-2
I2
I0
I-2
I1
I-1
I-1
I-1
I-1
I1
I-2
I-2
I1
I-2
I-1
I-1
I-2
I-1
I-2
I0
I1
I1
I1
I-2
I-2
I-2
I-1
I1
I-1
I1
I-2
I-2
I-1
I-1
I1
I1
I-1
I2
I-2
I-1
I1
I-1
I-1
I1
I-2
I-2
I-2
I-1
I-2
I2
I2
I2
I1
I-1
I1
I1
I1
I0
I1
I-1
I1
I1
I-1
I-1
I-1
I1
I-2
I2
I1
I1
I1
I1
I2
I-1
I1
I1
I1
I-1
I-1
I-2
I-1
I1
I-2
I2
I2
I2
I2
I-2
I2
I-2
I-1
I2
I2
I2
I2
I2
I-1
I1
I2
I1
I1
I2
I-2
I2
I-1
I1
I2
I-1
I1
I-1
I-2
I-2
I-2
I1
I-1
I2
I1
I2
I2
I2
I0
I1
I1
I2
I2
I-1
I-1
I-2
I-1
I-2
I1
I2
I-1
I2
I1
I1
I2
I2
I2
I2
I2
I-1
I-1
I-2
I-2
I-2
I1
I0
I-2
I2
I2
I1
I2
I2
I2
I2
I2
I1
I-1
I1
I-2
I2
I1
I2
I2
I-2
I-1
I2
I-2
I2
I1
I1
I1
I-2
I-1
I-2
I-2
I-1
I-1
I-2
I-1
I1
I-2
I1
I-1
I1
I-2
I-1
I1
I-2
I-1
I-2
I-2
I-2
I-1
I-2
I-2
I-2
I-2
I1
I-2
I-1
I2
I-1
I1
I-2
I1
I-2
I0
I-2
I1
I-2
I-1
I1
I-2
I2
I-2
I-1
I2
I2
I2
I-1
I1
I-2
I-2
I-1
I-2
I1
I-2
I-2
I1
I-2
I-1
I1
I-1
I-1
I-2
I0
I0
I-1
I2
I1
I1
I1
I1
I1
I-1
I1
I-1
I-1
I-1
I-1
I2
I2
I1
I0
I-2
I1
I2
I-1
I-1
I-2
I-1
I-2
I-2
I2
I2
I1
I2
I2
I-1
I-1
I1
I-1
I-1
I-2
I-2
I-2
I-2
I-1
I-2
I2
I1
I2
I2
I1
I2
I-1
I-2
I-1
I2
I2
I-1
I2
I-2
I-2
I1
I-1
I0
I-1
I-2
I0
I-2
I-2
I-1
I0
I-1
I1
I0
I-1
I-2
I-1
I-2
I1
I1
I1
I1
I-1
I0
I1
I-2
I1
I2
I2
I2
I1
I2
I0
I2
I2
I-1
I2
I1
I2
I0
I1
I2
I-1
I-1
I-1
I1
I-2
I-1
I-2
I-1
I-2
I-2
I2
I1
I2
I2
I-1
I2
I-1
I1
I2
I2
I2
I1
I2
I-1
I2
I2
I-1
I2
I2
I-2
I1
I-2
I1
I2
I1
I1
I-1
I-1
I-1
I-1
I1
I1
I2
I1
I1
I2
I2
I-1
I-2
I1
I-2
I-2
I-2
I-1
I-2
I1
I1
I1
I2
I0
I1
I2
I-2
I0
I-2
I2
I1
I1
I2
I2
I-1
I-2
I1
I-2
I2
I-2
I-1
I1
I-2
I1
I-2
I-1
I-2
I-1
I1
I-1
I-2
I-1
tp34
s.