(dp0
S'777c3a957da50e2a.jpg'
p1
(I1
I1
I2
I-1
I-1
I0
I1
I-1
I1
I-1
I1
I-1
I2
I1
I1
I0
I2
I1
I-1
I2
I2
I1
I-1
I-2
I-1
I-2
I-2
I-2
I1
I2
I-1
I-1
I-1
I-2
I-1
I-2
I-2
I-2
I1
I-2
I-2
I-1
I0
I1
I-1
I-1
I-2
I-1
I-1
I-1
I-2
I-2
I-2
I-2
I1
I1
I0
I2
I2
I-1
I-1
I1
I-2
I-2
I-2
I-2
I-2
I-2
I-2
I-2
I-1
I-1
I2
I2
I-1
I-1
I0
I-1
I1
I2
I1
I1
I0
I1
I1
I1
I2
I1
I2
I0
I0
I1
I1
I-2
I1
I2
I2
I0
I1
I1
I-1
I0
I2
I2
I-1
I-2
I-1
I1
I2
I-1
I-1
I-2
I1
I2
I1
I1
I0
I-1
I-2
I-2
I2
I1
I2
I0
I1
I-2
I-2
I1
I-1
I2
I1
I-1
I1
I-2
I-1
I1
I2
I0
I-1
I-1
I-1
I-1
I1
I-2
I1
I-1
I-1
I1
I1
I1
I-1
I-2
I-1
I-1
I-1
I-1
I-2
I-2
I-2
I-2
I2
I1
I2
I2
I1
I0
I1
I-1
I0
I1
I-1
I-1
I-2
I1
I1
I-2
I1
I2
I2
I2
I2
I2
I1
I2
I2
I2
I2
I2
I2
I-1
I2
I2
I2
I2
I-1
I1
I1
I-2
I2
I2
I2
I1
I-1
I-1
I-1
I-2
I-2
I0
I-1
I1
I2
I1
I2
I2
I-1
I2
I2
I1
I2
I2
I0
I1
I1
I2
I2
I2
I2
I-1
I1
I-1
I-2
I1
I2
I1
I1
I2
I2
I2
I2
I-1
I-2
I2
I1
I1
I-2
I-2
I-2
I-2
I-1
I-1
I-1
I-1
I-2
I-2
I-2
I1
I0
I-1
I-1
I2
I-2
I-2
I0
I0
I-1
I-1
I2
I-2
I-1
I1
I-2
I1
I1
I2
I-1
I-2
I-1
I-2
I-2
I-1
I-1
I-2
I-2
I-1
I-1
I-2
I-1
I1
I2
I-2
I0
I-1
I-2
I-2
I-2
I-2
I-1
I-2
I-2
I-1
I-1
I-2
I1
I-2
I0
I-1
I1
I1
I-2
I-2
I-1
I1
I1
I-1
I1
I-2
I-2
I-2
I1
I1
I1
I-1
I2
I-2
I-2
I-1
I-2
I-2
I-2
I-2
I-2
I-2
I-2
I-2
I2
I1
I2
I2
I-2
I1
I-2
I-2
I2
I2
I2
I2
I2
I1
I0
I2
I1
I0
I2
I-2
I-1
I-2
I-1
I-2
I1
I2
I2
I1
I2
I1
I-1
I1
I1
I0
I-2
I-2
I-1
I2
I2
I-2
I1
I-1
I2
I2
I2
I2
I1
I2
I1
I2
I2
I2
I2
I-1
I2
I1
I1
I2
I1
I2
I-1
I-2
I-2
I-2
I-1
I1
I2
I1
I-1
I2
I0
I1
I2
I2
I2
I0
I2
I0
I1
I2
I2
I2
I-2
I1
I-1
I-1
I-2
I1
I0
I2
I2
I1
I2
I2
I2
I2
I2
I2
I-1
I1
I-2
I2
I1
I-1
I-2
I-1
I2
I2
I1
I-1
I-1
I1
I1
I2
I2
I2
I-2
I-1
I2
I-1
I1
I2
I2
I2
I-2
I1
I-1
I-1
I1
I1
I2
I2
I-1
I-2
I-2
I-1
I-1
I1
I1
I-1
I-2
I-2
I-1
I1
I-1
I1
I0
I-1
I-2
I0
I-2
I1
I2
I1
I1
I1
I-2
I-2
I-2
I-2
I-1
I-1
I-2
I-2
I-2
I-1
I1
I-1
I-1
I-2
I-2
I1
I-2
I-2
I-2
I-1
I-2
I-2
I-2
I-1
I2
I2
I-2
I-2
I-1
I-2
I-1
I-2
I-1
I-1
I1
I-1
I1
I0
I-1
I1
I-1
I1
I-1
I1
I1
I0
I-1
I2
I1
I0
I-1
I2
I1
I1
tp2
sS'c1956cddf8303367.jpg'
p3
(I-1
I1
I-1
I1
I0
I1
I0
I-2
I0
I-2
I1
I-2
I1
I2
I-1
I2
I2
I2
I1
I1
I2
I2
I2
I-1
I-1
I2
I2
I2
I1
I2
I2
I2
I2
I-2
I2
I1
I2
I2
I-2
I-1
I1
I-1
I-1
I-1
I0
I-1
I1
I0
I-1
I1
I-2
I1
I1
I-2
I2
I2
I-2
I2
I2
I2
I1
I2
I-1
I-2
I-2
I-2
I-2
I-2
I1
I1
I-2
I-2
I-2
I2
I2
I2
I2
I1
I-2
I-2
I-2
I-2
I-1
I0
I-1
I1
I-2
I-2
I-1
I1
I1
I1
I2
I0
I-2
I-2
I1
I-1
I1
I1
I-1
I0
I-2
I-1
I-1
I-1
I-1
I0
I-1
I-1
I-1
I-1
I1
I-1
I-2
I1
I-2
I-1
I-1
I-2
I1
I-1
I2
I2
I2
I1
I-1
I-2
I-2
I-1
I-2
I-2
I-1
I-2
I-2
I-2
I-1
I-2
I0
I1
I-1
I-2
I-2
I-2
I-1
I1
I-1
I1
I1
I-2
I-2
I-2
I-1
I-2
I-2
I-1
I-2
I-2
I-2
I-1
I0
I1
I1
I2
I1
I-2
I1
I1
I0
I1
I-1
I1
I1
I1
I1
I0
I1
I-1
I1
I1
I-1
I0
I-2
I1
I-1
I-1
I2
I1
I2
I2
I-2
I2
I2
I1
I2
I2
I2
I2
I1
I2
I2
I1
I2
I2
I2
I-1
I1
I2
I-1
I2
I2
I2
I2
I-1
I-1
I-2
I1
I-1
I2
I2
I2
I1
I2
I1
I1
I2
I1
I-1
I-1
I-2
I-1
I-2
I-2
I-1
I-1
I-1
I1
I-2
I-1
I-1
I-1
I-2
I0
I0
I1
I1
I-2
I2
I1
I2
I2
I0
I1
I-2
I-2
I-1
I-2
I2
I-1
I1
I-1
I-2
I-2
I2
I-2
I2
I2
I2
I-1
I1
I2
I2
I2
I2
I2
I2
I-2
I-1
I-1
I-2
I-1
I2
I2
I2
I1
I-1
I2
I1
I1
I2
I2
I2
I-2
I2
I2
I-1
I2
I1
I1
I2
I1
I1
I-2
I-1
I2
I0
I-2
I1
I-1
I-1
I0
I-2
I-2
I-1
I-2
I-1
I-1
I-2
I0
I1
I-2
I2
I2
I1
I-1
I1
I-1
I-2
I-2
I-2
I0
I-2
I-1
I-2
I-2
I-2
I-2
I0
I1
I-1
I-2
I-2
I-2
I-2
I-2
I-1
I-2
I-2
I-2
I-1
I-2
I-2
I-1
I2
I-1
I-1
I1
I-1
I-2
I-1
I1
I1
I2
I1
I0
I0
I-2
I-2
I-2
I-2
I-2
I1
I1
I-1
I-1
I-1
I1
I1
I-1
I1
I-2
I-1
I-1
I-1
I2
I1
I2
I2
I2
I2
I1
I-2
I-1
I1
I1
I-2
I-1
I-1
I-2
I-2
I2
I2
I2
I1
I1
I-2
I-2
I-1
I2
I2
I1
I-1
I2
I-2
I-1
I-2
I1
I-1
I-1
I-2
I-1
I-2
I-2
I-1
I1
I0
I2
I1
I0
I-2
I1
I1
I0
I2
I0
I1
I1
I1
I1
I0
I2
I-1
I1
I1
I-2
I0
I-1
I2
I-1
I-1
I1
I-1
I1
I1
I-2
I-1
I1
I1
I2
I2
I2
I2
I1
I2
I2
I-1
I2
I2
I2
I-1
I2
I2
I-1
I2
I1
I1
I2
I-2
I-1
I-2
I1
I1
I2
I2
I2
I1
I2
I2
I2
I2
I1
I-1
I-1
I-2
I0
I-2
I-1
I0
I-1
I-1
I0
I-1
I0
I-2
I-2
I-2
I1
I1
I1
I2
I1
I1
I-1
I-2
I-1
I1
I-1
I-2
I-2
I-1
I-2
I1
I1
I2
I2
I2
I-2
I-1
I-2
I-2
I-1
I-1
I-2
I2
I1
I1
I-2
I1
I1
I-1
I1
I0
I0
I-1
tp4
sS'966438f96adae4d1.jpg'
p5
(I2
I1
I2
I-2
I1
I-1
I1
I2
I-1
I0
I1
I2
I2
I0
I2
I2
I2
I2
I-2
I2
I-1
I1
I2
I-2
I-2
I-1
I1
I1
I2
I0
I2
I2
I2
I0
I-1
I2
I2
I1
I1
I2
I1
I-1
I1
I1
I-1
I-1
I-2
I-1
I-1
I-1
I1
I-2
I-2
I-1
I-2
I-2
I-2
I-1
I1
I-2
I-2
I-1
I-2
I-2
I1
I-1
I1
I-2
I-2
I1
I-2
I-1
I1
I-1
I1
I-2
I0
I0
I-2
I-1
I-2
I-1
I1
I-1
I-1
I-2
I-1
I-2
I-2
I-1
I1
I-2
I-2
I-2
I-2
I-2
I-2
I-1
I-2
I-2
I-2
I-2
I-1
I-1
I2
I-1
I-1
I1
I2
I1
I-1
I2
I1
I2
I2
I-1
I1
I-1
I2
I1
I1
I2
I2
I-1
I1
I1
I0
I1
I1
I2
I2
I-1
I2
I-1
I0
I2
I-1
I0
I1
I-2
I0
I-2
I1
I2
I0
I1
I2
I0
I-1
I1
I2
I2
I2
I2
I2
I1
I1
I2
I2
I-1
I2
I2
I1
I-1
I-1
I2
I-1
I-2
I2
I1
I1
I-1
I-2
I1
I1
I2
I2
I2
I-2
I-2
I-1
I-2
I-1
I1
I1
I-1
I-1
I0
I1
I1
I1
I1
I0
I1
I-1
I0
I2
I-1
I2
I-1
I-1
I1
I-2
I-1
I-1
I-2
I2
I-2
I-2
I-1
I-2
I-2
I-2
I-2
I0
I-2
I-2
I-2
I-2
I-2
I-2
I0
I-2
I-2
I-2
I-2
I1
I1
I1
I2
I-2
I1
I2
I1
I2
I2
I2
I2
I2
I-2
I-1
I0
I-1
I-1
I-2
I-1
I-1
I0
I-1
I-1
I-1
I1
I1
I0
I1
I1
I0
I1
I2
I2
I-1
I1
I2
I0
I2
I2
I2
I2
I-1
I2
I2
I-2
I1
I-1
I2
I2
I1
I2
I2
I-1
I1
I1
I1
I2
I2
I2
I-1
I-1
I1
I1
I2
I2
I1
I-2
I-2
I-1
I-1
I1
I1
I-2
I-1
I-2
I1
I2
I-1
I1
I1
I1
I-2
I-1
I1
I1
I-1
I-1
I1
I-2
I-2
I-1
I-1
I-2
I-2
I-1
I1
I-2
I-2
I-2
I-2
I-2
I1
I-1
I2
I-2
I-2
I-1
I-2
I-2
I-1
I-2
I1
I-2
I-2
I-1
I-2
I-1
I-1
I-1
I1
I-2
I-1
I-1
I-2
I-2
I-1
I-1
I1
I-2
I-1
I-2
I-2
I-1
I-2
I-1
I-2
I-2
I-2
I-2
I2
I1
I2
I1
I-2
I2
I2
I1
I0
I2
I1
I2
I2
I-1
I1
I-1
I2
I2
I1
I2
I2
I-1
I0
I1
I1
I2
I2
I2
I2
I0
I2
I1
I2
I2
I1
I2
I2
I-2
I2
I-1
I2
I2
I1
I1
I2
I-2
I1
I1
I2
I1
I1
I1
I2
I-1
I-1
I2
I1
I-2
I2
I2
I-1
I1
I-2
I1
I-1
I-2
I2
I2
I2
I1
I1
I0
I1
I2
I2
I2
I-2
I-2
I-1
I-2
I1
I1
I1
I1
I-2
I-1
I-1
I-1
I1
I1
I1
I-1
I-2
I-2
I1
I-1
I2
I0
I-1
I2
I-2
I-2
I-1
I-2
I2
I-2
I-1
I1
I-2
I-2
I-2
I-2
I-1
I-2
I-1
I1
I-1
I-1
I-1
I1
I-2
I0
I2
I1
I2
I1
I-1
I2
I-1
I2
I2
I2
I2
I-1
I1
I2
I2
I-2
I-1
I1
I-2
I-1
I-1
I-1
I-1
I-1
I-1
I0
I1
I-1
I1
I1
I2
I1
I2
I-2
I1
I2
I-2
I2
I-1
I1
I0
I-2
I2
I-1
I-2
I-2
I-2
I-1
I-1
I-2
I-2
I1
I-1
I-2
I-2
I1
tp6
sS'7cbc25b37f0ca510.jpg'
p7
(I2
I2
I2
I-2
I2
I2
I2
I1
I-2
I1
I0
I-2
I-1
I-1
I1
I-2
I-2
I-1
I-1
I2
I-2
I-1
I-2
I-2
I1
I-2
I-2
I-1
I-1
I2
I-2
I-2
I-2
I-2
I-2
I-2
I-2
I-2
I2
I-1
I-1
I-2
I-2
I-2
I-2
I-1
I-2
I-2
I0
I2
I-2
I-1
I1
I1
I-1
I2
I2
I2
I1
I2
I2
I2
I1
I2
I2
I-1
I1
I2
I2
I2
I1
I1
I2
I-1
I-2
I1
I1
I2
I2
I2
I2
I2
I2
I2
I2
I2
I1
I1
I2
I-2
I-1
I1
I1
I2
I2
I2
I1
I1
I0
I1
I2
I2
I2
I1
I0
I2
I2
I2
I1
I1
I-2
I-1
I1
I-1
I-2
I-1
I1
I-2
I-1
I1
I-1
I-2
I-2
I-1
I1
I-1
I1
I1
I-2
I-2
I-1
I-1
I0
I1
I0
I1
I-2
I-1
I-2
I0
I2
I0
I2
I2
I-2
I-2
I-1
I-2
I0
I-1
I1
I1
I-2
I-1
I-1
I0
I1
I1
I1
I2
I-2
I-2
I-2
I-1
I-1
I1
I1
I1
I-2
I-2
I1
I1
I1
I2
I2
I2
I-1
I1
I1
I1
I1
I-2
I2
I-2
I-1
I1
I-1
I-1
I-1
I-2
I-1
I-2
I-1
I-1
I-1
I0
I0
I1
I1
I-1
I-1
I1
I-1
I-2
I1
I-1
I1
I-2
I-1
I1
I-2
I-1
I-1
I-1
I1
I-2
I0
I-1
I-1
I-1
I-1
I-1
I1
I-1
I-2
I-1
I-2
I-1
I-1
I-1
I-1
I-2
I-1
I-2
I-1
I-1
I1
I-1
I-2
I1
I2
I2
I2
I2
I-1
I1
I2
I-2
I1
I2
I2
I-1
I-1
I1
I1
I-1
I1
I2
I-2
I-2
I1
I1
I2
I-1
I1
I-2
I-2
I-1
I-1
I1
I2
I-1
I2
I-2
I-2
I-2
I-1
I0
I1
I-2
I-1
I-2
I-2
I-2
I1
I2
I2
I1
I1
I-2
I-1
I1
I1
I1
I1
I-1
I-2
I-2
I-1
I-2
I2
I2
I2
I2
I2
I-2
I-2
I1
I-1
I-1
I-2
I-2
I-2
I-1
I-2
I-2
I-2
I-2
I1
I2
I2
I2
I-1
I2
I1
I2
I2
I2
I2
I1
I1
I1
I2
I2
I1
I2
I2
I-1
I1
I1
I2
I2
I2
I2
I2
I-1
I2
I2
I2
I2
I2
I1
I2
I-2
I1
I2
I2
I2
I-1
I1
I-2
I-1
I-1
I1
I1
I1
I2
I-2
I1
I2
I1
I1
I2
I0
I-2
I-2
I1
I2
I-2
I0
I-1
I-2
I-2
I1
I2
I-1
I-1
I1
I1
I-1
I2
I2
I-2
I-2
I-2
I-1
I1
I1
I1
I2
I-2
I-2
I-2
I-1
I2
I-1
I1
I2
I-2
I-2
I-2
I-2
I1
I-1
I1
I1
I-2
I-2
I-1
I-1
I1
I-1
I1
I1
I-2
I-1
I-2
I-1
I-1
I0
I1
I1
I-1
I-1
I1
I2
I2
I2
I2
I2
I2
I2
I2
I2
I1
I-2
I2
I1
I1
I2
I-1
I-2
I-1
I-2
I0
I-2
I-1
I-1
I-2
I-1
I1
I0
I1
I-1
I-1
I1
I-2
I-1
I1
I-1
I2
I-2
I-1
I0
I-2
I-1
I1
I-2
I1
I-2
I-1
I-2
I-1
I-1
I0
I-1
I1
I-2
I-2
I-2
I-1
I-1
I-2
I-1
I-1
I-2
I-2
I-2
I-1
I-2
I1
I-2
I-2
I-2
I-1
I-1
I-2
I-1
I2
I1
I1
I-2
I1
I1
I-1
I-1
I1
I1
I2
I1
I2
I-1
I1
I2
I-2
I1
I0
I1
I2
I-1
I-1
I2
I2
I2
I1
I0
I2
I2
I2
I0
I-2
I2
I2
I2
tp8
sS'7abd359921bff253.jpg'
p9
(I2
I2
I1
I-2
I1
I1
I-2
I-1
I-1
I1
I-2
I-1
I-1
I-1
I1
I-2
I-2
I-2
I-1
I2
I-2
I-2
I-1
I-2
I1
I-2
I-2
I-2
I-1
I1
I-2
I-2
I-2
I-1
I-2
I-2
I-2
I-2
I2
I-2
I-2
I-2
I-1
I-2
I0
I0
I-1
I2
I2
I2
I1
I2
I2
I2
I1
I1
I2
I-1
I1
I2
I1
I1
I1
I2
I2
I-1
I1
I1
I0
I1
I2
I2
I2
I-1
I2
I-1
I0
I2
I1
I2
I2
I-2
I2
I-2
I1
I2
I2
I2
I2
I-2
I-1
I-1
I1
I1
I2
I2
I2
I1
I-1
I1
I1
I-1
I2
I2
I1
I2
I-1
I0
I-2
I-1
I-2
I-1
I0
I-2
I-2
I1
I-1
I-2
I0
I1
I-2
I-1
I-1
I1
I-1
I1
I1
I2
I-1
I0
I1
I1
I1
I2
I2
I2
I-1
I0
I2
I-1
I2
I2
I2
I2
I-2
I-1
I1
I-2
I1
I1
I2
I2
I-2
I-1
I-1
I-1
I0
I1
I1
I1
I-1
I-1
I-2
I0
I-2
I2
I1
I0
I1
I1
I2
I2
I2
I2
I2
I2
I1
I2
I1
I0
I-1
I-2
I1
I-2
I-1
I-1
I-1
I-1
I-2
I-1
I1
I-2
I-1
I1
I-2
I-2
I-2
I-1
I1
I-2
I-1
I-1
I-2
I-2
I-1
I-1
I2
I-2
I-1
I1
I-2
I-2
I-1
I-2
I1
I-2
I-1
I1
I-2
I-1
I-2
I-1
I-1
I-1
I-1
I-1
I-1
I-1
I-2
I1
I-1
I1
I1
I-2
I0
I-2
I1
I1
I-2
I-1
I2
I2
I2
I1
I-2
I1
I2
I-2
I0
I2
I-1
I-1
I1
I1
I2
I0
I2
I-1
I-2
I0
I-1
I1
I2
I-2
I1
I-2
I-2
I-2
I1
I1
I2
I-1
I2
I-2
I-2
I1
I-1
I1
I1
I-2
I1
I-2
I-2
I-1
I-1
I1
I-1
I-1
I0
I-2
I-2
I-2
I1
I-1
I-1
I0
I-2
I-1
I-2
I-2
I2
I2
I2
I1
I1
I-2
I-2
I-2
I-2
I-2
I-1
I1
I1
I2
I-1
I1
I1
I2
I1
I2
I2
I1
I2
I2
I2
I2
I0
I2
I2
I-2
I-1
I2
I2
I2
I2
I2
I2
I1
I2
I2
I2
I2
I-1
I2
I2
I-2
I1
I-1
I1
I2
I1
I2
I1
I-1
I-1
I-1
I1
I1
I2
I2
I-1
I1
I1
I2
I2
I0
I2
I-1
I-1
I2
I-1
I2
I-1
I1
I-2
I2
I2
I-1
I-2
I-1
I1
I-2
I1
I1
I-2
I-2
I-2
I-1
I1
I0
I-1
I1
I-2
I-2
I-2
I-1
I1
I-1
I1
I2
I-2
I-2
I1
I-1
I2
I1
I2
I2
I-2
I-1
I1
I-2
I2
I-1
I1
I2
I-2
I-1
I-2
I-2
I-1
I-1
I1
I1
I-1
I-2
I-2
I1
I-2
I1
I1
I1
I0
I1
I2
I2
I2
I2
I2
I2
I1
I2
I-2
I-1
I0
I-2
I-1
I-2
I-2
I-2
I-1
I1
I1
I1
I2
I-1
I-1
I-1
I-1
I-1
I-1
I-2
I1
I-2
I-2
I-1
I-2
I-2
I1
I-1
I1
I-2
I-1
I0
I-2
I-1
I1
I-1
I1
I-2
I-2
I-1
I-2
I-1
I-1
I-1
I0
I-2
I-1
I-2
I-1
I-1
I-2
I0
I-1
I-1
I-2
I-2
I-1
I-2
I1
I-2
I-2
I-1
I2
I2
I-2
I2
I1
I-2
I0
I2
I1
I2
I0
I1
I1
I2
I2
I-1
I2
I1
I1
I2
I-2
I1
I0
I1
I2
I-1
I1
I1
I1
I1
I-1
I-1
I2
I2
I2
I1
I-2
I2
I2
I2
tp10
s.