(dp0
S'14d63228e8c0a3b8.jpg'
p1
(I0
I-1
I2
I0
I-2
I-2
I2
I1
I2
I2
I2
I2
I1
I-2
I-1
I-1
I-2
I-2
I1
I-1
I-2
I-1
I2
I1
I1
I1
I2
I2
I-1
I-1
I2
I2
I2
I1
I2
I2
I2
I2
I-2
I1
I1
I1
I2
I2
I0
I2
I-2
I-2
I-2
I-2
I-2
I-2
I-1
I1
I-1
I-2
I1
I2
I-1
I2
I2
I-1
I-1
I2
I2
I1
I1
I2
I1
I1
I2
I1
I-1
I-1
I2
I1
I1
I-1
I-2
I-2
I-2
I-2
I1
I-2
I-2
I-1
I-2
I-2
I-2
I-1
I1
I-2
I-1
I-2
I-2
I-2
I-1
I-1
I-1
I-2
I-2
I-2
I-2
I-1
I1
I-2
I-1
I0
I2
I2
I2
I1
I-2
I1
I-2
I-2
I1
I-2
I-2
I-2
I-1
I-2
I-2
I-1
I-2
I-2
I-2
I-2
I1
I-1
I-1
I2
I1
I-2
I1
I-1
I-1
I-1
I2
I-1
I-1
I1
I-1
I-1
I1
I2
I2
I1
I2
I0
I1
I1
I1
I1
I2
I-2
I-1
I-2
I-2
I-1
I2
I2
I2
I1
I1
I-1
I-1
I2
I2
I1
I-1
I-1
I2
I-2
I2
I-1
I-2
I2
I-1
I2
I2
I1
I-2
I-1
I2
I2
I2
I2
I2
I2
I2
I2
I2
I2
I2
I-1
I-1
I-2
I-1
I-1
I-1
I-1
I1
I1
I0
I1
I1
I1
I1
I2
I1
I-1
I2
I-1
I1
I1
I2
I2
I-1
I2
I1
I-1
I1
I2
I2
I2
I1
I1
I1
I-1
I2
I2
I2
I2
I-2
I-2
I-2
I1
I1
I2
I1
I2
I0
I2
I-2
I-2
I-2
I-2
I-2
I-2
I-1
I-2
I-2
I-2
I1
I2
I-1
I1
I-1
I-1
I-2
I1
I-1
I1
I0
I0
I1
I1
I1
I-1
I-1
I0
I2
I1
I1
I-1
I-2
I-2
I-2
I-2
I2
I-1
I-2
I1
I-2
I-2
I-2
I-2
I1
I-2
I-1
I-2
I-2
I-2
I-1
I-1
I-1
I-2
I-2
I-2
I-2
I-1
I1
I-2
I-2
I0
I2
I2
I1
I2
I-2
I1
I-1
I-2
I-2
I-2
I-2
I-2
I2
I1
I0
I2
I1
I1
I-1
I-1
I1
I-1
I-1
I-1
I0
I-2
I-1
I-1
I-1
I-1
I1
I0
I-1
I-1
I-1
I-1
I1
I2
I2
I1
I2
I0
I1
I-1
I-1
I1
I2
I-2
I-1
I-2
I-2
I-2
I2
I2
I2
I1
I1
I-2
I-1
I2
I2
I2
I-1
I-2
I1
I-1
I2
I1
I-1
I2
I-2
I2
I-1
I-1
I-2
I-1
I2
I1
I2
I1
I2
I2
I1
I2
I2
I2
I1
I1
I1
I-1
I0
I2
I1
I1
I1
I1
I0
I0
I1
I1
I1
I1
I1
I-1
I2
I-1
I-2
I0
I1
I2
I1
I2
I2
I1
I2
I2
I2
I2
I2
I1
I2
I-2
I2
I2
I2
I2
I-2
I-1
I-2
I1
I-1
I1
I1
I2
I-1
I2
I-2
I-2
I-2
I-2
I-1
I-2
I-1
I-2
I-1
I-2
I-2
I1
I-1
I-1
I-2
I-1
I-2
I-1
I-1
I1
I-1
I-2
I1
I0
I-1
I-1
I0
I1
I1
I1
I1
I-1
I-1
I-1
I-2
I-1
I2
I0
I-1
I1
I-2
I-2
I-2
I-2
I1
I-2
I-1
I-1
I-2
I-2
I-1
I-1
I-1
I-2
I-2
I-2
I-2
I1
I1
I-1
I-1
I1
I2
I2
I-2
I1
I1
I-2
I-2
I2
I2
I1
I2
I2
I1
I-1
I-1
I-2
I-1
I0
I-1
I0
I1
I-1
I1
I1
I2
I1
I2
I-1
I1
I2
I-2
I-1
I1
I2
I1
I1
I1
I2
I1
I-1
tp2
sS'41b4a5c87e1e5af3.jpg'
p3
(I1
I1
I0
I-1
I-2
I1
I-1
I-2
I2
I-1
I1
I-2
I1
I1
I-1
I-1
I2
I2
I1
I1
I2
I2
I1
I-1
I-1
I2
I1
I-1
I1
I-1
I1
I-1
I0
I1
I-1
I-1
I1
I1
I1
I1
I1
I-1
I-1
I-1
I-1
I-2
I0
I1
I-1
I1
I-2
I0
I-2
I-1
I2
I2
I1
I2
I2
I1
I2
I-2
I-1
I-2
I-2
I-2
I2
I-1
I-2
I-2
I-2
I-2
I-2
I-2
I-2
I-2
I-2
I-2
I-1
I-1
I-1
I2
I-2
I-1
I-1
I-2
I1
I1
I1
I2
I1
I1
I-2
I-1
I0
I-1
I-1
I-1
I0
I-2
I-2
I-2
I-1
I-1
I0
I-2
I-2
I1
I0
I-2
I1
I2
I2
I2
I-1
I2
I1
I2
I2
I2
I1
I-2
I1
I-1
I-2
I2
I1
I1
I2
I2
I2
I2
I2
I2
I2
I2
I2
I2
I1
I-2
I-1
I2
I1
I1
I2
I1
I-1
I1
I-2
I2
I1
I0
I2
I2
I2
I2
I1
I2
I2
I2
I1
I2
I2
I-1
I-2
I1
I1
I2
I2
I2
I2
I2
I2
I-1
I-2
I1
I1
I-2
I-2
I-2
I-2
I-1
I-2
I-1
I-2
I-2
I-2
I-1
I-2
I2
I0
I-2
I-2
I-2
I-1
I-2
I-2
I0
I-1
I-2
I-2
I1
I-2
I-1
I-2
I1
I-1
I-1
I1
I-2
I-1
I-1
I-2
I1
I-1
I1
I-1
I-2
I0
I-2
I-1
I1
I-1
I-1
I-2
I-1
I-2
I-1
I-2
I1
I2
I-1
I0
I-1
I-2
I-2
I-2
I-1
I-2
I-1
I1
I-2
I-1
I-1
I2
I2
I2
I2
I-1
I2
I1
I1
I2
I2
I2
I1
I1
I2
I2
I-2
I2
I2
I1
I-1
I2
I1
I-2
I0
I-1
I-1
I-2
I-2
I-2
I-2
I-2
I-2
I2
I1
I1
I2
I-1
I1
I1
I-2
I2
I2
I1
I1
I1
I2
I-1
I1
I1
I0
I1
I-1
I-1
I-2
I-1
I-2
I1
I2
I1
I0
I-2
I1
I-2
I-1
I1
I2
I1
I-1
I-2
I1
I-1
I1
I2
I1
I-1
I-2
I-1
I1
I-2
I2
I1
I1
I2
I2
I2
I2
I2
I2
I2
I2
I0
I2
I-1
I-2
I1
I2
I2
I1
I2
I-1
I-2
I-1
I-2
I1
I1
I-1
I2
I1
I2
I2
I1
I2
I2
I2
I-1
I1
I0
I-1
I-2
I1
I1
I2
I2
I2
I2
I2
I2
I-1
I-1
I1
I-1
I-2
I-2
I-2
I-2
I-1
I-2
I-2
I-2
I-2
I-1
I-1
I-2
I2
I1
I-2
I-2
I-2
I-1
I-2
I-2
I-1
I-1
I-2
I-2
I-1
I-2
I-2
I-1
I1
I-1
I-2
I-1
I-2
I-1
I-1
I-2
I1
I-2
I1
I-2
I-2
I1
I-2
I-1
I2
I-1
I-1
I-1
I-1
I-2
I-1
I-2
I1
I2
I-1
I0
I-1
I-2
I-2
I-2
I-2
I-2
I1
I2
I-2
I-1
I1
I2
I2
I2
I2
I1
I2
I2
I1
I2
I2
I2
I-1
I1
I2
I1
I-1
I2
I2
I2
I-1
I2
I0
I-1
I0
I1
I1
I-1
I-2
I-2
I-2
I-2
I-1
I2
I2
I1
I2
I-1
I1
I2
I0
I2
I1
I1
I1
I1
I2
I1
I1
I1
I0
I2
I-1
I-1
I-1
I0
I-1
I1
I2
I1
I1
I0
I1
I-2
I1
I-1
I-2
I-2
I-1
I-2
I-1
I-1
I0
I2
I-1
I1
I1
I2
I1
I1
I0
I2
I-1
I-1
I1
I1
I-2
I-2
I-1
I-2
I0
I-1
I1
I2
I1
I-1
I0
I-1
I-1
I-1
I1
I0
I1
tp4
sS'613ac13c89be08ff.jpg'
p5
(I-1
I2
I1
I1
I-1
I2
I2
I-1
I1
I0
I2
I1
I0
I0
I-1
I1
I-1
I-2
I1
I-1
I0
I-2
I-2
I1
I-2
I-2
I-2
I1
I2
I2
I1
I2
I2
I-2
I-1
I-2
I-1
I1
I1
I0
I2
I-2
I-2
I-1
I-2
I-1
I-1
I-2
I-2
I1
I-2
I-2
I-1
I-1
I1
I-1
I-1
I2
I-1
I1
I1
I2
I0
I1
I0
I1
I-2
I2
I2
I2
I2
I2
I2
I2
I1
I2
I2
I2
I2
I2
I-1
I-1
I2
I2
I2
I2
I-1
I-2
I2
I-2
I1
I1
I-2
I1
I-2
I1
I0
I-1
I2
I-2
I-1
I-1
I-1
I-2
I-2
I-2
I-2
I2
I2
I1
I1
I-1
I1
I1
I-1
I-1
I1
I0
I-1
I-2
I1
I-1
I-2
I-1
I1
I-1
I-2
I-2
I-2
I-2
I-2
I-1
I1
I-2
I-2
I-2
I-2
I-2
I-2
I-1
I-2
I-2
I-2
I-2
I-2
I-2
I-1
I2
I-2
I-1
I-1
I-2
I-2
I1
I2
I2
I2
I1
I-2
I2
I-1
I1
I2
I-2
I-1
I-2
I-1
I-1
I1
I2
I1
I1
I0
I-1
I0
I-1
I0
I1
I1
I1
I1
I1
I-1
I1
I1
I-1
I2
I2
I2
I1
I1
I2
I-1
I2
I2
I2
I2
I-1
I-1
I-1
I1
I-1
I2
I2
I1
I1
I0
I2
I1
I-2
I2
I1
I-1
I0
I-2
I1
I-2
I1
I2
I2
I2
I2
I2
I0
I2
I2
I-2
I1
I-1
I-2
I-1
I-1
I1
I1
I1
I0
I1
I1
I2
I0
I-1
I0
I-1
I-1
I-1
I-1
I-2
I0
I-2
I-1
I-1
I1
I1
I1
I1
I2
I2
I2
I2
I2
I-2
I-1
I-2
I-2
I-1
I1
I1
I2
I1
I-1
I-1
I1
I-2
I2
I2
I1
I2
I2
I0
I2
I2
I2
I2
I2
I-1
I-2
I1
I-2
I1
I1
I-1
I2
I-2
I-1
I-1
I-1
I1
I-2
I1
I1
I-2
I-2
I-1
I-1
I-1
I1
I1
I1
I2
I0
I1
I1
I-2
I-1
I1
I2
I0
I-1
I-1
I-2
I-1
I-1
I1
I-1
I-2
I-2
I-2
I-1
I-2
I-1
I1
I-2
I-2
I-2
I-2
I-2
I-2
I-1
I-2
I-2
I-2
I-2
I-1
I-2
I-1
I2
I-2
I-2
I-1
I-2
I-2
I1
I2
I2
I2
I1
I-1
I2
I-2
I-1
I1
I-2
I-1
I-2
I-1
I0
I-1
I1
I1
I-1
I1
I-2
I-2
I-2
I-2
I-1
I0
I0
I1
I2
I-1
I-1
I2
I-1
I1
I2
I2
I1
I-1
I2
I-1
I2
I2
I2
I2
I1
I-1
I-1
I2
I2
I2
I2
I2
I1
I1
I2
I2
I-1
I2
I1
I-1
I-1
I-2
I2
I-2
I-1
I2
I1
I2
I2
I2
I-1
I1
I2
I-2
I1
I1
I-2
I1
I-1
I2
I-1
I0
I-1
I-1
I1
I-1
I2
I1
I2
I1
I1
I1
I-2
I-2
I-2
I-2
I-2
I-2
I-1
I1
I1
I1
I2
I2
I1
I2
I2
I-2
I-2
I-2
I-2
I1
I-1
I-1
I-1
I-2
I-2
I-2
I-1
I-2
I-2
I-1
I-2
I1
I2
I1
I2
I2
I2
I2
I1
I1
I-1
I1
I-2
I2
I1
I-1
I2
I-2
I-2
I-1
I-2
I-2
I-2
I0
I-1
I1
I1
I2
I2
I2
I-1
I2
I-1
I-1
I2
I-1
I1
I1
I1
I-2
I1
I-1
I-1
I-2
I1
I2
I1
I1
I1
I1
I-2
I-1
I-1
I2
I-2
I-1
I1
I-2
I-1
I1
I2
I2
I2
I-2
I0
I-2
I-2
I-1
I1
I-2
I1
tp6
sS'd2f33e7c180eaf7d.jpg'
p7
(I2
I-2
I-1
I-2
I-2
I-2
I-2
I-2
I2
I-1
I0
I-2
I-1
I1
I1
I-1
I1
I1
I-1
I-2
I1
I1
I1
I2
I1
I2
I2
I2
I-1
I2
I2
I2
I2
I-2
I-2
I-1
I0
I-2
I2
I2
I-1
I2
I2
I1
I2
I1
I1
I2
I0
I-1
I-2
I2
I1
I-1
I2
I2
I1
I2
I1
I2
I2
I1
I1
I-1
I-1
I-1
I1
I1
I-1
I-2
I-1
I-1
I-2
I-1
I-1
I-2
I-2
I-1
I-1
I-2
I-2
I1
I-1
I-2
I-1
I-1
I-2
I-2
I1
I1
I1
I-1
I-1
I-2
I-2
I0
I-2
I-1
I-2
I-2
I-2
I-2
I2
I1
I2
I-1
I-1
I-2
I-2
I-2
I-2
I-2
I-1
I-1
I-2
I2
I-1
I-1
I1
I-2
I1
I-2
I-1
I1
I-1
I1
I-2
I-2
I-1
I1
I2
I1
I-2
I-1
I-1
I1
I2
I2
I2
I2
I2
I1
I2
I-1
I1
I1
I1
I-2
I-1
I1
I-2
I-2
I1
I1
I2
I1
I-2
I-2
I-2
I1
I2
I2
I1
I2
I-1
I0
I2
I2
I2
I1
I1
I2
I2
I2
I1
I1
I1
I1
I2
I-1
I-1
I-1
I-2
I-1
I-1
I-1
I2
I1
I1
I2
I0
I1
I1
I1
I1
I1
I-1
I0
I1
I1
I1
I2
I-1
I-2
I-1
I-1
I-2
I0
I2
I1
I1
I2
I2
I2
I1
I2
I2
I2
I2
I2
I0
I-1
I2
I2
I2
I2
I-1
I-2
I-2
I-2
I-2
I-1
I-1
I-2
I-2
I-2
I2
I1
I-1
I-1
I1
I1
I2
I2
I-1
I1
I-1
I-1
I-1
I2
I2
I2
I1
I-1
I-1
I1
I1
I2
I2
I1
I-1
I-1
I0
I-1
I2
I2
I-1
I-1
I-2
I-2
I-2
I-2
I-1
I-2
I-2
I1
I-1
I-2
I-2
I1
I-2
I-2
I1
I-1
I-2
I-2
I1
I2
I1
I2
I1
I-1
I-2
I1
I-1
I-1
I-2
I1
I-2
I-2
I2
I1
I2
I1
I1
I-2
I-2
I-1
I-2
I-2
I-2
I-2
I-2
I1
I-1
I-2
I-2
I-2
I-2
I-2
I-2
I1
I-2
I-2
I-2
I-2
I-1
I1
I2
I2
I-1
I1
I-1
I2
I1
I2
I2
I1
I2
I-1
I2
I-1
I-1
I-1
I-2
I-2
I-1
I-1
I-2
I-2
I1
I-1
I-1
I1
I-2
I-2
I-2
I-1
I1
I2
I-1
I2
I0
I1
I1
I1
I2
I-1
I0
I1
I1
I2
I2
I-2
I1
I-1
I2
I2
I2
I2
I1
I2
I1
I1
I2
I2
I-1
I-1
I-2
I0
I-1
I1
I2
I1
I1
I2
I2
I2
I2
I2
I-2
I-2
I1
I-2
I-2
I-2
I-1
I-2
I1
I2
I2
I2
I1
I2
I1
I0
I2
I2
I-1
I-1
I1
I1
I-1
I-1
I1
I-1
I-1
I-1
I-1
I-2
I-1
I-2
I-1
I-1
I1
I0
I-2
I-1
I-2
I-1
I2
I2
I1
I-1
I0
I1
I-1
I2
I2
I2
I-1
I1
I-2
I1
I1
I2
I2
I-1
I-1
I-2
I2
I-1
I1
I2
I-1
I-1
I-2
I1
I-2
I-1
I-2
I-2
I-2
I-1
I2
I-1
I-1
I2
I-1
I1
I1
I1
I0
I1
I2
I1
I1
I2
I2
I1
I1
I1
I0
I-1
I-2
I2
I0
I1
I2
I2
I2
I2
I2
I-2
I-2
I1
I-2
I-2
I-2
I-1
I-2
I-2
I-2
I-2
I2
I-2
I1
I1
I2
I2
I0
I1
I2
I-1
I0
I1
I1
I-1
I-2
I-1
I0
I-1
I-2
I-2
I0
I-2
I-1
I0
I-2
I2
I1
I-1
I-2
I-1
tp8
sS'df693447104ff8ff.jpg'
p9
(I-1
I-1
I-1
I1
I2
I-1
I0
I1
I-2
I1
I-2
I-1
I2
I-1
I1
I-1
I1
I2
I-1
I-2
I0
I1
I1
I2
I2
I2
I2
I2
I-2
I2
I1
I2
I2
I-2
I1
I2
I2
I2
I-1
I1
I2
I1
I1
I1
I1
I2
I1
I0
I2
I-1
I1
I1
I2
I2
I-1
I1
I1
I-1
I2
I1
I2
I2
I-2
I-1
I0
I-2
I1
I-1
I2
I1
I-2
I-1
I-2
I-1
I1
I2
I1
I1
I-1
I-2
I-1
I-1
I2
I1
I1
I0
I-2
I-2
I-2
I-2
I0
I-2
I-2
I-1
I-2
I-2
I-1
I0
I1
I-2
I-1
I-2
I-2
I-2
I-1
I-2
I-2
I-1
I-1
I2
I1
I1
I-2
I-2
I-1
I-2
I1
I-1
I-1
I1
I-2
I-2
I1
I-1
I2
I-2
I-1
I1
I-2
I-2
I-2
I-2
I-2
I-2
I-2
I-1
I-1
I-1
I-1
I2
I1
I-2
I1
I-2
I-1
I-1
I2
I-1
I-1
I0
I-2
I-2
I0
I2
I2
I1
I1
I-2
I-2
I0
I1
I1
I2
I-1
I-1
I-2
I-1
I-2
I2
I2
I1
I-1
I-1
I-1
I1
I0
I-1
I-1
I-1
I1
I2
I0
I2
I-1
I-1
I1
I-1
I1
I2
I-2
I1
I-2
I-1
I0
I-1
I2
I2
I-1
I2
I-2
I-1
I1
I1
I-1
I0
I-2
I-2
I-2
I-1
I-1
I2
I2
I2
I2
I-1
I2
I2
I2
I2
I2
I2
I1
I2
I2
I2
I2
I0
I1
I1
I-2
I-1
I1
I1
I2
I2
I1
I1
I2
I2
I1
I1
I-1
I-1
I0
I1
I1
I2
I1
I2
I0
I1
I2
I-1
I1
I2
I-2
I1
I-2
I0
I2
I0
I1
I2
I-1
I2
I-1
I2
I2
I-1
I1
I-2
I-2
I1
I0
I-1
I0
I1
I-2
I-2
I-1
I2
I-1
I-1
I2
I-2
I-2
I-1
I-2
I0
I-2
I1
I1
I-2
I-2
I-2
I0
I1
I0
I1
I1
I-2
I-2
I-1
I-1
I1
I1
I0
I1
I1
I2
I0
I-1
I2
I-1
I2
I1
I2
I2
I-2
I0
I1
I-2
I2
I0
I1
I2
I-2
I-2
I0
I-2
I-1
I-2
I1
I1
I-2
I1
I1
I1
I1
I2
I1
I2
I0
I1
I2
I-1
I2
I1
I2
I-2
I-2
I-1
I0
I-2
I1
I-1
I-2
I-2
I-1
I-1
I1
I-1
I1
I-2
I-2
I-2
I-1
I-1
I-1
I-2
I-2
I-1
I-1
I1
I-1
I-1
I-2
I-2
I0
I-1
I1
I-2
I-2
I1
I-2
I-1
I2
I-1
I2
I-2
I-1
I-1
I-2
I-1
I-2
I-2
I-1
I-2
I-2
I-1
I-1
I-1
I-1
I1
I1
I-2
I-1
I-2
I-2
I-2
I1
I-1
I-2
I-2
I-2
I-2
I2
I2
I2
I2
I2
I0
I-1
I2
I2
I2
I2
I-2
I-1
I-2
I0
I1
I2
I2
I1
I1
I2
I1
I2
I0
I-1
I-1
I1
I2
I2
I0
I2
I-1
I-1
I1
I-1
I1
I2
I-2
I1
I-2
I-1
I-1
I1
I2
I2
I-1
I2
I-2
I-1
I2
I1
I1
I2
I-2
I-2
I-2
I1
I2
I2
I2
I0
I2
I-1
I2
I2
I2
I2
I1
I2
I1
I2
I2
I2
I2
I-2
I0
I-1
I-2
I1
I2
I2
I2
I-1
I-2
I-1
I1
I2
I1
I1
I1
I1
I1
I2
I-1
I1
I-1
I1
I2
I-1
I1
I1
I1
I2
I-1
I2
I-2
I-1
I-2
I-2
I1
I-2
I-2
I-2
I-1
I1
I-2
I-2
I-2
I-1
I-1
I-2
I-2
I-1
I1
I1
I-2
I-2
I-1
tp10
sS'a2bbe588a7dafdf7.jpg'
p11
(I-1
I-2
I2
I1
I-1
I-1
I2
I2
I1
I2
I2
I2
I1
I-2
I-1
I-1
I-2
I-2
I1
I-2
I-1
I-2
I1
I2
I2
I0
I2
I2
I-2
I-1
I2
I2
I2
I1
I2
I2
I2
I2
I-2
I2
I1
I2
I1
I2
I0
I2
I-2
I-2
I-2
I-2
I-1
I-2
I0
I2
I-2
I-2
I1
I1
I-1
I1
I2
I1
I-1
I2
I1
I1
I-1
I2
I1
I1
I2
I2
I0
I1
I2
I2
I1
I1
I-1
I-2
I-2
I-2
I1
I-2
I-2
I-1
I-2
I-2
I-2
I-1
I1
I-2
I-2
I-2
I-2
I-2
I-2
I-1
I-1
I-2
I-2
I-2
I-2
I-1
I1
I-2
I-1
I0
I2
I2
I2
I1
I-2
I0
I-1
I-2
I2
I1
I-2
I-2
I-2
I-2
I-2
I-2
I-2
I-2
I-2
I-2
I-1
I-1
I-2
I2
I-1
I-2
I1
I-1
I-1
I-1
I2
I1
I-1
I1
I0
I-1
I-1
I2
I2
I1
I2
I1
I-1
I1
I1
I2
I2
I-2
I-1
I-2
I-1
I-1
I2
I2
I2
I1
I2
I0
I1
I2
I2
I1
I-2
I-1
I1
I-2
I-1
I-2
I-2
I0
I-1
I2
I2
I2
I-1
I-1
I2
I2
I2
I2
I2
I1
I2
I2
I2
I2
I2
I-1
I-1
I-2
I-1
I-1
I-1
I-2
I1
I0
I-1
I1
I-1
I1
I-1
I1
I1
I1
I2
I1
I1
I-1
I2
I2
I-1
I1
I0
I-1
I1
I1
I2
I2
I1
I-1
I1
I-1
I2
I2
I2
I2
I-2
I-1
I-2
I1
I1
I2
I1
I2
I0
I2
I0
I-2
I-2
I-2
I-1
I-2
I0
I-1
I-2
I-2
I1
I1
I1
I1
I-1
I1
I-2
I1
I-1
I-1
I-2
I-1
I0
I-1
I2
I1
I1
I2
I2
I2
I1
I1
I-1
I-2
I-1
I-2
I2
I-1
I-2
I1
I-2
I-2
I-2
I-2
I1
I-2
I-1
I-2
I-2
I-2
I-1
I-1
I1
I-2
I-2
I-2
I-2
I-1
I-1
I-2
I-2
I0
I2
I2
I2
I1
I-2
I0
I-1
I-2
I-1
I-1
I-2
I-2
I1
I1
I1
I1
I1
I-1
I-2
I-1
I-1
I0
I-2
I-1
I-1
I-2
I-1
I-2
I1
I-1
I1
I1
I-1
I1
I-1
I-1
I-1
I2
I2
I1
I2
I0
I0
I-1
I-1
I1
I2
I-2
I-1
I-2
I-2
I-2
I2
I2
I2
I1
I1
I-2
I-1
I2
I2
I2
I-1
I-2
I1
I-2
I1
I-2
I-2
I-1
I-1
I2
I1
I1
I-1
I-1
I1
I1
I2
I2
I2
I1
I2
I2
I2
I2
I1
I1
I-1
I-2
I-1
I1
I1
I-1
I2
I1
I0
I1
I0
I2
I-1
I1
I1
I0
I2
I0
I-1
I-1
I1
I2
I1
I2
I2
I1
I1
I2
I2
I2
I2
I1
I2
I-1
I2
I1
I2
I2
I-2
I-1
I-2
I1
I1
I2
I1
I2
I1
I2
I1
I-1
I-2
I-2
I1
I-1
I1
I-1
I-1
I-2
I-1
I-1
I1
I0
I-2
I1
I-2
I-1
I-2
I-1
I-2
I-2
I0
I-1
I1
I1
I1
I2
I1
I2
I1
I0
I-1
I-1
I-2
I-1
I1
I-1
I-2
I1
I-2
I-2
I-1
I-1
I2
I-2
I-1
I-1
I-2
I-2
I-1
I-2
I-1
I-2
I-2
I-1
I-2
I-1
I1
I-2
I-1
I-1
I1
I2
I-2
I-1
I0
I-2
I-2
I1
I2
I2
I2
I2
I-1
I0
I-2
I-2
I-1
I1
I-1
I1
I1
I-1
I0
I2
I2
I1
I2
I-1
I1
I2
I-2
I1
I1
I2
I2
I-1
I1
I1
I1
I-1
tp12
s.