(dp0
S'de5b3906bf72f9fc.jpg'
p1
(I1
I2
I2
I-1
I-1
I2
I1
I-2
I1
I2
I2
I-1
I2
I-2
I1
I-2
I-1
I2
I-1
I1
I-2
I2
I2
I-1
I-2
I2
I1
I1
I2
I2
I2
I2
I2
I-2
I1
I1
I1
I1
I-1
I-1
I-1
I-2
I-2
I-1
I-2
I-2
I-2
I-1
I-2
I1
I-2
I-1
I-1
I-1
I2
I1
I2
I2
I2
I2
I2
I2
I-2
I1
I2
I-2
I2
I-1
I2
I2
I-2
I-2
I-2
I-2
I-1
I-2
I-2
I-2
I-2
I-1
I-2
I1
I-1
I-1
I-2
I-2
I-1
I-2
I-1
I1
I-1
I-2
I-2
I-2
I-2
I-1
I1
I1
I-1
I-2
I-2
I-1
I-1
I1
I1
I-2
I-1
I2
I1
I1
I1
I-1
I2
I1
I-2
I-1
I1
I0
I-1
I-1
I1
I-2
I1
I-1
I2
I-1
I-2
I-1
I-2
I-2
I2
I-2
I1
I-2
I-2
I-1
I-2
I2
I1
I-1
I-2
I-2
I-2
I-2
I2
I2
I2
I2
I-1
I1
I0
I-2
I2
I2
I2
I1
I-1
I1
I-2
I1
I2
I2
I2
I1
I2
I-1
I2
I2
I1
I1
I-2
I-1
I1
I-1
I0
I-1
I-2
I-1
I1
I1
I1
I1
I-1
I-1
I1
I-1
I1
I2
I2
I1
I1
I1
I1
I2
I1
I2
I2
I-1
I1
I-1
I2
I2
I1
I2
I-1
I-1
I-1
I1
I1
I2
I2
I0
I-1
I1
I-2
I2
I2
I1
I2
I2
I1
I2
I2
I2
I2
I2
I-1
I-2
I1
I-2
I2
I1
I1
I2
I-2
I-1
I-2
I-1
I0
I2
I1
I1
I2
I2
I1
I-1
I-1
I-1
I-1
I1
I1
I-2
I1
I-1
I1
I1
I2
I2
I-1
I2
I-2
I-2
I-1
I-2
I1
I-2
I0
I2
I-2
I-1
I-2
I-1
I1
I-1
I2
I1
I-2
I-2
I-2
I-1
I-2
I1
I1
I-1
I-1
I-2
I-1
I2
I1
I2
I1
I-1
I-2
I-1
I1
I-1
I1
I0
I-1
I-1
I-2
I0
I-1
I-1
I-1
I-2
I-1
I0
I-1
I-2
I-2
I-1
I-2
I0
I-2
I-1
I-2
I-1
I2
I1
I2
I2
I2
I1
I1
I2
I-2
I0
I1
I-2
I2
I-2
I1
I1
I-2
I-2
I-2
I-2
I-1
I-2
I-2
I-2
I-1
I-1
I-2
I1
I-2
I-2
I-2
I-2
I1
I-1
I0
I2
I-1
I-2
I-2
I-2
I1
I1
I1
I1
I0
I-2
I-2
I2
I1
I1
I0
I-2
I1
I1
I1
I-1
I-1
I-1
I2
I2
I-1
I1
I0
I1
I1
I-1
I1
I-1
I2
I0
I2
I1
I-1
I1
I-2
I-1
I2
I-2
I1
I-2
I-1
I1
I-1
I2
I2
I-1
I-2
I-1
I0
I-1
I2
I2
I2
I2
I-1
I2
I1
I-2
I2
I2
I2
I1
I-1
I2
I-1
I2
I2
I2
I2
I1
I2
I-1
I2
I2
I-2
I-1
I-2
I-2
I0
I1
I-1
I0
I0
I-1
I1
I-1
I-1
I0
I-1
I0
I-1
I-1
I1
I1
I2
I1
I2
I1
I0
I2
I-1
I1
I1
I-2
I1
I-2
I1
I2
I-1
I0
I-2
I-1
I-1
I-1
I2
I2
I1
I-1
I-2
I1
I-2
I2
I2
I1
I2
I1
I1
I2
I2
I2
I2
I2
I-2
I-2
I2
I-2
I2
I1
I1
I2
I-2
I0
I-2
I-1
I0
I0
I0
I-1
I1
I1
I-1
I1
I-1
I1
I0
I2
I1
I2
I-2
I-1
I1
I-2
I2
I-2
I-2
I-2
I-2
I0
I-2
I-2
I-2
I0
I-2
I-1
I-2
I-1
I2
I0
I-2
I-1
I1
I0
I1
I-2
I0
I-1
tp2
sS'5c1523a9131b32b1.jpg'
p3
(I-2
I-1
I-1
I2
I-1
I1
I1
I2
I1
I-1
I1
I2
I1
I1
I2
I2
I1
I1
I-2
I0
I-2
I-2
I-2
I0
I-2
I-2
I-2
I-2
I2
I2
I1
I-1
I1
I-2
I1
I-2
I-2
I-1
I-1
I-2
I-2
I1
I-1
I0
I2
I2
I1
I-1
I-1
I0
I1
I2
I2
I2
I-2
I-2
I-2
I-1
I-2
I1
I1
I-2
I-1
I-1
I2
I2
I0
I2
I1
I-2
I-1
I2
I2
I0
I1
I1
I-2
I2
I2
I2
I-1
I-1
I-2
I-2
I2
I1
I2
I1
I2
I2
I1
I2
I2
I1
I-1
I2
I2
I-1
I1
I1
I-1
I-2
I1
I2
I-1
I-1
I-2
I-2
I-2
I1
I-2
I-1
I-2
I-2
I-1
I-1
I-1
I-2
I-1
I-2
I-2
I-1
I-2
I1
I-2
I-1
I-2
I-2
I2
I-1
I-1
I2
I-2
I1
I0
I1
I2
I2
I2
I2
I2
I2
I2
I2
I-2
I-2
I-2
I-2
I-1
I-1
I2
I-2
I-1
I-2
I-1
I1
I-2
I2
I-1
I1
I-1
I1
I1
I2
I-1
I2
I2
I1
I2
I2
I1
I2
I2
I2
I2
I2
I1
I-1
I1
I1
I1
I-2
I-1
I-1
I-2
I-1
I2
I2
I-1
I1
I-1
I-1
I1
I1
I2
I0
I-2
I1
I1
I1
I1
I2
I-1
I-2
I1
I-1
I2
I0
I1
I2
I-2
I-2
I-2
I-2
I-2
I-2
I-2
I-2
I1
I1
I-2
I2
I1
I2
I-1
I-1
I-1
I-2
I-2
I-1
I-2
I-2
I-1
I1
I-1
I-2
I2
I1
I2
I-1
I1
I-1
I1
I1
I1
I2
I1
I1
I2
I1
I1
I2
I1
I-1
I-1
I-2
I0
I0
I1
I-2
I-1
I-1
I0
I0
I1
I1
I-1
I-1
I-2
I-1
I2
I-1
I1
I-2
I-2
I-1
I-2
I2
I-2
I-1
I-2
I-2
I-2
I-2
I2
I1
I2
I2
I1
I2
I1
I-1
I1
I1
I-1
I-1
I2
I1
I-2
I0
I-1
I-2
I-2
I-2
I-2
I-1
I-1
I0
I1
I1
I-1
I-1
I0
I0
I1
I1
I1
I2
I-2
I-1
I-1
I-1
I-2
I-1
I1
I-2
I2
I1
I2
I2
I1
I2
I-1
I-1
I1
I2
I2
I-1
I1
I-1
I-2
I2
I1
I2
I-2
I-1
I-1
I-2
I2
I2
I2
I-1
I-1
I1
I-2
I2
I2
I-2
I1
I2
I2
I2
I2
I2
I1
I1
I0
I2
I-2
I-1
I-1
I-1
I-1
I0
I-1
I-1
I-1
I-1
I1
I0
I1
I-1
I-1
I-2
I-2
I-1
I-2
I-1
I-2
I-2
I-2
I-2
I2
I1
I1
I2
I-1
I-1
I0
I2
I1
I2
I2
I1
I2
I1
I2
I2
I-2
I-2
I-2
I-2
I0
I-1
I0
I-2
I-2
I-2
I-2
I0
I-2
I0
I-2
I-2
I2
I-1
I1
I2
I0
I1
I2
I2
I-1
I1
I0
I2
I2
I1
I1
I-1
I-1
I-1
I1
I1
I2
I1
I-2
I-1
I-1
I2
I2
I2
I1
I2
I1
I2
I2
I2
I2
I0
I-1
I-1
I2
I2
I2
I1
I-2
I-2
I1
I-2
I1
I-1
I-2
I-1
I-2
I0
I0
I-1
I-2
I-2
I-1
I-2
I2
I2
I-1
I2
I1
I2
I-1
I1
I2
I-2
I-2
I-1
I-1
I-2
I-1
I1
I-2
I-2
I1
I-1
I1
I1
I1
I-1
I1
I1
I-2
I1
I2
I-2
I-2
I-2
I-2
I-1
I-2
I-2
I1
I1
I-1
I-1
I2
I2
I1
I1
I1
I1
I-2
I-1
I-2
I2
I1
I2
I2
I1
I-1
I1
I1
I-1
I1
I-1
I-1
I-1
tp4
s.