(dp0
S'8893380709765eab.jpg'
p1
(I-1
I0
I1
I1
I1
I0
I1
I2
I-1
I2
I1
I2
I2
I-2
I1
I0
I0
I1
I-1
I-1
I-1
I1
I1
I1
I0
I1
I1
I1
I0
I-2
I1
I1
I0
I2
I-2
I2
I2
I-2
I2
I2
I-2
I0
I0
I1
I2
I-1
I-1
I-1
I-1
I-1
I2
I2
I-1
I2
I-2
I-2
I0
I-2
I0
I-2
I1
I-1
I-2
I0
I1
I0
I1
I1
I-1
I-2
I-1
I-1
I-1
I-1
I0
I-2
I-2
I-1
I-1
I-1
I-1
I0
I1
I-2
I-1
I-2
I-1
I-1
I-2
I-1
I-1
I-1
I-2
I-1
I0
I-2
I-2
I1
I-2
I-1
I1
I-2
I2
I2
I2
I2
I2
I-2
I-2
I-2
I2
I1
I1
I1
I2
I2
I2
I2
I2
I2
I-2
I-1
I-1
I-2
I-1
I-2
I-1
I-2
I1
I1
I2
I1
I-2
I1
I-2
I-2
I2
I2
I2
I2
I2
I0
I1
I2
I1
I1
I1
I-2
I-1
I-2
I-1
I-1
I2
I2
I1
I1
I1
I-1
I1
I1
I1
I-1
I-2
I-1
I-2
I-1
I-1
I-1
I2
I-2
I2
I2
I2
I-2
I-2
I-2
I-1
I-1
I-2
I-2
I2
I2
I1
I2
I2
I1
I-2
I1
I-1
I-1
I-2
I1
I-1
I-1
I2
I2
I0
I2
I1
I2
I2
I2
I2
I-1
I2
I-1
I1
I1
I2
I2
I-2
I1
I1
I-1
I1
I1
I1
I2
I1
I-1
I1
I-1
I1
I1
I1
I1
I-1
I1
I-2
I-1
I-1
I1
I1
I-2
I1
I-2
I1
I1
I-2
I1
I-2
I0
I0
I-2
I1
I-2
I-1
I0
I-1
I0
I-2
I-2
I-1
I1
I-2
I1
I-1
I-2
I-2
I-1
I1
I-2
I-1
I1
I0
I-2
I0
I-1
I-2
I-2
I-1
I0
I1
I0
I-1
I1
I-2
I-1
I-1
I-1
I1
I-1
I-1
I1
I-2
I-1
I-1
I-1
I-1
I-2
I-1
I-2
I-1
I-1
I-1
I1
I-2
I0
I-2
I-2
I2
I2
I2
I2
I-2
I0
I0
I-2
I-2
I-2
I2
I2
I2
I2
I1
I2
I-2
I-2
I2
I2
I2
I-1
I2
I-2
I-2
I-2
I1
I0
I0
I-2
I-1
I-2
I-2
I-2
I1
I1
I1
I1
I1
I-2
I-2
I-2
I-1
I1
I2
I-1
I1
I-2
I-2
I-2
I-1
I1
I0
I-1
I-2
I-2
I-2
I-2
I2
I2
I-2
I2
I-2
I-1
I-2
I-2
I2
I2
I2
I2
I2
I2
I-2
I-2
I-2
I-2
I2
I2
I2
I2
I-1
I-1
I-1
I0
I2
I2
I2
I1
I1
I1
I1
I2
I2
I2
I2
I-1
I2
I1
I2
I2
I2
I2
I2
I-2
I1
I2
I2
I2
I2
I2
I2
I-1
I2
I2
I1
I1
I2
I2
I1
I-2
I-1
I-1
I-1
I-1
I2
I2
I-2
I1
I-1
I-1
I0
I-2
I2
I-2
I1
I1
I-2
I2
I1
I1
I-2
I1
I2
I1
I-1
I-1
I1
I-2
I0
I1
I0
I-1
I-1
I-1
I2
I-1
I1
I2
I-2
I-2
I-2
I-2
I1
I-2
I1
I-1
I-2
I-2
I-2
I-1
I-2
I-1
I-2
I-2
I-2
I-1
I1
I2
I-1
I-1
I-1
I-2
I-1
I1
I1
I1
I1
I-1
I-1
I-2
I1
I0
I-1
I-1
I-2
I-2
I-2
I-1
I2
I2
I2
I1
I2
I2
I2
I2
I-1
I0
I1
I-2
I1
I-1
I-1
I2
I-1
I2
I-2
I-1
I1
I-2
I-1
I1
I2
I1
I1
I-1
I2
I1
I1
I1
I-1
I2
I1
I2
I1
I-1
I2
I2
I-1
I1
I1
I1
I-2
I-1
tp2
sS'e4388f49442c97a9.jpg'
p3
(I-1
I-1
I-1
I1
I-1
I1
I-1
I-2
I1
I1
I1
I-2
I-1
I-1
I1
I-2
I-2
I-1
I-1
I-1
I-2
I-1
I-1
I1
I1
I-1
I-1
I-1
I-1
I-2
I-1
I-1
I-2
I2
I2
I2
I2
I2
I-2
I-2
I-2
I1
I-1
I-1
I-1
I-1
I1
I1
I-1
I1
I-2
I1
I1
I-1
I2
I2
I2
I2
I1
I2
I2
I2
I1
I2
I2
I-1
I2
I1
I2
I0
I1
I1
I1
I-2
I0
I1
I-2
I-2
I1
I1
I1
I0
I1
I-2
I-2
I-2
I1
I1
I-2
I-1
I-2
I-2
I-2
I0
I2
I-2
I1
I2
I-2
I1
I2
I-2
I-2
I2
I2
I2
I-2
I1
I-1
I0
I1
I1
I1
I-1
I-2
I0
I-1
I1
I1
I1
I1
I-2
I-1
I1
I1
I1
I2
I1
I-2
I-2
I-1
I-1
I-2
I1
I-1
I-2
I0
I2
I2
I2
I-1
I2
I-1
I1
I2
I2
I2
I1
I1
I0
I1
I1
I2
I2
I-1
I-1
I2
I1
I1
I1
I0
I-2
I-2
I-2
I-2
I-1
I-1
I-2
I2
I2
I2
I2
I-2
I-1
I-1
I-1
I-1
I-1
I-1
I-1
I-1
I1
I1
I-1
I-1
I-1
I-1
I-2
I-1
I-1
I-1
I-1
I-2
I-2
I-1
I1
I-2
I1
I-2
I-1
I-2
I-2
I2
I1
I0
I2
I1
I1
I-2
I2
I-1
I-1
I-1
I-1
I1
I-2
I1
I1
I-1
I-1
I1
I-1
I1
I1
I1
I1
I-1
I1
I-2
I-1
I-2
I-1
I-1
I-2
I2
I2
I2
I2
I-1
I1
I1
I1
I-1
I-1
I1
I1
I1
I-1
I-1
I-1
I-1
I-1
I1
I2
I1
I1
I-1
I-1
I-1
I1
I2
I2
I-1
I1
I-2
I1
I2
I2
I2
I2
I2
I2
I2
I2
I2
I2
I-2
I-1
I-1
I-2
I0
I1
I1
I1
I-1
I-1
I1
I0
I-1
I1
I1
I-2
I-1
I1
I-2
I1
I-2
I1
I-2
I-2
I2
I1
I2
I2
I-1
I1
I1
I-1
I-2
I-2
I1
I1
I1
I1
I-1
I-2
I-2
I-1
I1
I1
I-1
I1
I1
I-2
I-1
I1
I-1
I-2
I-2
I-1
I1
I-2
I-1
I-1
I-2
I-2
I-1
I-1
I-1
I-1
I-1
I-1
I-2
I-1
I-1
I1
I0
I-1
I1
I-2
I-1
I-1
I-1
I0
I-2
I1
I-2
I-2
I2
I2
I-2
I2
I-2
I2
I-1
I-2
I2
I1
I2
I2
I-1
I2
I2
I2
I-2
I1
I2
I2
I2
I-2
I2
I-2
I-1
I-1
I1
I1
I2
I-2
I1
I-2
I-2
I-2
I-1
I1
I1
I-1
I1
I-2
I-2
I-2
I1
I1
I1
I-1
I1
I-2
I-2
I-2
I1
I-1
I-1
I-1
I-2
I-2
I-2
I-2
I2
I2
I-2
I2
I-2
I-2
I-2
I-2
I2
I1
I-2
I2
I-2
I-2
I-2
I-2
I2
I1
I2
I2
I-1
I2
I2
I2
I2
I2
I-1
I1
I2
I-2
I1
I2
I2
I-2
I1
I2
I2
I-1
I-2
I2
I-2
I1
I2
I2
I2
I2
I-1
I1
I2
I2
I2
I2
I2
I1
I1
I2
I2
I2
I2
I2
I2
I-1
I-2
I2
I2
I-2
I2
I2
I2
I1
I-1
I2
I-1
I2
I2
I2
I-2
I1
I-2
I0
I2
I-2
I2
I1
I2
I2
I1
I-2
I-2
I1
I-2
I-2
I-2
I-1
I-2
I2
I2
I-1
I2
I2
I-1
I-2
I-2
I-2
I-1
I-2
I-2
I-2
I1
I-1
I-2
I-2
I-2
I1
I-2
I2
I1
I0
I2
I2
I-2
I-2
I-2
I-2
I-2
I2
I-1
I2
tp4
sS'0aad30710896b01b.jpg'
p5
(I1
I-2
I-1
I-1
I-1
I-2
I-1
I-1
I1
I1
I1
I1
I-1
I-1
I-2
I0
I-1
I-2
I2
I1
I1
I-1
I2
I-1
I1
I-1
I2
I-2
I-1
I1
I1
I-2
I-2
I-1
I0
I-2
I-2
I-2
I0
I-2
I-2
I2
I2
I2
I-1
I1
I1
I1
I-1
I-2
I-1
I-2
I-1
I-2
I1
I-1
I0
I1
I-1
I-1
I-2
I-2
I1
I1
I-1
I1
I-1
I-1
I-2
I-2
I2
I1
I1
I1
I2
I-2
I-1
I-2
I-2
I-2
I-1
I-2
I-2
I-2
I-2
I-2
I2
I2
I2
I2
I2
I-1
I1
I1
I2
I2
I2
I-2
I1
I-2
I-2
I-2
I2
I2
I-1
I-2
I-2
I1
I2
I1
I-2
I-1
I-1
I1
I1
I-1
I-1
I-2
I-1
I-1
I2
I2
I1
I1
I-2
I1
I1
I-1
I2
I2
I2
I2
I2
I2
I2
I2
I2
I1
I2
I-2
I-2
I1
I2
I1
I2
I2
I1
I2
I1
I2
I2
I1
I2
I-1
I2
I-1
I1
I2
I1
I2
I-1
I2
I2
I-1
I-1
I1
I2
I2
I2
I2
I1
I2
I2
I2
I2
I1
I-1
I-1
I1
I1
I-1
I-1
I1
I-2
I-2
I2
I1
I-1
I-2
I-1
I-1
I-2
I2
I1
I1
I-2
I-1
I1
I1
I2
I2
I1
I-2
I-2
I-2
I-1
I-1
I1
I0
I2
I-1
I-2
I-2
I1
I-2
I1
I2
I-1
I-1
I-1
I-1
I2
I1
I2
I2
I2
I-2
I-2
I-2
I-1
I1
I1
I2
I2
I-2
I-2
I-1
I2
I2
I1
I2
I1
I-1
I1
I1
I2
I2
I-1
I2
I-2
I1
I-1
I-2
I-2
I-2
I-2
I-2
I-2
I-2
I-1
I-1
I-2
I-1
I2
I-1
I-2
I1
I1
I-1
I0
I-1
I1
I2
I2
I1
I2
I-2
I-2
I-2
I-2
I-2
I-1
I-1
I-1
I1
I-2
I-1
I2
I2
I2
I2
I1
I-2
I-2
I-2
I-2
I1
I-1
I-1
I-1
I-2
I-2
I-1
I-2
I-2
I1
I2
I2
I2
I2
I-1
I-1
I2
I-2
I-1
I2
I2
I-2
I1
I2
I2
I1
I2
I2
I-1
I2
I1
I-1
I-2
I-2
I-1
I-2
I-1
I-1
I-1
I-1
I1
I1
I1
I1
I0
I-1
I-2
I1
I-2
I-1
I-1
I-1
I-1
I-2
I1
I-2
I1
I1
I-1
I-1
I-2
I1
I-1
I1
I2
I1
I1
I-2
I1
I1
I1
I2
I-1
I1
I0
I-2
I-2
I1
I2
I2
I-2
I-2
I-2
I-1
I-2
I2
I2
I1
I2
I1
I2
I2
I2
I2
I2
I2
I-2
I1
I-1
I-2
I0
I0
I1
I1
I1
I0
I1
I0
I-1
I1
I1
I1
I1
I1
I1
I1
I-2
I2
I1
I1
I2
I2
I2
I2
I2
I2
I2
I2
I-1
I-1
I-1
I-2
I-1
I-1
I-2
I-2
I-1
I0
I1
I-1
I-2
I-2
I-2
I-1
I-2
I-2
I-2
I-2
I-2
I1
I-1
I-2
I-2
I-2
I-2
I-2
I0
I1
I1
I-2
I-2
I1
I-2
I-1
I-1
I-1
I1
I-2
I1
I-1
I-1
I-1
I-2
I-1
I-1
I-1
I-2
I-1
I-1
I-1
I-2
I1
I-1
I-1
I1
I1
I-1
I-2
I1
I1
I-1
I1
I2
I-1
I-2
I2
I1
I1
I-1
I2
I1
I-1
I2
I2
I1
I2
I1
I2
I2
I-2
I2
I2
I2
I2
I2
I2
I2
I2
I-2
I2
I-1
I-1
I1
I-2
I-2
I1
I2
I1
I2
I2
I1
I-1
I-1
I-2
I1
I-1
I-2
I-2
I-1
I-2
I1
I-1
I-2
I2
I-1
I1
I-1
I1
tp6
sS'264b7fedabf9a4fe.jpg'
p7
(I2
I-2
I-2
I-2
I-2
I-2
I-2
I-2
I2
I2
I-2
I2
I-1
I-2
I-2
I-1
I-2
I-2
I2
I2
I-1
I-2
I-1
I-2
I1
I-2
I-2
I-2
I-1
I-1
I-2
I-2
I-2
I1
I1
I-2
I-1
I-1
I-1
I-2
I-1
I2
I2
I-2
I2
I1
I2
I2
I2
I2
I2
I2
I2
I2
I2
I-2
I1
I-2
I-2
I0
I-2
I-2
I1
I2
I1
I2
I-1
I1
I-1
I-1
I2
I2
I2
I1
I1
I-1
I-1
I-1
I1
I2
I2
I-1
I-2
I-2
I-2
I1
I2
I2
I2
I2
I2
I1
I2
I2
I2
I1
I2
I-2
I1
I1
I1
I-2
I1
I1
I-1
I1
I-2
I-2
I-2
I-2
I-2
I-2
I-1
I-2
I0
I2
I-2
I-2
I-2
I-2
I-2
I2
I-1
I2
I-1
I-2
I-2
I-2
I2
I1
I1
I1
I-1
I-1
I-1
I-1
I1
I1
I2
I1
I1
I1
I-1
I1
I1
I2
I-1
I-1
I2
I-1
I1
I2
I-1
I-2
I-1
I-2
I1
I-2
I-1
I-2
I-2
I-2
I-1
I-1
I-2
I-2
I-2
I-1
I2
I2
I2
I-1
I2
I2
I2
I-2
I1
I2
I2
I2
I2
I2
I1
I2
I2
I-1
I2
I2
I1
I-1
I1
I2
I-1
I1
I2
I1
I-1
I-1
I-1
I-1
I-1
I-1
I1
I1
I1
I1
I1
I0
I-1
I2
I-1
I-1
I2
I-1
I2
I-1
I1
I-1
I-2
I1
I1
I-2
I-2
I-2
I-2
I-2
I2
I2
I1
I2
I2
I1
I1
I1
I1
I-2
I-2
I-2
I-2
I-1
I-2
I1
I1
I-1
I-2
I-2
I-2
I-1
I-2
I1
I-2
I-2
I1
I1
I1
I2
I1
I2
I2
I1
I-1
I1
I0
I-1
I-1
I1
I-1
I1
I1
I1
I1
I1
I2
I-1
I2
I2
I-2
I-1
I2
I-2
I-2
I-1
I-1
I2
I1
I2
I-1
I2
I-1
I2
I2
I2
I2
I-1
I2
I1
I1
I2
I2
I2
I-1
I2
I-1
I2
I2
I-1
I-1
I-2
I-1
I-1
I1
I2
I-2
I2
I-2
I2
I1
I-2
I2
I-2
I-1
I2
I-2
I2
I-1
I1
I-1
I1
I1
I2
I2
I1
I2
I2
I-1
I-2
I1
I-2
I-1
I1
I1
I2
I-2
I1
I-2
I1
I2
I1
I2
I2
I-2
I-2
I-2
I-2
I1
I-1
I-1
I0
I-2
I-2
I-2
I-1
I-1
I-2
I-1
I0
I-2
I-2
I1
I-1
I0
I1
I-2
I-1
I-2
I-2
I1
I-1
I-2
I1
I-2
I-2
I-2
I-2
I2
I1
I-1
I2
I1
I-1
I-1
I2
I-1
I-2
I-1
I-1
I1
I-2
I2
I2
I-2
I-1
I-1
I-1
I2
I2
I1
I1
I-2
I-2
I1
I-2
I-1
I-1
I-1
I-1
I-2
I1
I2
I1
I1
I-1
I-1
I0
I0
I1
I1
I-1
I1
I-1
I-1
I-1
I0
I0
I-1
I-2
I-1
I2
I2
I1
I1
I-1
I2
I2
I1
I-1
I1
I1
I-1
I1
I2
I1
I2
I-1
I2
I-1
I-1
I2
I-2
I-2
I-2
I-2
I-2
I-2
I-2
I-2
I-2
I-1
I1
I2
I-1
I-1
I-1
I-2
I-1
I1
I1
I1
I1
I-1
I-1
I-1
I1
I1
I1
I-1
I1
I-2
I-2
I-2
I0
I1
I2
I-1
I1
I-2
I-2
I1
I1
I1
I-1
I-2
I0
I-1
I-1
I-1
I1
I1
I1
I1
I1
I-1
I1
I2
I-1
I2
I-2
I2
I1
I-2
I0
I2
I1
I1
I0
I-1
I2
I1
I2
I1
I1
I1
I2
I2
I-1
I1
I2
I2
I2
I-1
I2
I-1
I0
I-2
tp8
sS'fce801b9685a96a1.jpg'
p9
(I1
I2
I1
I-1
I1
I2
I1
I1
I-1
I2
I0
I-1
I-1
I-2
I1
I-2
I-2
I-2
I-1
I1
I-2
I-2
I-2
I-1
I1
I-2
I-2
I-2
I-1
I-1
I-2
I-2
I-1
I1
I-1
I-2
I0
I1
I1
I1
I1
I-2
I-2
I-2
I-2
I-1
I-1
I-1
I0
I2
I-1
I-1
I1
I1
I-1
I1
I2
I1
I-1
I2
I1
I-1
I1
I2
I2
I1
I2
I2
I-1
I2
I2
I2
I2
I-2
I0
I-2
I1
I2
I2
I2
I2
I0
I-1
I1
I2
I1
I2
I2
I2
I1
I2
I2
I1
I1
I1
I0
I-1
I-2
I1
I-2
I-2
I-2
I-1
I-1
I-1
I-2
I-2
I2
I1
I1
I1
I-1
I1
I-1
I-2
I-1
I-1
I0
I-2
I-2
I-1
I-1
I-2
I1
I-2
I-1
I-2
I-2
I1
I1
I2
I2
I2
I0
I1
I1
I-2
I-1
I-1
I-2
I2
I-2
I-2
I-2
I-2
I-2
I-2
I-2
I-2
I-2
I-2
I-2
I-1
I-1
I2
I2
I-1
I-2
I-1
I-1
I-1
I2
I2
I1
I1
I0
I0
I1
I2
I2
I-1
I-1
I-1
I-1
I0
I-2
I2
I2
I1
I2
I1
I2
I-1
I2
I2
I2
I2
I2
I0
I1
I1
I2
I2
I2
I2
I-1
I2
I-1
I1
I2
I2
I1
I-1
I2
I2
I-1
I-1
I2
I-1
I1
I2
I2
I2
I1
I1
I0
I1
I2
I2
I1
I0
I-1
I0
I-1
I1
I1
I1
I0
I1
I0
I1
I1
I1
I-1
I-1
I1
I-1
I-1
I-1
I-2
I-2
I1
I-2
I-1
I-2
I-2
I-2
I-1
I-1
I-2
I-1
I-2
I-2
I-2
I-2
I1
I1
I-1
I-2
I-2
I-2
I-2
I-2
I-1
I-2
I-2
I-2
I-2
I-1
I1
I0
I2
I1
I1
I2
I2
I-1
I-1
I1
I-1
I1
I2
I2
I2
I-2
I-1
I-1
I-1
I-1
I1
I1
I1
I-1
I-1
I1
I1
I-1
I1
I1
I1
I1
I1
I1
I2
I1
I2
I2
I2
I1
I-1
I1
I1
I1
I-2
I-2
I-2
I-2
I-2
I2
I2
I2
I2
I-1
I-2
I-2
I1
I2
I2
I-1
I1
I2
I-1
I2
I2
I2
I-2
I-2
I-2
I-1
I-1
I-1
I-2
I-2
I-2
I-1
I1
I1
I1
I-2
I-1
I-2
I-1
I-1
I-1
I1
I-2
I-2
I-1
I-1
I-1
I-2
I-1
I0
I-2
I-2
I-2
I-1
I-2
I0
I-2
I-2
I-1
I2
I-2
I2
I2
I1
I2
I2
I2
I-1
I2
I2
I2
I2
I2
I1
I1
I2
I2
I2
I2
I-1
I-2
I1
I-2
I1
I2
I2
I2
I-2
I1
I-1
I-1
I-2
I2
I2
I-1
I2
I1
I2
I2
I1
I2
I1
I1
I1
I2
I2
I-1
I1
I1
I-1
I-1
I1
I2
I2
I-1
I0
I-1
I-1
I-1
I2
I2
I0
I-1
I-1
I-2
I-2
I1
I-1
I-1
I-2
I-2
I-2
I-1
I1
I-1
I-2
I-1
I-2
I-2
I-2
I-1
I1
I-2
I-1
I-1
I-2
I-2
I-2
I-1
I1
I-2
I-2
I-2
I-2
I-2
I-2
I-1
I-2
I-2
I-2
I-2
I1
I-1
I-1
I2
I-1
I2
I2
I2
I-1
I1
I1
I1
I0
I2
I2
I2
I1
I1
I1
I0
I1
I2
I2
I2
I1
I1
I-1
I2
I2
I1
I1
I-1
I1
I2
I2
I1
I1
I1
I1
I2
I-1
I-1
I1
I2
I2
I1
I1
I2
I2
I-2
I-1
I1
I2
I-2
I-2
I-1
I1
I-2
I-2
I-2
I-1
I-1
I-2
I-2
I-2
I1
I-1
I-2
I-2
I1
tp10
sS'9590cfc283716b74.jpg'
p11
(I-1
I-2
I-1
I1
I2
I-2
I1
I-2
I-2
I-2
I-2
I-2
I-2
I2
I-1
I-2
I0
I1
I1
I1
I1
I1
I-1
I-1
I1
I-1
I-2
I-1
I-1
I2
I-2
I-2
I-1
I-2
I-1
I-2
I-2
I-2
I1
I-2
I-2
I2
I2
I2
I1
I2
I1
I-1
I2
I-2
I-2
I-2
I-2
I-1
I2
I2
I2
I2
I2
I1
I2
I2
I2
I0
I-1
I-2
I1
I1
I1
I0
I-1
I-1
I1
I-1
I-2
I1
I-1
I-1
I1
I2
I2
I2
I1
I1
I1
I2
I1
I2
I2
I-1
I1
I0
I2
I0
I1
I2
I2
I-1
I-1
I1
I-1
I-2
I2
I2
I1
I-1
I-2
I-1
I2
I1
I-1
I1
I-2
I2
I-1
I-1
I1
I-2
I-1
I2
I1
I-2
I-1
I-1
I1
I-2
I2
I2
I-2
I-1
I-1
I-1
I-1
I2
I2
I-2
I0
I1
I-1
I1
I-1
I2
I-2
I-2
I1
I-1
I0
I1
I2
I-2
I-2
I-2
I-2
I-2
I-1
I-2
I-2
I-2
I-2
I-2
I0
I1
I1
I2
I-2
I-2
I-1
I-2
I2
I2
I2
I2
I-2
I1
I2
I1
I-1
I-1
I-1
I1
I2
I-1
I2
I-2
I-2
I2
I-2
I-2
I-2
I-2
I-1
I-2
I-1
I1
I-2
I-2
I-2
I1
I-2
I-1
I1
I-2
I2
I2
I2
I2
I1
I2
I-1
I-1
I2
I2
I2
I-1
I-1
I-1
I-2
I2
I2
I2
I2
I1
I2
I-1
I2
I2
I2
I1
I-2
I-2
I-2
I1
I0
I-2
I2
I2
I2
I2
I1
I1
I2
I0
I2
I2
I1
I2
I2
I0
I2
I2
I2
I2
I-2
I1
I1
I-2
I2
I2
I2
I2
I-1
I-1
I-2
I-2
I-2
I1
I1
I-2
I2
I1
I1
I2
I-1
I2
I-1
I-1
I1
I2
I1
I1
I2
I-1
I-1
I-2
I-2
I-2
I-1
I-2
I-1
I-2
I-2
I-1
I-2
I0
I-2
I1
I-2
I-2
I1
I2
I2
I-1
I2
I2
I2
I-2
I-2
I0
I-2
I-1
I-2
I-2
I-2
I0
I-1
I-2
I-1
I-1
I-2
I-2
I-1
I1
I1
I0
I0
I-1
I-2
I-1
I-2
I-1
I-2
I0
I-1
I-1
I2
I1
I1
I2
I-1
I2
I2
I2
I1
I1
I2
I1
I-1
I2
I2
I2
I2
I2
I2
I1
I2
I2
I2
I2
I1
I-1
I-2
I-2
I2
I2
I2
I2
I-2
I-2
I-2
I-2
I-2
I2
I2
I2
I2
I2
I1
I1
I0
I-2
I0
I1
I0
I0
I1
I0
I0
I0
I-1
I0
I-1
I0
I1
I1
I-2
I1
I-1
I1
I1
I0
I1
I-2
I-2
I1
I-2
I1
I1
I-1
I-2
I-2
I-2
I2
I2
I2
I1
I2
I-2
I-2
I-2
I-2
I1
I-2
I1
I1
I-2
I-2
I2
I-1
I0
I1
I1
I1
I-2
I2
I0
I1
I1
I-2
I-1
I-1
I1
I1
I-2
I0
I0
I1
I-1
I1
I1
I1
I0
I1
I-1
I1
I1
I1
I2
I1
I0
I-1
I-1
I-1
I-1
I1
I1
I1
I0
I-1
I-2
I1
I-1
I1
I2
I1
I1
I-1
I2
I1
I2
I2
I2
I2
I-2
I-1
I-1
I-2
I1
I0
I-1
I-1
I-1
I-1
I-1
I-1
I-1
I-1
I-2
I-1
I-1
I-1
I1
I-1
I-1
I-1
I-1
I0
I-1
I-1
I-1
I0
I1
I-1
I-2
I-1
I-1
I-1
I-1
I-1
I-1
I1
I1
I-1
I-2
I-2
I-1
I-1
I-1
I-2
I0
I1
I-1
I-2
I1
I1
I1
I-1
I1
I1
I1
I1
I1
I1
I1
I-1
tp12
sS'6e5acddc57fb6a00.jpg'
p13
(I2
I0
I2
I-2
I-1
I-2
I1
I-1
I1
I-1
I2
I1
I1
I1
I2
I2
I2
I2
I-2
I-1
I0
I1
I1
I1
I-2
I2
I2
I1
I2
I1
I2
I2
I2
I-1
I2
I2
I2
I2
I-2
I-1
I1
I0
I2
I2
I-2
I-1
I-2
I-1
I-2
I-2
I-1
I-2
I-2
I-1
I1
I-1
I-2
I1
I-1
I-2
I0
I-1
I-1
I-2
I0
I1
I1
I1
I-1
I0
I-2
I-1
I-2
I-1
I0
I-1
I-1
I-2
I-1
I-2
I-2
I0
I-1
I-1
I-2
I-2
I-1
I-2
I-2
I1
I-1
I-1
I-1
I-2
I-2
I-2
I1
I1
I1
I-1
I-2
I-1
I-2
I-1
I-1
I-2
I-2
I2
I2
I2
I2
I2
I1
I2
I2
I-2
I2
I-1
I-1
I0
I1
I0
I-1
I-2
I-1
I-2
I-2
I-1
I1
I1
I1
I1
I1
I-1
I0
I0
I0
I1
I1
I-1
I-1
I-1
I-1
I-1
I2
I2
I1
I1
I-1
I1
I1
I-2
I2
I1
I1
I1
I-2
I1
I-2
I-2
I2
I2
I2
I2
I2
I-2
I1
I2
I1
I2
I-2
I-1
I1
I-2
I1
I1
I0
I2
I-2
I1
I2
I-1
I1
I-1
I2
I2
I0
I2
I1
I-1
I1
I2
I1
I1
I1
I0
I1
I-1
I0
I1
I-1
I1
I0
I1
I-1
I0
I-1
I0
I1
I-1
I1
I-1
I-1
I1
I-2
I2
I-1
I-2
I2
I2
I2
I2
I2
I2
I2
I2
I2
I-1
I1
I-2
I2
I1
I1
I2
I-2
I-1
I-2
I-1
I1
I0
I1
I2
I1
I2
I-2
I-2
I-2
I-2
I-1
I-2
I-1
I-1
I-2
I-1
I-1
I1
I-1
I1
I1
I1
I-1
I1
I0
I1
I1
I1
I1
I1
I-1
I-1
I-2
I-1
I-2
I-1
I-1
I1
I1
I1
I-2
I2
I-1
I2
I2
I1
I2
I-2
I-1
I1
I1
I2
I2
I2
I-2
I-1
I1
I-1
I2
I2
I1
I1
I-2
I-1
I-2
I-2
I-1
I-1
I2
I2
I-2
I0
I-2
I1
I-1
I-2
I-1
I-2
I-2
I-2
I1
I-1
I-1
I1
I0
I-2
I-2
I-2
I-1
I-1
I1
I0
I1
I-2
I-2
I-2
I-1
I1
I-2
I-1
I1
I-2
I-2
I-2
I-1
I-2
I-2
I-1
I-1
I-2
I-2
I-2
I-1
I-2
I-2
I1
I-1
I-2
I-2
I-2
I-2
I-1
I1
I1
I1
I-2
I-2
I-2
I-1
I1
I-1
I-2
I-2
I2
I2
I2
I2
I2
I0
I2
I2
I-2
I-1
I1
I2
I1
I2
I2
I2
I1
I0
I2
I1
I1
I2
I2
I2
I0
I1
I1
I1
I2
I2
I2
I2
I-1
I-1
I1
I2
I2
I2
I2
I2
I1
I-1
I2
I2
I-2
I2
I2
I2
I1
I-1
I2
I-1
I2
I2
I2
I2
I1
I2
I1
I2
I2
I2
I2
I-2
I1
I2
I-2
I-1
I1
I-1
I2
I-2
I-2
I-2
I-1
I-1
I-2
I2
I1
I-1
I-1
I-1
I1
I-1
I2
I1
I2
I-1
I-1
I-1
I1
I2
I2
I2
I2
I-2
I-2
I-2
I-2
I-1
I1
I1
I0
I-2
I-2
I-2
I1
I-2
I2
I1
I-1
I2
I1
I-1
I2
I2
I2
I2
I2
I-2
I-2
I-1
I-2
I2
I1
I1
I2
I-2
I-2
I-2
I-1
I1
I1
I2
I2
I-2
I-2
I-2
I-2
I-1
I-1
I-1
I-2
I1
I1
I-2
I-2
I-1
I-1
I1
I-2
I-1
I-2
I-1
I-1
I0
I-1
I-2
I1
I-1
I1
I-2
I-1
I1
I1
I-2
I-1
I1
I-1
I2
I-2
I-1
I-2
tp14
sS'0fc2acf4942f82dc.jpg'
p15
(I0
I1
I2
I0
I-1
I1
I2
I-1
I1
I-1
I2
I1
I1
I1
I-1
I1
I1
I0
I1
I-2
I2
I1
I2
I2
I0
I2
I2
I1
I0
I2
I2
I1
I2
I-2
I1
I-2
I2
I2
I-1
I1
I1
I-1
I-1
I1
I-2
I-1
I-2
I-2
I-2
I-1
I-2
I-2
I-2
I-2
I1
I-1
I-1
I2
I1
I-1
I0
I1
I-1
I-1
I-2
I-1
I-1
I-1
I1
I-1
I0
I-1
I-2
I1
I2
I2
I0
I-2
I-2
I-2
I-2
I-2
I-2
I-2
I-2
I-2
I-1
I-1
I2
I2
I2
I1
I1
I1
I-2
I-2
I-1
I-2
I0
I-2
I-2
I-2
I-2
I-1
I0
I-2
I-2
I2
I2
I2
I2
I1
I1
I2
I1
I-2
I1
I0
I-1
I-1
I2
I0
I1
I-1
I1
I-2
I-2
I-1
I-1
I-1
I-2
I-1
I-2
I-2
I-1
I-2
I1
I0
I2
I2
I-2
I1
I0
I-2
I2
I2
I-1
I2
I1
I2
I-1
I-1
I2
I-1
I2
I-1
I0
I-1
I-2
I-1
I-1
I2
I2
I0
I-2
I-2
I-1
I1
I2
I2
I2
I2
I2
I-2
I0
I-1
I1
I2
I-1
I1
I2
I1
I0
I2
I2
I1
I1
I2
I2
I0
I1
I2
I1
I1
I1
I1
I-1
I-1
I-1
I-1
I-1
I-1
I2
I0
I-2
I1
I-2
I-1
I-1
I-2
I2
I1
I1
I2
I-1
I2
I-1
I-2
I1
I2
I2
I1
I1
I1
I-2
I2
I1
I1
I-2
I-1
I2
I-2
I1
I2
I-1
I-2
I-2
I-1
I1
I-1
I-2
I1
I-1
I-1
I-2
I-2
I-2
I-1
I-2
I-1
I-1
I-2
I-1
I-1
I1
I2
I0
I2
I1
I2
I-1
I1
I1
I0
I0
I1
I2
I1
I1
I1
I-2
I0
I-2
I2
I1
I2
I2
I1
I-1
I2
I-2
I2
I2
I2
I2
I2
I2
I2
I2
I2
I2
I2
I-2
I-1
I1
I-2
I1
I1
I1
I-2
I-2
I-1
I-1
I-1
I-2
I1
I1
I0
I-2
I-1
I1
I1
I-2
I0
I-2
I-2
I-2
I1
I2
I-1
I-1
I2
I1
I0
I2
I2
I-2
I-2
I-2
I-1
I-1
I1
I1
I1
I-1
I-1
I-2
I1
I1
I1
I1
I-2
I-2
I-2
I-2
I-1
I-2
I1
I-2
I-2
I-2
I-2
I-1
I2
I0
I-1
I-2
I-1
I-2
I-1
I1
I0
I-2
I-2
I-1
I-2
I2
I2
I2
I2
I1
I2
I2
I2
I2
I1
I1
I1
I0
I-2
I2
I0
I-1
I0
I-1
I-2
I-1
I-2
I-1
I-2
I-2
I-2
I-2
I-1
I-2
I1
I0
I-2
I-1
I-1
I-1
I-1
I-1
I0
I-2
I-1
I-1
I-2
I2
I2
I1
I2
I-1
I2
I-1
I-1
I2
I2
I2
I1
I1
I-1
I-1
I1
I1
I1
I-2
I-1
I-1
I-1
I1
I2
I2
I-1
I1
I1
I2
I-2
I0
I-1
I2
I2
I-1
I1
I2
I1
I1
I2
I2
I0
I0
I2
I2
I-1
I1
I2
I-1
I-1
I2
I1
I1
I-1
I0
I-1
I-1
I-1
I1
I1
I-2
I0
I-2
I-1
I-1
I-1
I2
I1
I1
I2
I-1
I2
I2
I-2
I1
I1
I1
I1
I2
I2
I-2
I2
I-1
I-1
I-1
I-2
I1
I-2
I1
I2
I-2
I-2
I-1
I-1
I2
I-2
I-2
I1
I-2
I-2
I-2
I-1
I-2
I0
I1
I1
I2
I1
I1
I1
I1
I-1
I0
I1
I1
I-2
I0
I0
I1
I-2
I-2
I0
I-2
I2
I2
I2
I2
I2
I-2
I-1
I1
I-2
I2
I-2
I-2
I-2
tp16
sS'3ad82aa882bdf3db.jpg'
p17
(I-1
I0
I0
I1
I1
I0
I1
I2
I-1
I2
I-1
I2
I2
I-2
I2
I2
I2
I2
I-2
I-1
I-1
I1
I1
I1
I1
I1
I1
I1
I-1
I-1
I1
I1
I1
I1
I-2
I2
I2
I-1
I2
I2
I2
I0
I0
I1
I-1
I2
I0
I-1
I1
I-1
I2
I-1
I2
I2
I-2
I-2
I-2
I-2
I1
I-2
I1
I-1
I-2
I-2
I1
I-1
I1
I0
I-2
I0
I-2
I-1
I-1
I-1
I-1
I-2
I-1
I-1
I-1
I-1
I-1
I1
I0
I-1
I-1
I-1
I-1
I-1
I-2
I0
I0
I-1
I-1
I-1
I-1
I-2
I-2
I0
I-2
I-1
I-1
I-1
I1
I-2
I2
I2
I2
I1
I1
I2
I2
I2
I-2
I-2
I2
I-2
I2
I2
I2
I2
I-2
I-1
I0
I-2
I-2
I-2
I-1
I-2
I1
I2
I2
I2
I2
I1
I-2
I-1
I0
I1
I1
I-2
I0
I-2
I-2
I-1
I1
I1
I1
I0
I1
I-2
I-1
I-1
I1
I1
I1
I-1
I1
I-1
I-1
I-1
I1
I1
I-2
I-1
I-1
I-1
I-2
I-1
I1
I-2
I1
I-1
I-1
I-2
I-2
I-2
I2
I2
I-2
I-2
I2
I2
I2
I2
I2
I2
I-2
I1
I-1
I-2
I-2
I1
I1
I-1
I2
I1
I2
I2
I0
I2
I2
I-1
I1
I2
I2
I0
I2
I2
I-1
I2
I1
I1
I1
I-2
I1
I-2
I1
I1
I1
I1
I1
I-1
I-1
I1
I1
I1
I1
I2
I1
I1
I1
I1
I1
I-1
I1
I1
I-1
I1
I-1
I-2
I-2
I-1
I-1
I-1
I-2
I-2
I-1
I1
I-1
I-1
I0
I-2
I-2
I-1
I-2
I1
I-1
I1
I-2
I-1
I1
I-2
I-2
I1
I-2
I-2
I1
I-1
I1
I1
I2
I2
I2
I2
I2
I2
I-2
I-1
I-1
I-2
I-1
I-2
I-2
I-1
I-1
I-1
I-1
I1
I0
I-2
I-1
I-2
I-1
I-1
I-1
I0
I-2
I-1
I-2
I-2
I1
I1
I2
I-1
I-2
I1
I1
I1
I1
I-2
I1
I0
I-1
I-1
I-2
I-1
I-2
I-2
I2
I2
I2
I2
I2
I2
I-2
I-2
I1
I-1
I-2
I-2
I-1
I-2
I-2
I-2
I1
I-2
I2
I1
I1
I-2
I-2
I-2
I-2
I2
I1
I-1
I1
I-2
I-2
I-2
I1
I1
I1
I-1
I-2
I-2
I-2
I-2
I2
I2
I1
I2
I-2
I-2
I-1
I-2
I2
I2
I2
I2
I1
I-1
I1
I-2
I-2
I-2
I2
I2
I-2
I2
I-2
I-2
I-2
I-2
I2
I2
I2
I2
I0
I1
I1
I2
I2
I2
I2
I0
I2
I1
I2
I2
I2
I2
I2
I-2
I1
I1
I2
I2
I2
I2
I2
I-1
I2
I2
I1
I2
I2
I2
I2
I-2
I1
I-1
I0
I-1
I2
I1
I-2
I-1
I-2
I-1
I-2
I-2
I2
I-1
I2
I1
I-2
I2
I2
I-2
I-2
I-2
I2
I2
I-1
I2
I1
I-1
I1
I1
I2
I-1
I-1
I-1
I2
I1
I1
I2
I-2
I-2
I-1
I-2
I2
I-1
I1
I2
I-2
I-2
I-2
I-2
I-1
I-2
I1
I-1
I-2
I-1
I1
I1
I1
I1
I-1
I-1
I-2
I0
I1
I-1
I-1
I-1
I-2
I-2
I1
I2
I-1
I1
I-2
I-1
I-2
I-2
I2
I2
I2
I1
I0
I2
I1
I2
I2
I-1
I-1
I-2
I1
I-1
I-1
I1
I-1
I1
I-2
I-1
I2
I-1
I2
I-2
I-1
I-1
I-2
I-2
I1
I1
I1
I2
I-1
I1
I2
I1
I1
I-1
I2
I2
I-1
I1
I-1
I2
I0
I1
tp18
sS'bd39986cca9c9255.jpg'
p19
(I2
I2
I2
I-2
I-1
I-1
I-2
I-2
I1
I-2
I-2
I-2
I-1
I2
I1
I-2
I1
I1
I-1
I2
I1
I1
I-1
I-2
I-1
I-1
I-2
I-2
I1
I2
I-2
I-2
I1
I-2
I-1
I-2
I-1
I1
I1
I0
I1
I-2
I1
I-2
I-1
I-2
I-2
I2
I2
I2
I-1
I2
I-2
I-2
I2
I2
I2
I1
I2
I-1
I-1
I-1
I1
I-1
I-1
I-2
I1
I-2
I-2
I1
I-1
I-1
I1
I-1
I-2
I-2
I1
I-1
I1
I2
I2
I2
I-1
I2
I1
I-1
I2
I2
I2
I1
I2
I1
I-1
I1
I-1
I1
I0
I-2
I2
I-2
I-2
I1
I-1
I-2
I-2
I-2
I-1
I1
I-2
I-2
I-1
I-2
I2
I2
I1
I2
I-1
I2
I1
I1
I2
I1
I2
I1
I0
I1
I1
I-1
I1
I2
I2
I0
I2
I1
I-1
I2
I-1
I-1
I-2
I-2
I-1
I-2
I-2
I0
I1
I-1
I-1
I1
I-2
I-1
I1
I-2
I1
I1
I2
I2
I1
I2
I-1
I-1
I-1
I2
I2
I-1
I2
I-2
I-2
I2
I-1
I1
I-2
I-2
I1
I1
I-2
I-2
I1
I-1
I2
I-1
I-1
I2
I1
I2
I2
I2
I-1
I-1
I-1
I-1
I-2
I2
I2
I2
I1
I1
I2
I2
I2
I2
I2
I2
I-2
I2
I1
I-2
I2
I1
I2
I1
I0
I-1
I-2
I-2
I-2
I1
I-2
I-2
I2
I1
I2
I2
I0
I2
I1
I1
I1
I2
I2
I0
I2
I1
I1
I-1
I-2
I-1
I-2
I-2
I-2
I-1
I-2
I-1
I-1
I0
I1
I-2
I-2
I1
I-1
I1
I1
I2
I-2
I-2
I-2
I1
I0
I1
I2
I2
I-2
I-2
I-1
I0
I1
I2
I2
I2
I-2
I-2
I-1
I-1
I-2
I2
I2
I1
I-1
I2
I-2
I2
I-1
I2
I2
I2
I2
I-1
I-1
I1
I1
I2
I2
I1
I-1
I-1
I2
I-1
I-2
I2
I1
I1
I1
I2
I2
I2
I2
I1
I-1
I1
I2
I1
I0
I-1
I-1
I-1
I1
I1
I1
I2
I-2
I-2
I-2
I-1
I1
I-1
I1
I1
I-2
I-2
I-2
I-1
I-1
I-1
I0
I0
I-2
I-2
I-2
I1
I-1
I0
I0
I-1
I-1
I-2
I-2
I1
I-1
I1
I1
I-2
I-2
I-2
I-2
I1
I-2
I1
I-2
I-2
I-1
I-1
I-2
I2
I1
I1
I-1
I2
I-1
I-2
I-1
I-2
I2
I-2
I-1
I-1
I1
I1
I-1
I-1
I1
I1
I2
I1
I1
I2
I-2
I-1
I1
I-2
I1
I-1
I1
I1
I-1
I0
I0
I-1
I0
I-1
I1
I-1
I0
I0
I-1
I0
I-1
I1
I-1
I-2
I1
I-1
I-1
I1
I-2
I1
I-2
I-2
I2
I2
I-1
I2
I-2
I-1
I-2
I2
I2
I1
I2
I2
I2
I-2
I2
I2
I-2
I-2
I-2
I1
I2
I-1
I-1
I1
I-2
I-1
I-1
I-1
I1
I-1
I1
I-2
I-1
I1
I-2
I-1
I1
I-1
I1
I-1
I1
I-1
I-1
I-1
I-1
I-1
I-1
I0
I-1
I-1
I1
I1
I-1
I1
I-2
I0
I-1
I-1
I2
I2
I1
I2
I-2
I2
I2
I-2
I2
I2
I2
I2
I2
I2
I1
I2
I-2
I-2
I-1
I-2
I2
I-2
I-2
I-1
I-2
I-2
I-2
I-2
I-2
I2
I2
I2
I1
I1
I1
I-2
I2
I-1
I-1
I0
I-2
I-1
I1
I1
I0
I1
I-1
I1
I1
I-2
I1
I-1
I1
I-2
I-2
I1
I-2
I2
I-1
I2
I2
I2
I-2
I2
I2
I-2
I2
I1
I2
I-2
tp20
sS'544c66593b2e3d29.jpg'
p21
(I-2
I-2
I-2
I2
I0
I0
I-2
I-2
I0
I-1
I-2
I-2
I-2
I1
I-2
I-2
I-1
I-1
I2
I1
I1
I2
I0
I-1
I1
I1
I-1
I1
I-1
I0
I-1
I1
I1
I0
I2
I1
I1
I2
I-2
I-2
I1
I2
I0
I-2
I1
I-2
I2
I2
I2
I2
I1
I2
I1
I1
I2
I2
I2
I-1
I1
I0
I-1
I-1
I2
I1
I-1
I-1
I1
I-1
I-1
I-2
I1
I-2
I-1
I-1
I-1
I-2
I-2
I-2
I0
I1
I1
I1
I2
I-2
I-2
I-2
I-1
I-1
I-1
I-2
I-1
I-2
I-2
I0
I-1
I-1
I2
I1
I2
I-2
I1
I-1
I-2
I-1
I-2
I-2
I-2
I-1
I-2
I-2
I-2
I-2
I2
I-1
I0
I2
I-1
I2
I1
I-1
I-1
I1
I1
I1
I-1
I2
I-1
I0
I1
I1
I2
I1
I-2
I-1
I1
I2
I2
I2
I2
I2
I1
I2
I2
I2
I2
I2
I2
I-1
I-1
I2
I2
I1
I2
I2
I2
I1
I2
I2
I2
I2
I0
I-1
I2
I-2
I-2
I-2
I0
I0
I1
I2
I2
I2
I1
I2
I-2
I-1
I2
I-1
I2
I-1
I-2
I1
I-2
I2
I0
I1
I1
I1
I1
I2
I1
I2
I2
I2
I0
I-1
I-2
I-1
I1
I2
I2
I2
I-2
I-2
I-2
I-1
I-1
I1
I1
I-2
I-2
I-2
I-2
I1
I-1
I1
I-2
I2
I-1
I-2
I2
I1
I2
I-2
I2
I1
I-2
I0
I-2
I-2
I0
I1
I-1
I2
I0
I-2
I0
I-1
I2
I-2
I-2
I-2
I-2
I-2
I1
I0
I-2
I2
I1
I1
I-2
I-2
I-1
I-2
I-2
I-1
I-1
I-2
I-2
I-1
I-2
I-2
I-1
I1
I1
I-1
I-1
I-1
I-2
I-1
I-1
I-1
I-2
I-1
I-1
I-1
I2
I2
I2
I2
I2
I2
I2
I2
I-2
I-2
I-1
I-2
I-1
I-2
I-2
I-1
I-1
I1
I1
I1
I2
I-1
I1
I1
I-2
I-2
I-2
I-2
I-2
I2
I-1
I-2
I2
I-1
I2
I2
I2
I2
I0
I2
I2
I1
I2
I2
I1
I0
I1
I1
I1
I-1
I1
I1
I1
I-1
I-1
I0
I-2
I-2
I1
I1
I-2
I1
I-1
I-2
I-1
I-1
I1
I-2
I2
I1
I1
I-1
I-1
I-1
I-2
I2
I1
I-1
I1
I-1
I-1
I2
I1
I-1
I2
I-1
I1
I-2
I1
I-1
I-1
I2
I-1
I-1
I-2
I-2
I-2
I-2
I-1
I-2
I1
I-2
I-1
I2
I-1
I2
I1
I-1
I-1
I-1
I0
I1
I-2
I2
I1
I-1
I1
I2
I2
I2
I1
I2
I1
I2
I1
I1
I1
I-1
I1
I1
I1
I2
I1
I1
I1
I-1
I-1
I1
I1
I1
I1
I1
I2
I1
I2
I2
I1
I2
I-2
I-1
I1
I-2
I-2
I-2
I-1
I1
I1
I2
I2
I2
I2
I1
I-2
I-1
I1
I-2
I2
I-1
I-2
I1
I-2
I1
I-2
I-2
I1
I-1
I-2
I2
I-2
I-1
I-1
I-1
I1
I-1
I-1
I2
I1
I1
I1
I2
I-2
I-1
I-1
I-1
I1
I1
I2
I-2
I-2
I-1
I-2
I-1
I-1
I1
I-2
I2
I-1
I-1
I2
I1
I2
I-1
I2
I2
I-2
I1
I-2
I-2
I1
I1
I-1
I2
I-1
I-2
I-1
I-1
I1
I-1
I-1
I-2
I2
I2
I1
I2
I-1
I2
I1
I-1
I1
I0
I1
I-1
I-1
I0
I2
I-2
I-2
I-1
I-2
I-2
I2
I2
I1
I2
I2
I-2
I-2
I-1
I-2
I-2
I-2
I1
I1
I2
I2
I-2
I-1
I-2
tp22
sS'ceda4ceafeb64144.jpg'
p23
(I1
I-2
I1
I-1
I1
I-2
I1
I2
I-1
I-1
I1
I2
I0
I1
I1
I2
I1
I2
I-1
I-1
I1
I2
I2
I1
I1
I2
I2
I2
I-1
I2
I1
I1
I1
I-2
I-2
I-1
I-1
I-2
I2
I2
I2
I2
I2
I2
I2
I2
I-1
I-1
I-1
I-2
I2
I-1
I1
I1
I-2
I-2
I-2
I-2
I-2
I-1
I-1
I-2
I0
I-1
I-1
I2
I2
I1
I-1
I1
I-2
I-2
I-2
I-2
I0
I-2
I-1
I-2
I-2
I-2
I-1
I0
I-1
I-1
I-2
I0
I-2
I-1
I1
I1
I0
I-2
I1
I-1
I-1
I1
I-2
I0
I-1
I1
I-1
I2
I2
I-2
I1
I1
I2
I-2
I1
I2
I1
I2
I-2
I-1
I1
I-2
I-1
I-2
I2
I0
I-1
I1
I-1
I1
I-1
I2
I1
I1
I2
I1
I2
I1
I1
I2
I2
I2
I-1
I1
I1
I-1
I-1
I1
I2
I1
I2
I2
I2
I1
I2
I2
I2
I2
I0
I-1
I-1
I-2
I-2
I0
I0
I1
I1
I1
I-1
I2
I2
I2
I2
I2
I-2
I-2
I-2
I-1
I1
I-1
I1
I2
I-1
I1
I-2
I-2
I-2
I-2
I-2
I-2
I-2
I-2
I0
I-1
I-2
I2
I0
I-1
I-1
I-2
I-1
I-2
I-1
I0
I1
I-1
I-2
I-2
I-2
I-2
I-2
I-2
I-2
I-2
I-2
I-2
I-1
I-2
I0
I2
I0
I-1
I-2
I-2
I-2
I0
I-2
I0
I1
I-2
I-2
I0
I-1
I-2
I1
I-1
I1
I-2
I-1
I-2
I-2
I-1
I-1
I-2
I-2
I1
I2
I1
I-2
I1
I-1
I2
I1
I-1
I0
I-2
I0
I1
I2
I1
I1
I0
I-2
I0
I2
I0
I2
I2
I2
I2
I1
I2
I2
I2
I2
I2
I1
I-1
I-2
I1
I1
I2
I2
I2
I2
I2
I1
I2
I2
I2
I2
I2
I2
I-1
I1
I2
I2
I1
I0
I1
I2
I-1
I-2
I0
I-1
I-1
I2
I2
I2
I2
I2
I2
I2
I2
I2
I2
I-1
I0
I0
I-2
I1
I-1
I-1
I-1
I-1
I-2
I-2
I-1
I-2
I-2
I-2
I-1
I0
I-2
I-1
I2
I1
I0
I1
I1
I-2
I-1
I-2
I-1
I1
I-1
I1
I0
I-2
I-2
I-2
I-1
I-1
I-1
I-1
I1
I-2
I-2
I0
I1
I-1
I0
I2
I-1
I-1
I1
I-2
I1
I-1
I2
I-1
I2
I1
I-2
I1
I0
I2
I-2
I1
I1
I1
I2
I-2
I1
I2
I-1
I0
I1
I1
I1
I1
I2
I0
I0
I1
I1
I0
I0
I1
I-1
I1
I-1
I1
I-1
I-1
I1
I-1
I-1
I1
I-1
I0
I-1
I1
I0
I0
I1
I0
I0
I2
I1
I0
I2
I-1
I-2
I-2
I-2
I-2
I-2
I0
I1
I1
I1
I0
I2
I2
I2
I2
I0
I-2
I-2
I-2
I1
I-2
I-1
I-1
I1
I-2
I-1
I-2
I-1
I-1
I-1
I-1
I-2
I-1
I0
I-1
I0
I1
I1
I0
I0
I1
I0
I0
I1
I1
I0
I1
I1
I0
I1
I-1
I-1
I-1
I-1
I-1
I-1
I-1
I-2
I0
I0
I2
I1
I2
I0
I-2
I-2
I-2
I0
I-2
I-2
I0
I-2
I-2
I-2
I-1
I-2
I-1
I0
I-2
I-2
I-2
I-2
I0
I2
I2
I-1
I-2
I2
I2
I1
I1
I1
I0
I-1
I1
I0
I-1
I-1
I-1
I-1
I0
I0
I1
I1
I1
I-1
I1
I0
I-1
I-1
I2
I2
I2
I1
I0
I2
I2
I2
I0
I0
I2
I2
I1
I0
I-2
I2
I2
I2
tp24
sS'a0d97779ad1e252d.jpg'
p25
(I-2
I-2
I-1
I2
I0
I-1
I1
I2
I0
I1
I1
I2
I2
I-1
I1
I1
I2
I-2
I-1
I-1
I1
I-2
I-1
I1
I-2
I-1
I0
I2
I2
I2
I2
I2
I1
I-2
I1
I2
I-1
I-2
I-1
I-1
I-2
I2
I1
I2
I2
I2
I1
I-1
I-1
I-2
I1
I1
I0
I-2
I-2
I-2
I-1
I-1
I1
I-1
I-2
I-1
I-2
I-2
I-1
I-1
I-2
I-2
I-2
I-2
I2
I2
I1
I2
I1
I1
I1
I-1
I1
I0
I-2
I-1
I2
I-1
I-2
I-1
I-2
I-2
I-2
I-2
I-2
I-2
I-2
I-1
I-1
I1
I1
I2
I-2
I0
I2
I-1
I2
I2
I2
I2
I2
I-2
I-1
I-1
I-1
I-2
I-2
I0
I1
I1
I-2
I1
I-2
I2
I2
I2
I2
I2
I2
I1
I2
I2
I1
I2
I-1
I-2
I-1
I1
I1
I1
I2
I-1
I1
I1
I-1
I2
I1
I-1
I1
I2
I2
I1
I1
I2
I1
I-1
I1
I2
I0
I-1
I2
I-1
I-1
I1
I1
I-2
I-2
I-2
I-2
I-2
I-1
I2
I1
I-2
I2
I1
I2
I1
I-1
I-2
I1
I1
I2
I2
I-1
I2
I2
I2
I2
I1
I-2
I-2
I-1
I-2
I0
I-1
I-2
I-2
I-2
I-1
I-2
I0
I-1
I-2
I-2
I-1
I-1
I-1
I-2
I1
I-2
I-2
I0
I-1
I1
I-1
I1
I2
I-1
I2
I1
I-1
I1
I1
I2
I1
I2
I1
I1
I1
I-1
I1
I-1
I-2
I2
I-1
I-2
I1
I-2
I-2
I-2
I-2
I-2
I-1
I-2
I0
I-2
I-2
I-1
I-2
I1
I0
I-2
I-2
I-2
I-1
I-1
I2
I2
I2
I-1
I-1
I1
I2
I2
I2
I2
I1
I2
I1
I2
I1
I1
I0
I-2
I-2
I-1
I1
I-1
I-2
I1
I-1
I-1
I1
I-1
I1
I0
I2
I1
I-1
I1
I1
I-1
I1
I2
I1
I-1
I2
I2
I1
I2
I2
I1
I-2
I-1
I2
I-2
I-2
I-2
I2
I2
I1
I2
I1
I2
I2
I1
I-1
I1
I2
I1
I-1
I1
I-1
I-1
I-1
I1
I1
I-1
I-1
I-2
I-2
I-1
I-2
I-2
I-2
I-2
I-2
I-1
I1
I-1
I2
I-1
I-1
I0
I-1
I2
I0
I-1
I1
I2
I1
I-1
I1
I-2
I-2
I-2
I-2
I-2
I-2
I-2
I-1
I-1
I-1
I2
I2
I-2
I1
I2
I2
I2
I2
I2
I2
I2
I-2
I-2
I-2
I-2
I-2
I-1
I-1
I-1
I2
I-1
I1
I-2
I1
I1
I1
I2
I1
I0
I-1
I1
I2
I1
I2
I1
I0
I1
I2
I2
I2
I2
I0
I-1
I-1
I-1
I2
I2
I1
I1
I1
I2
I1
I1
I2
I2
I0
I-1
I2
I-1
I-1
I1
I1
I-1
I1
I1
I-2
I-2
I-1
I2
I-2
I-1
I0
I-2
I-2
I-2
I-2
I-2
I2
I-1
I-2
I-1
I1
I2
I2
I1
I2
I2
I2
I2
I2
I-1
I-1
I-2
I-2
I1
I1
I-1
I-1
I-2
I-2
I-2
I-1
I-1
I-2
I-2
I-1
I-2
I-2
I-2
I1
I-1
I-1
I-1
I-2
I-1
I-2
I-1
I1
I-2
I-1
I-1
I1
I0
I1
I2
I2
I2
I1
I2
I0
I-1
I1
I2
I-2
I0
I1
I-2
I-1
I0
I2
I0
I-2
I-1
I1
I-2
I1
I-1
I-2
I-1
I-1
I-2
I-2
I1
I2
I2
I0
I1
I2
I1
I0
I1
I1
I1
I1
I-1
I-1
I2
I1
I-1
I1
I2
I-1
I-2
I-1
I-2
I-2
I0
I2
I2
I2
I2
I1
I1
I-2
tp26
sS'3612baa37023862b.jpg'
p27
(I-1
I1
I-2
I1
I1
I2
I-1
I1
I-1
I-1
I-2
I0
I-1
I1
I0
I1
I0
I2
I0
I1
I0
I2
I1
I-1
I-2
I2
I1
I0
I2
I-2
I2
I2
I1
I2
I-1
I2
I2
I2
I1
I2
I2
I-1
I-2
I-2
I-1
I-2
I1
I1
I2
I2
I2
I1
I0
I0
I-1
I0
I-1
I-2
I-1
I-2
I-2
I-2
I1
I0
I0
I1
I2
I-2
I-2
I2
I-2
I-2
I-2
I-2
I-2
I-2
I-1
I-1
I-1
I-1
I-2
I1
I-1
I1
I1
I-1
I0
I-2
I-2
I1
I-1
I1
I-1
I-1
I-1
I-2
I-2
I1
I-2
I1
I1
I1
I-2
I-2
I2
I2
I2
I1
I-1
I-1
I-1
I-1
I2
I0
I2
I1
I0
I1
I-1
I-2
I0
I2
I2
I0
I0
I0
I-2
I1
I2
I2
I2
I0
I2
I-2
I1
I2
I-2
I1
I-1
I-2
I0
I-2
I-1
I0
I1
I-1
I-1
I0
I-2
I-1
I0
I-2
I1
I1
I-1
I2
I0
I2
I-1
I1
I1
I-1
I-2
I0
I1
I-1
I1
I-1
I-1
I-2
I-1
I1
I-1
I1
I-1
I-1
I1
I-1
I1
I1
I0
I1
I-2
I1
I1
I-2
I2
I2
I2
I2
I2
I2
I-2
I2
I-1
I-1
I2
I-2
I1
I-2
I-1
I-1
I-2
I1
I1
I-1
I1
I-2
I-2
I-1
I0
I0
I-2
I-1
I-2
I-2
I-2
I-2
I2
I1
I1
I2
I2
I1
I-1
I0
I-1
I-1
I-1
I-2
I-2
I-2
I-2
I-2
I1
I1
I2
I-1
I0
I-1
I-1
I-1
I0
I-2
I1
I-1
I-2
I1
I-2
I1
I-2
I-2
I2
I2
I2
I2
I2
I2
I-1
I2
I-2
I1
I2
I-2
I1
I-2
I1
I-1
I1
I2
I2
I-1
I1
I1
I-1
I0
I1
I2
I-1
I-1
I-1
I-2
I-1
I-1
I2
I1
I2
I1
I1
I1
I1
I1
I0
I2
I1
I-1
I1
I1
I0
I-1
I2
I0
I-1
I-1
I-1
I0
I-1
I-2
I-2
I-2
I2
I2
I-2
I2
I-2
I2
I-2
I-2
I2
I1
I2
I2
I2
I-1
I-1
I-1
I-2
I-1
I-1
I-2
I-1
I-2
I-2
I-2
I1
I1
I2
I1
I1
I-2
I-2
I-2
I0
I1
I-1
I-1
I1
I-2
I-2
I-1
I1
I-1
I-1
I-1
I-1
I-2
I-1
I-1
I-1
I0
I1
I1
I-1
I-1
I-1
I-1
I1
I1
I1
I1
I1
I2
I-2
I-2
I-2
I-2
I2
I2
I1
I2
I0
I2
I1
I1
I2
I1
I2
I0
I0
I1
I1
I1
I1
I2
I2
I0
I1
I1
I1
I2
I2
I2
I2
I-1
I2
I1
I1
I-1
I2
I2
I2
I-2
I2
I-2
I-2
I1
I1
I1
I1
I-2
I-1
I-2
I-2
I0
I1
I1
I-1
I1
I1
I-2
I1
I1
I1
I-1
I-1
I0
I1
I2
I-2
I-2
I-2
I2
I2
I-1
I-1
I2
I-1
I1
I2
I2
I-1
I-1
I-1
I1
I1
I2
I2
I2
I-1
I-1
I-1
I-1
I1
I2
I2
I2
I-2
I-1
I2
I-1
I-2
I2
I2
I2
I1
I2
I2
I2
I2
I2
I2
I2
I-1
I2
I2
I-2
I2
I2
I2
I2
I0
I-1
I0
I-2
I1
I2
I2
I2
I-1
I-1
I-1
I2
I2
I2
I-1
I2
I-2
I-2
I-2
I-2
I2
I-2
I-2
I-2
I-2
I-1
I-2
I-2
I-2
I1
I1
I-2
I-2
I-2
I-1
I-1
I-2
I-2
I-2
I1
I1
I-2
I-2
I-2
I-1
I1
I-2
I-2
I-2
I-1
I0
I-2
I-2
I0
tp28
sS'9ed34976dcebb0ba.jpg'
p29
(I0
I-1
I1
I0
I2
I-1
I0
I2
I-2
I2
I-2
I2
I2
I-2
I1
I-1
I-1
I-1
I-1
I1
I-1
I-1
I-1
I-1
I-2
I-2
I-1
I-1
I2
I2
I2
I2
I2
I-2
I2
I0
I2
I2
I-2
I-1
I-1
I1
I1
I1
I2
I2
I-1
I0
I2
I-1
I2
I1
I1
I2
I-2
I-2
I1
I-2
I0
I-2
I1
I2
I-2
I1
I1
I0
I-1
I2
I2
I2
I1
I1
I2
I1
I1
I2
I2
I-2
I1
I1
I-2
I-1
I0
I1
I-2
I-1
I1
I-2
I0
I0
I2
I-2
I-1
I0
I-2
I-2
I1
I-2
I0
I-2
I-2
I-1
I-2
I1
I0
I-2
I-1
I-2
I-1
I0
I-1
I-1
I-2
I-1
I2
I0
I2
I-1
I-1
I2
I-2
I-1
I-2
I-2
I1
I-2
I-2
I-2
I-2
I-2
I-2
I-1
I-1
I-2
I-2
I-1
I-2
I-2
I-1
I1
I-2
I-2
I0
I-2
I2
I2
I2
I2
I2
I2
I2
I2
I1
I1
I2
I-2
I1
I-1
I2
I1
I0
I2
I2
I-1
I2
I2
I0
I1
I1
I1
I-2
I-2
I-1
I1
I1
I0
I-1
I0
I1
I1
I2
I0
I2
I-1
I0
I2
I-2
I2
I2
I-2
I1
I-2
I-1
I1
I2
I2
I2
I-1
I2
I-1
I0
I1
I1
I0
I-2
I-2
I-1
I-1
I-1
I1
I2
I-2
I1
I1
I2
I1
I2
I0
I-2
I-2
I-2
I-2
I-2
I-1
I-2
I-2
I-1
I0
I2
I2
I1
I-1
I0
I2
I-1
I1
I-1
I-1
I1
I1
I1
I1
I0
I1
I0
I0
I2
I-1
I2
I-1
I0
I2
I-2
I1
I1
I-2
I1
I-2
I2
I1
I-1
I0
I1
I-1
I1
I1
I0
I1
I-1
I1
I-1
I-1
I1
I0
I0
I1
I-1
I-2
I1
I-1
I-2
I-2
I-1
I-2
I0
I2
I1
I2
I1
I1
I0
I2
I2
I0
I1
I-1
I2
I-1
I2
I2
I-2
I-1
I-2
I1
I1
I0
I1
I1
I1
I2
I-1
I0
I2
I-1
I2
I0
I1
I2
I-2
I-2
I-1
I-2
I-1
I-2
I2
I2
I-1
I0
I0
I1
I0
I2
I2
I2
I-1
I0
I2
I0
I1
I2
I1
I-2
I-1
I1
I-1
I-1
I-1
I1
I-2
I1
I2
I0
I1
I1
I2
I-1
I1
I2
I-2
I-2
I-1
I-2
I0
I-2
I-2
I-1
I-2
I-1
I0
I-2
I-1
I-1
I0
I1
I-1
I0
I-2
I-1
I2
I-1
I2
I-2
I-1
I1
I-2
I-2
I-2
I-2
I1
I-2
I-2
I-2
I-2
I-2
I-2
I-1
I-1
I-2
I-2
I-2
I-2
I-1
I-1
I1
I-2
I-2
I0
I-1
I2
I2
I1
I2
I2
I2
I2
I2
I-1
I-1
I2
I-2
I1
I-1
I0
I0
I-2
I2
I2
I-1
I0
I-1
I-1
I1
I1
I1
I0
I-1
I0
I1
I2
I1
I-1
I1
I0
I1
I2
I-1
I2
I-1
I0
I2
I-1
I2
I2
I-2
I2
I-2
I2
I1
I2
I2
I2
I-2
I2
I0
I-1
I0
I1
I0
I-2
I-2
I-1
I-2
I-2
I-1
I1
I-2
I1
I1
I1
I-1
I1
I0
I-2
I0
I1
I-1
I0
I0
I-1
I2
I0
I1
I1
I0
I1
I-1
I2
I2
I-1
I0
I-1
I1
I1
I1
I1
I1
I-1
I0
I2
I-1
I2
I-2
I-2
I0
I-2
I-1
I-1
I1
I2
I1
I0
I0
I2
I1
I0
I2
I1
I-1
I0
I-2
I-1
I0
I1
I1
I1
I2
I-2
I-2
I-1
I-2
I0
I-2
I-1
I0
tp30
s.