(dp0
S'94e448ed0d553fd1.jpg'
p1
(I-2
I2
I2
I2
I-1
I2
I2
I2
I1
I-2
I2
I2
I1
I2
I1
I2
I2
I2
I-1
I2
I2
I2
I2
I-2
I0
I1
I1
I-2
I0
I-1
I1
I-2
I-2
I1
I1
I-2
I-1
I2
I-1
I-2
I1
I-2
I-2
I0
I-1
I-2
I-2
I-2
I-2
I0
I-2
I-1
I-2
I-2
I-2
I-2
I-2
I2
I-2
I-2
I-1
I-2
I-1
I-2
I-2
I2
I-1
I1
I-2
I-1
I-2
I-2
I-1
I1
I1
I-2
I0
I0
I-2
I-1
I-1
I-1
I-2
I-1
I-1
I-1
I2
I2
I2
I2
I1
I2
I2
I1
I2
I1
I2
I-1
I2
I2
I1
I1
I-2
I-1
I-2
I-2
I-2
I1
I1
I-2
I-2
I-2
I2
I2
I2
I2
I1
I1
I1
I1
I2
I1
I-1
I-1
I-2
I1
I-1
I-2
I2
I2
I2
I2
I2
I2
I-1
I-1
I1
I0
I1
I-2
I1
I-2
I-2
I-1
I0
I1
I-2
I-1
I-1
I-2
I-1
I-1
I1
I-2
I-2
I1
I-1
I-1
I0
I1
I-2
I-1
I2
I1
I0
I1
I2
I1
I-1
I2
I0
I2
I1
I2
I-1
I1
I2
I-1
I2
I-1
I-1
I-1
I-1
I2
I-1
I-2
I-1
I1
I-2
I1
I-2
I-1
I-1
I-2
I2
I1
I2
I2
I1
I2
I1
I1
I1
I2
I2
I-1
I2
I0
I1
I2
I1
I1
I1
I-2
I0
I-1
I1
I0
I1
I0
I-1
I0
I1
I1
I0
I0
I-1
I-2
I-2
I-1
I-1
I-1
I-1
I1
I-1
I-1
I1
I-1
I1
I-2
I-2
I-2
I1
I1
I1
I1
I1
I2
I-1
I2
I2
I1
I2
I1
I-2
I1
I-2
I2
I2
I2
I2
I-1
I0
I2
I1
I2
I2
I2
I-1
I-1
I1
I-1
I1
I2
I2
I2
I-2
I-1
I-1
I-1
I-1
I1
I1
I-2
I0
I0
I1
I1
I0
I2
I-2
I1
I0
I1
I1
I0
I2
I-2
I1
I1
I-1
I-1
I-2
I-1
I-1
I-1
I-2
I-1
I-2
I-2
I-1
I-2
I-2
I1
I-2
I-2
I-2
I-1
I-1
I-2
I-2
I2
I1
I0
I1
I-2
I-2
I-2
I-2
I-1
I-2
I1
I-2
I-2
I-2
I-2
I-1
I2
I1
I-1
I0
I-1
I-2
I-1
I-2
I-1
I-2
I-1
I-1
I0
I2
I2
I2
I2
I2
I2
I2
I2
I-1
I-1
I1
I-2
I1
I1
I1
I0
I-1
I1
I-1
I0
I-1
I2
I1
I-1
I-1
I0
I2
I2
I0
I1
I1
I-1
I1
I-2
I1
I-1
I-1
I-1
I-2
I-1
I-2
I-2
I2
I2
I1
I2
I1
I-1
I-2
I-2
I2
I0
I1
I-1
I-1
I-2
I-2
I-1
I1
I1
I-2
I1
I1
I-2
I-1
I0
I0
I-2
I-1
I-1
I-1
I-2
I-1
I-2
I-2
I-1
I0
I1
I-1
I-1
I-2
I-1
I0
I1
I1
I-1
I0
I1
I1
I1
I2
I2
I0
I-1
I1
I-1
I-2
I2
I1
I-2
I2
I2
I1
I2
I-2
I2
I2
I0
I2
I2
I2
I2
I-1
I2
I2
I1
I2
I2
I2
I1
I2
I2
I2
I2
I1
I1
I2
I-2
I1
I-1
I0
I-1
I0
I1
I1
I-1
I-2
I-1
I-2
I-2
I2
I2
I1
I2
I1
I-1
I-1
I2
I1
I0
I-1
I-2
I2
I-2
I-2
I-1
I-2
I-1
I-2
I1
I-2
I2
I-2
I-2
I2
I-2
I0
I-2
I-2
I2
I-1
I-1
I-2
I1
I1
I1
I-2
I0
I1
I-1
I-1
I1
I2
I1
I1
I-1
I2
I1
I2
I1
I2
I-2
I-2
I-2
tp2
sS'df0902e9080f07da.jpg'
p3
(I1
I2
I2
I-1
I2
I2
I1
I1
I-2
I-1
I-2
I-2
I1
I1
I2
I-2
I1
I1
I-2
I0
I0
I-1
I1
I0
I-1
I-1
I1
I-1
I1
I2
I2
I1
I-1
I-2
I1
I-1
I-2
I-2
I-1
I-2
I-2
I-2
I-2
I-1
I-2
I-2
I-2
I-1
I2
I1
I-1
I-2
I-1
I2
I-1
I2
I2
I1
I2
I-1
I2
I2
I-1
I-1
I0
I-2
I-1
I-2
I-2
I-2
I-1
I1
I1
I1
I2
I-1
I-1
I1
I-1
I-1
I-2
I-2
I-2
I-2
I-2
I-2
I1
I-1
I1
I2
I-1
I0
I-1
I-2
I1
I2
I2
I1
I-1
I-1
I-2
I-2
I2
I2
I1
I-2
I-2
I2
I2
I2
I2
I2
I2
I1
I1
I-2
I2
I1
I2
I2
I-2
I-2
I2
I-2
I-1
I-1
I0
I-1
I-2
I2
I1
I1
I1
I1
I0
I1
I2
I1
I2
I-1
I1
I-1
I1
I1
I-1
I2
I0
I-1
I-1
I-1
I1
I1
I2
I1
I1
I1
I-2
I2
I2
I0
I2
I2
I2
I2
I-1
I2
I2
I2
I2
I2
I1
I2
I2
I-2
I-1
I2
I1
I0
I-2
I-2
I1
I-2
I1
I-2
I-2
I2
I-2
I0
I-1
I-1
I-1
I-2
I1
I0
I1
I0
I1
I1
I1
I2
I1
I1
I-1
I-1
I1
I-1
I1
I0
I1
I1
I-1
I-1
I-2
I-1
I1
I-1
I0
I1
I-1
I-2
I-2
I-1
I-2
I-1
I0
I1
I0
I-2
I-2
I2
I2
I2
I2
I2
I-2
I-2
I-2
I-1
I0
I-1
I2
I-1
I-1
I-1
I0
I2
I2
I1
I2
I1
I1
I1
I-2
I-1
I-2
I-2
I-1
I-2
I-2
I1
I0
I-1
I0
I1
I1
I-2
I2
I1
I-1
I-1
I1
I-1
I1
I2
I1
I2
I-1
I0
I1
I-1
I1
I1
I2
I-1
I-1
I0
I-2
I-1
I1
I1
I-1
I-2
I-1
I-2
I1
I-1
I0
I-2
I-2
I-2
I-2
I0
I0
I-2
I-2
I1
I-1
I0
I-2
I2
I1
I-1
I2
I0
I1
I-2
I2
I2
I-1
I2
I2
I-1
I2
I1
I2
I2
I-1
I-2
I-2
I-2
I-1
I-1
I-2
I-2
I-2
I-1
I-1
I1
I2
I-1
I-1
I0
I-2
I-2
I-1
I-2
I-2
I-2
I-2
I-2
I1
I1
I2
I2
I-2
I1
I-2
I-2
I2
I2
I2
I2
I1
I2
I1
I1
I2
I2
I-1
I-1
I0
I2
I2
I2
I2
I2
I-2
I-2
I-1
I-2
I2
I-2
I-2
I2
I-2
I-2
I1
I-2
I-1
I-2
I-1
I-2
I-2
I2
I1
I1
I0
I1
I-1
I1
I2
I1
I2
I0
I1
I-1
I1
I1
I0
I2
I-1
I-1
I-2
I-1
I-1
I-1
I2
I2
I-2
I2
I-2
I2
I2
I-1
I2
I-1
I1
I2
I1
I2
I2
I2
I-1
I0
I-1
I1
I2
I-2
I2
I1
I2
I-1
I-2
I2
I2
I-1
I2
I2
I-1
I2
I-2
I1
I-1
I-2
I-2
I-2
I-1
I-1
I2
I1
I1
I2
I2
I1
I1
I1
I-1
I-1
I1
I-2
I1
I-1
I-1
I1
I-1
I1
I-2
I-1
I0
I-2
I1
I1
I1
I-2
I-2
I0
I-2
I1
I1
I1
I1
I-2
I-1
I2
I2
I2
I2
I2
I-2
I-2
I-2
I-1
I-1
I-2
I-2
I-2
I1
I1
I2
I2
I2
I-2
I1
I-1
I-2
I0
I1
I-1
I1
I0
I0
I-1
I1
I2
I0
I2
I-1
I-1
I-1
I-2
I1
I-1
I-1
I-2
I-1
I-1
I-1
I-2
I1
I1
I0
I-2
I1
I0
tp4
s.