(dp0
S'c1bbb9b20801d38b.jpg'
p1
(I1
I-1
I-2
I-1
I-1
I-2
I-2
I-2
I1
I1
I-2
I-2
I-2
I-1
I-2
I-2
I-2
I-2
I2
I1
I0
I-2
I1
I-1
I-2
I-2
I-1
I-2
I2
I-1
I1
I-1
I-2
I1
I-1
I1
I-1
I1
I1
I1
I1
I1
I2
I-1
I0
I-1
I2
I2
I2
I1
I-2
I1
I-1
I-1
I2
I2
I2
I2
I2
I1
I1
I2
I2
I2
I0
I-2
I-2
I-1
I-1
I-2
I2
I2
I2
I2
I2
I2
I0
I-1
I-1
I1
I-1
I-2
I-2
I-2
I-2
I-2
I2
I1
I-1
I2
I-1
I-1
I-2
I1
I2
I1
I-1
I1
I1
I-1
I1
I0
I-1
I-1
I-1
I1
I-1
I0
I-1
I-1
I-1
I2
I1
I1
I-1
I1
I1
I1
I2
I2
I1
I-1
I1
I-1
I1
I2
I2
I2
I-2
I1
I-2
I-1
I-2
I2
I2
I2
I2
I0
I2
I2
I-1
I2
I2
I2
I1
I2
I1
I1
I-1
I2
I2
I2
I2
I1
I1
I1
I2
I2
I2
I2
I-1
I-1
I-1
I-2
I-1
I2
I1
I-2
I0
I1
I1
I2
I-2
I1
I-1
I2
I1
I2
I-2
I-2
I-2
I-2
I-2
I-2
I-1
I-2
I-2
I-2
I-2
I2
I1
I1
I0
I1
I-2
I-2
I-2
I-1
I-2
I-1
I-1
I-2
I-2
I-2
I-2
I2
I-1
I1
I0
I1
I-2
I-2
I-2
I1
I2
I1
I1
I-1
I-2
I-2
I-2
I-2
I-2
I-1
I-2
I-2
I-2
I-1
I-2
I2
I-2
I-1
I-1
I-1
I2
I2
I2
I2
I2
I-1
I2
I2
I-1
I-2
I-2
I1
I-1
I-2
I-1
I-2
I-2
I-2
I2
I0
I1
I1
I1
I-2
I-2
I-2
I-1
I1
I-1
I-1
I-2
I-2
I-2
I-2
I2
I0
I-1
I2
I1
I-1
I-2
I-2
I-1
I-1
I1
I-1
I-2
I-2
I-2
I-2
I1
I2
I1
I2
I-1
I-1
I-1
I-1
I2
I1
I-2
I1
I0
I-1
I-1
I-1
I1
I-2
I0
I-1
I-1
I1
I2
I-1
I0
I1
I2
I2
I2
I1
I-1
I1
I2
I2
I2
I2
I2
I1
I1
I2
I2
I2
I2
I2
I1
I-1
I-1
I2
I2
I0
I2
I2
I2
I1
I1
I2
I1
I2
I2
I2
I1
I-1
I-1
I1
I2
I1
I2
I1
I1
I1
I-1
I2
I1
I0
I1
I1
I1
I1
I0
I1
I1
I-1
I1
I1
I0
I1
I-1
I0
I-1
I1
I1
I2
I-1
I-2
I-2
I-1
I0
I-1
I2
I1
I-2
I-2
I-2
I0
I0
I2
I1
I1
I-2
I-2
I-2
I0
I-2
I1
I1
I-2
I0
I-1
I-1
I2
I1
I2
I0
I2
I-2
I-2
I-2
I-1
I-1
I-1
I1
I2
I-1
I-1
I-1
I1
I-1
I2
I2
I1
I0
I-1
I-1
I1
I-2
I2
I1
I-2
I1
I1
I2
I2
I-1
I-1
I1
I2
I-1
I1
I-2
I-2
I-2
I-2
I-1
I-2
I-2
I-2
I-1
I-1
I-1
I1
I1
I-1
I-2
I0
I-1
I-1
I-2
I-1
I-2
I-2
I-1
I-2
I2
I0
I1
I2
I2
I2
I1
I2
I-2
I-1
I-2
I-2
I1
I-1
I1
I-2
I-2
I-2
I-2
I-1
I-2
I-1
I-2
I-2
I-1
I-1
I-2
I2
I-2
I-1
I-1
I-1
I2
I1
I2
I2
I2
I1
I2
I1
I-1
I2
I1
I-1
I-1
I2
I2
I2
I1
I1
I0
I1
I-2
I-1
I-1
I2
I-1
I1
I1
I2
I-2
I-1
I1
I-2
I-2
I2
I2
I1
I2
I1
I2
I1
I-2
I-1
I-1
I1
I-2
I1
tp2
sS'fae13d58e60d39ca.jpg'
p3
(I-2
I1
I-1
I2
I0
I2
I1
I1
I0
I-2
I1
I1
I-2
I2
I1
I2
I1
I2
I-1
I1
I0
I2
I1
I-1
I-1
I2
I0
I2
I1
I2
I1
I2
I2
I-2
I1
I2
I2
I2
I-1
I1
I2
I-1
I-2
I-2
I1
I-1
I1
I-1
I-1
I2
I1
I2
I1
I-1
I-1
I-1
I-2
I-1
I-2
I1
I-2
I-2
I2
I-1
I0
I2
I2
I1
I0
I1
I-2
I-2
I-2
I-2
I-2
I-2
I-1
I-2
I-1
I0
I-1
I2
I2
I1
I1
I0
I-2
I-2
I-2
I-2
I-1
I-2
I-2
I-2
I-2
I-2
I-1
I1
I1
I-2
I-1
I0
I-2
I-2
I-1
I-2
I-1
I-1
I-2
I-1
I-1
I-2
I1
I-1
I-1
I1
I-2
I1
I-2
I-2
I1
I2
I-1
I2
I-1
I1
I-1
I-2
I2
I0
I2
I1
I2
I0
I-1
I0
I-1
I1
I-1
I-2
I-1
I-2
I-2
I-2
I2
I-1
I2
I1
I-1
I-1
I-2
I-2
I0
I2
I2
I1
I1
I-2
I-2
I-1
I2
I1
I2
I-1
I1
I-2
I-2
I2
I0
I1
I-1
I-2
I1
I1
I-1
I-2
I0
I-2
I2
I2
I-1
I2
I-2
I2
I-1
I-1
I2
I1
I0
I2
I-1
I1
I1
I0
I2
I1
I2
I1
I1
I1
I1
I1
I0
I2
I1
I-1
I-1
I0
I1
I1
I2
I2
I1
I1
I-1
I1
I2
I1
I2
I2
I2
I1
I2
I2
I2
I2
I1
I2
I2
I-2
I2
I1
I2
I2
I-2
I-1
I-2
I-2
I-1
I0
I-2
I-2
I1
I-2
I2
I1
I-1
I2
I-1
I2
I1
I1
I1
I-1
I-1
I1
I-1
I2
I1
I0
I0
I-1
I0
I1
I0
I2
I1
I2
I-1
I-1
I-1
I0
I1
I1
I2
I-1
I-1
I-2
I-2
I-1
I-1
I2
I-1
I2
I-1
I-2
I-1
I1
I2
I0
I2
I2
I-2
I-2
I2
I-2
I1
I2
I1
I2
I-2
I1
I-1
I0
I2
I-1
I-2
I-2
I-1
I-2
I2
I-1
I-2
I2
I-1
I2
I1
I-2
I-1
I-1
I-2
I1
I-2
I1
I-2
I-2
I0
I-1
I-1
I2
I2
I-1
I-2
I-1
I-2
I-2
I-2
I-2
I-2
I-2
I-2
I-2
I1
I1
I0
I2
I2
I1
I0
I-1
I-2
I-2
I-2
I-2
I-1
I-2
I-2
I-2
I-2
I-1
I0
I1
I2
I-2
I-2
I1
I-2
I-2
I-2
I-2
I-1
I1
I-2
I-2
I-1
I-2
I2
I-1
I-1
I2
I-2
I1
I-1
I-2
I2
I2
I1
I2
I-1
I2
I1
I0
I2
I2
I2
I1
I2
I2
I1
I1
I1
I2
I-1
I-2
I-1
I-1
I-1
I-1
I2
I0
I2
I1
I-1
I0
I-1
I-1
I1
I2
I2
I1
I2
I1
I0
I2
I2
I2
I2
I-2
I2
I-2
I0
I2
I-1
I1
I-2
I-2
I-1
I1
I-1
I-2
I1
I-2
I2
I1
I-2
I2
I-1
I2
I0
I0
I2
I-1
I-2
I1
I-1
I1
I1
I-1
I0
I-1
I1
I1
I0
I2
I1
I1
I-1
I1
I0
I0
I-1
I1
I1
I1
I1
I1
I-1
I1
I-1
I1
I2
I2
I1
I0
I2
I1
I2
I2
I2
I2
I-2
I0
I2
I-2
I2
I1
I1
I2
I-2
I1
I-2
I-2
I1
I-1
I-2
I-2
I2
I0
I-1
I2
I0
I0
I-1
I-2
I0
I-1
I1
I-1
I-1
I1
I1
I-1
I-1
I-1
I-1
I1
I-1
I-2
I-2
I-1
I-1
I-2
I-2
I-1
I1
I1
I-2
I-1
I1
I-1
I2
I-2
I-1
I-2
tp4
sS'6889c2ceb0b6e4e0.jpg'
p5
(I-2
I1
I-1
I2
I-1
I2
I1
I1
I1
I-1
I2
I2
I-1
I1
I-1
I2
I1
I2
I1
I1
I2
I2
I2
I-1
I-1
I2
I1
I2
I1
I2
I2
I2
I2
I-2
I1
I2
I2
I2
I-1
I1
I1
I-1
I-2
I-2
I1
I-1
I1
I-1
I-2
I2
I1
I2
I1
I-2
I-1
I-2
I-2
I-1
I-2
I1
I-2
I-2
I1
I-1
I-2
I2
I1
I1
I-1
I0
I-2
I-2
I-2
I-1
I-1
I-2
I-1
I-1
I-2
I-1
I-2
I1
I2
I0
I1
I-1
I-2
I-2
I-2
I-2
I-1
I-2
I-2
I-2
I-2
I-2
I-1
I1
I0
I-2
I-2
I-1
I-2
I-1
I0
I-2
I-1
I-1
I-2
I-1
I-1
I-2
I1
I-1
I-1
I1
I-2
I1
I-2
I-2
I1
I2
I-1
I2
I-2
I1
I-1
I-2
I2
I1
I2
I2
I1
I1
I0
I-1
I0
I1
I0
I-1
I1
I-1
I-2
I-2
I1
I-1
I2
I-1
I-1
I-2
I-2
I-2
I1
I2
I2
I1
I1
I-1
I-2
I-1
I2
I2
I2
I-1
I2
I-2
I-2
I2
I1
I1
I-2
I-2
I1
I1
I-1
I-2
I0
I-2
I2
I2
I-1
I2
I-2
I2
I-1
I-1
I2
I1
I-1
I2
I-1
I1
I1
I-1
I2
I0
I1
I1
I-1
I2
I1
I0
I1
I2
I2
I1
I1
I1
I1
I2
I2
I2
I1
I-1
I-2
I1
I2
I1
I2
I2
I2
I2
I2
I2
I2
I2
I1
I2
I2
I-2
I2
I1
I2
I2
I-2
I-1
I-2
I-1
I-1
I0
I-2
I-2
I1
I-1
I2
I1
I-1
I2
I-1
I2
I1
I1
I1
I-1
I-2
I1
I-1
I2
I2
I-1
I1
I-1
I-1
I1
I0
I2
I1
I2
I0
I-1
I-1
I0
I1
I1
I2
I0
I-2
I-2
I-2
I-1
I-1
I2
I-1
I2
I-1
I-2
I-1
I1
I2
I1
I2
I2
I-2
I-2
I1
I-2
I1
I2
I1
I2
I-2
I1
I-1
I1
I1
I-1
I-2
I-2
I-1
I-2
I1
I-1
I-2
I2
I0
I1
I1
I-2
I-1
I-2
I-2
I0
I-2
I1
I-2
I-2
I1
I-1
I-1
I2
I2
I0
I-2
I-1
I-2
I-2
I-2
I-2
I-2
I-2
I-2
I-2
I0
I1
I-1
I2
I2
I1
I0
I-2
I-2
I-2
I-2
I-2
I-1
I-2
I-2
I-2
I-2
I-1
I-1
I1
I1
I-2
I-2
I-1
I-2
I-1
I-1
I-2
I-1
I1
I-1
I-1
I-1
I-2
I2
I-1
I-1
I1
I-2
I1
I-2
I-2
I2
I2
I0
I2
I-2
I1
I1
I-1
I2
I2
I2
I2
I2
I2
I1
I1
I1
I2
I-1
I-2
I-1
I-1
I-1
I-1
I2
I0
I2
I1
I-2
I-1
I-1
I-2
I2
I2
I2
I2
I1
I1
I-1
I2
I2
I2
I2
I-1
I2
I-2
I1
I2
I1
I1
I-2
I-2
I0
I1
I-1
I-2
I0
I-2
I2
I2
I-1
I2
I-1
I2
I1
I1
I2
I-1
I-2
I1
I-2
I1
I1
I-1
I1
I-1
I1
I2
I0
I2
I1
I1
I-1
I1
I1
I0
I-1
I1
I1
I1
I1
I1
I-1
I1
I-1
I2
I2
I2
I2
I1
I2
I1
I2
I2
I2
I2
I-2
I-1
I2
I-2
I2
I1
I1
I2
I-2
I0
I-2
I-1
I1
I0
I-2
I-2
I2
I-1
I-1
I2
I1
I-1
I-1
I-2
I-1
I-2
I1
I-1
I-1
I2
I1
I-1
I-1
I-2
I-1
I0
I-1
I-2
I-2
I0
I1
I-2
I-2
I-1
I-1
I1
I-2
I-1
I1
I-1
I2
I-2
I-1
I-2
tp6
sS'4462a87a35ef0af5.jpg'
p7
(I-2
I-2
I0
I2
I2
I1
I2
I2
I-2
I1
I-1
I1
I0
I-1
I-1
I-1
I-1
I-2
I1
I0
I-1
I-2
I-1
I0
I-2
I-2
I-1
I-1
I2
I-2
I1
I1
I1
I2
I1
I2
I2
I2
I-1
I2
I1
I2
I-1
I2
I2
I2
I0
I-2
I1
I-2
I2
I2
I2
I1
I-2
I-1
I1
I-2
I-1
I1
I-1
I-1
I0
I1
I1
I1
I-2
I1
I-1
I-1
I2
I2
I2
I2
I2
I2
I1
I1
I1
I1
I-1
I-2
I-1
I-1
I-1
I-1
I1
I-1
I-2
I1
I0
I-1
I1
I2
I-1
I-2
I-2
I0
I-2
I0
I2
I2
I-2
I-1
I2
I2
I2
I-2
I-2
I0
I-2
I-2
I-2
I-2
I-1
I0
I-2
I-2
I-2
I-2
I-1
I1
I-1
I2
I-1
I-2
I1
I2
I1
I1
I-2
I1
I-1
I1
I2
I2
I1
I-1
I1
I1
I0
I2
I2
I1
I-1
I1
I1
I0
I1
I2
I1
I1
I1
I-1
I0
I-1
I2
I1
I-1
I-1
I-2
I-2
I-2
I-2
I0
I-2
I-2
I-2
I-2
I-2
I0
I-2
I-2
I2
I2
I1
I2
I1
I2
I2
I2
I-1
I2
I1
I-1
I2
I2
I-1
I-1
I-2
I2
I-2
I-1
I1
I-2
I-2
I-2
I-2
I-1
I-2
I-1
I-2
I-2
I-2
I-2
I1
I-2
I-1
I-2
I-2
I-1
I-1
I-1
I2
I-1
I-1
I-1
I-1
I-1
I1
I2
I1
I0
I1
I1
I-2
I1
I2
I2
I0
I-2
I1
I-2
I-2
I2
I2
I2
I1
I0
I-2
I-1
I-2
I2
I1
I-1
I1
I2
I2
I2
I2
I2
I2
I-2
I1
I2
I-2
I1
I0
I1
I-1
I-1
I1
I1
I-1
I-1
I-1
I-1
I-2
I2
I2
I1
I1
I1
I1
I-2
I0
I2
I1
I-1
I-1
I-1
I-2
I-1
I-2
I1
I-1
I-1
I1
I-2
I1
I-1
I0
I2
I2
I-1
I2
I-1
I2
I2
I2
I2
I0
I1
I2
I2
I-2
I-2
I0
I0
I0
I-1
I-2
I0
I0
I1
I1
I0
I1
I-2
I-1
I1
I-1
I-1
I-1
I-1
I1
I1
I1
I-1
I1
I-2
I1
I1
I-1
I2
I2
I2
I2
I2
I2
I1
I2
I0
I1
I-1
I-2
I-1
I0
I0
I-1
I2
I1
I-2
I1
I1
I1
I1
I2
I0
I-2
I-2
I-1
I1
I-1
I1
I0
I-2
I-2
I-1
I1
I-1
I0
I-1
I0
I-2
I-2
I0
I0
I1
I0
I0
I-2
I-2
I-1
I-1
I1
I-1
I0
I1
I-2
I-1
I2
I-1
I-1
I-2
I-1
I-2
I-2
I1
I1
I1
I-1
I0
I2
I0
I2
I2
I2
I-2
I0
I-1
I0
I-1
I2
I2
I-1
I1
I-1
I1
I1
I2
I2
I0
I-1
I-2
I-1
I-1
I-2
I-1
I-2
I-2
I-2
I0
I1
I1
I-2
I-2
I2
I2
I1
I0
I1
I2
I2
I2
I-1
I1
I-1
I0
I2
I1
I1
I2
I-1
I2
I-1
I1
I1
I-2
I-1
I-2
I-2
I0
I-2
I-1
I-2
I-1
I-2
I-2
I0
I-1
I-1
I-2
I-2
I-2
I-2
I-2
I1
I-2
I-2
I-1
I-1
I1
I0
I2
I2
I-1
I1
I2
I-1
I1
I2
I2
I1
I-2
I2
I0
I-2
I2
I2
I2
I2
I0
I0
I1
I1
I-1
I0
I1
I-1
I2
I-2
I-1
I2
I-2
I1
I-2
I1
I1
I-1
I-2
I2
I2
I2
I2
I2
I2
I1
I-1
I-2
I1
I1
I-2
I-2
I-1
I-2
I1
I0
I-2
I2
I-2
I2
I0
I2
tp8
sS'e856e5ea6fcff7db.jpg'
p9
(I0
I1
I1
I0
I2
I1
I1
I2
I-2
I-2
I-2
I-2
I-2
I2
I2
I2
I2
I2
I-2
I2
I1
I2
I1
I-2
I-1
I-1
I-2
I0
I1
I1
I-1
I1
I1
I-1
I1
I-1
I-1
I1
I-1
I-2
I0
I-1
I-1
I-1
I-2
I1
I-1
I-1
I2
I1
I1
I-1
I1
I-2
I-2
I2
I-2
I-1
I0
I0
I-2
I1
I2
I-2
I-1
I0
I1
I-2
I1
I1
I-2
I-2
I1
I-1
I-2
I-1
I-1
I2
I-1
I2
I1
I2
I2
I1
I2
I1
I0
I-1
I1
I-2
I-1
I1
I-1
I1
I-1
I1
I2
I1
I2
I-1
I1
I2
I-1
I0
I-2
I-1
I2
I2
I1
I2
I1
I1
I-1
I-1
I0
I-2
I-2
I-2
I-1
I-1
I2
I2
I2
I2
I2
I1
I2
I0
I-1
I-1
I1
I-2
I-1
I-2
I-2
I-2
I-1
I1
I-1
I1
I2
I-2
I-1
I1
I-2
I-2
I-1
I-2
I-2
I-2
I-2
I-2
I-1
I1
I1
I2
I2
I1
I-1
I2
I-1
I-1
I1
I-2
I2
I-2
I0
I1
I-2
I-2
I-2
I-2
I-1
I-1
I2
I0
I-1
I1
I-1
I1
I-1
I0
I1
I-1
I1
I2
I1
I-2
I2
I-1
I-1
I0
I2
I-2
I0
I2
I2
I1
I1
I2
I-2
I1
I2
I1
I2
I-1
I2
I-2
I-1
I1
I-1
I2
I-1
I-2
I-2
I-2
I-1
I-1
I2
I1
I2
I2
I2
I1
I2
I2
I-2
I0
I2
I-2
I1
I-2
I0
I1
I-1
I1
I-1
I-1
I1
I1
I1
I1
I2
I2
I-1
I-1
I0
I-1
I2
I2
I1
I2
I-2
I-2
I-2
I-2
I-2
I-1
I2
I0
I2
I2
I2
I2
I2
I2
I2
I2
I-1
I1
I2
I-2
I1
I2
I2
I2
I-1
I1
I-1
I-2
I1
I1
I1
I1
I1
I-2
I2
I-1
I2
I1
I1
I1
I-2
I0
I1
I-2
I1
I-1
I-1
I2
I-1
I-1
I-1
I-2
I1
I-2
I-2
I-1
I-1
I-1
I-2
I-1
I1
I1
I2
I-1
I0
I-1
I-2
I-2
I-2
I-2
I-1
I-2
I-2
I-1
I0
I-2
I-2
I1
I1
I-2
I1
I-2
I-2
I-2
I-1
I-1
I1
I1
I-2
I1
I-2
I-1
I-1
I-1
I0
I-2
I1
I1
I-1
I-1
I1
I0
I1
I1
I1
I0
I-1
I1
I2
I-1
I2
I0
I0
I2
I-2
I-1
I-2
I-2
I0
I1
I1
I1
I-2
I-2
I1
I0
I2
I-1
I-1
I-2
I-2
I1
I1
I2
I2
I1
I2
I-2
I2
I-1
I1
I-1
I-1
I-2
I-2
I-1
I-2
I-2
I2
I2
I2
I2
I2
I-1
I1
I2
I-1
I-1
I-1
I-2
I-1
I-2
I-1
I-2
I-1
I-1
I0
I1
I-1
I-1
I-2
I-1
I0
I0
I2
I1
I2
I-2
I0
I1
I-2
I0
I-2
I-2
I-2
I2
I2
I0
I-1
I2
I2
I2
I2
I0
I2
I-1
I2
I2
I-1
I-2
I1
I-2
I-2
I-2
I-2
I-2
I1
I2
I1
I2
I2
I1
I-1
I2
I2
I-1
I2
I-2
I1
I-2
I0
I-1
I-2
I1
I1
I-1
I-2
I-1
I-2
I0
I2
I2
I2
I2
I2
I0
I2
I2
I1
I0
I2
I-2
I1
I-1
I-1
I1
I-1
I2
I-1
I-2
I1
I1
I1
I2
I-2
I-2
I2
I-2
I1
I-2
I2
I-1
I-1
I-1
I2
I1
I2
I1
I2
I-2
I0
I1
I-2
I-1
I1
I2
I0
I1
I2
I0
I-2
I1
I-2
I0
I-2
I1
I2
I0
I2
I-1
I-1
I-2
tp10
sS'7a4921ffae1bd89c.jpg'
p11
(I2
I2
I2
I-2
I-1
I-2
I2
I1
I1
I2
I2
I1
I2
I-2
I1
I-2
I-1
I0
I-1
I-2
I-1
I-1
I-2
I2
I1
I2
I1
I1
I-1
I-2
I0
I-1
I0
I2
I1
I2
I2
I1
I-1
I2
I-1
I-2
I2
I2
I2
I2
I-2
I-2
I-2
I-2
I-1
I-2
I1
I2
I-1
I-1
I2
I1
I1
I2
I2
I2
I-2
I1
I1
I-1
I1
I2
I2
I1
I0
I1
I-2
I-1
I-1
I2
I1
I1
I2
I-1
I0
I1
I-1
I2
I2
I-1
I-1
I1
I-2
I1
I1
I2
I0
I-2
I0
I-2
I-2
I-1
I-2
I-1
I-2
I-2
I-1
I1
I2
I1
I-1
I-2
I2
I2
I-1
I0
I-2
I-1
I-2
I-2
I1
I-2
I-2
I-2
I-2
I-2
I-2
I-1
I1
I-2
I-2
I-2
I-2
I-2
I-2
I-1
I-1
I-2
I-2
I-2
I-1
I-1
I-2
I1
I1
I-1
I-1
I-1
I-1
I-2
I-2
I-1
I-2
I-1
I-1
I-2
I1
I0
I1
I2
I-2
I1
I-2
I-1
I2
I2
I-1
I2
I-1
I0
I1
I1
I2
I1
I1
I2
I2
I1
I2
I1
I-1
I1
I0
I2
I2
I-1
I0
I-2
I-1
I-1
I2
I2
I2
I0
I2
I-1
I-1
I1
I2
I2
I1
I-2
I1
I-2
I-1
I-1
I2
I1
I1
I-1
I0
I-2
I-1
I-2
I1
I1
I-2
I0
I-2
I-1
I-2
I1
I2
I2
I0
I2
I1
I0
I2
I-1
I1
I-1
I-2
I-1
I0
I2
I-1
I-1
I-1
I-2
I0
I-1
I-1
I1
I2
I2
I2
I2
I-1
I1
I1
I-2
I-1
I0
I2
I2
I1
I1
I2
I1
I1
I2
I2
I2
I-1
I1
I2
I-1
I1
I1
I2
I2
I1
I1
I1
I-1
I-2
I1
I1
I1
I2
I2
I0
I2
I2
I2
I2
I0
I-1
I-2
I-2
I-2
I-2
I-1
I-2
I-1
I1
I1
I1
I2
I1
I1
I2
I-1
I1
I1
I-1
I2
I-2
I-2
I0
I2
I-1
I2
I-2
I-2
I-2
I-2
I-1
I-2
I-1
I1
I-2
I-2
I-1
I1
I1
I1
I2
I1
I-2
I-2
I-1
I-1
I1
I1
I0
I0
I-2
I-1
I-2
I-1
I-1
I-1
I-1
I-1
I-1
I-2
I1
I1
I-2
I1
I-1
I-2
I0
I2
I-1
I2
I2
I2
I-1
I-1
I1
I-2
I-2
I-2
I-2
I-2
I-2
I-2
I1
I2
I2
I2
I-1
I1
I2
I2
I-1
I2
I-2
I1
I-1
I-2
I1
I-2
I-2
I-2
I-1
I-2
I-1
I-1
I-1
I-2
I-2
I0
I-1
I0
I1
I1
I0
I-2
I1
I1
I0
I1
I-1
I0
I-1
I1
I1
I-1
I1
I1
I-2
I1
I-2
I2
I1
I-2
I2
I1
I2
I2
I1
I2
I1
I1
I1
I2
I-2
I-1
I-2
I0
I1
I-1
I2
I1
I2
I2
I2
I1
I2
I2
I0
I2
I-2
I2
I2
I-2
I-1
I-2
I-1
I-1
I2
I2
I2
I1
I2
I1
I0
I-1
I0
I-1
I-1
I-2
I0
I-2
I-2
I-2
I-1
I-1
I-2
I0
I-2
I-2
I-2
I-2
I1
I-1
I-2
I2
I-2
I-2
I-1
I1
I2
I-1
I0
I2
I1
I1
I2
I1
I-1
I-1
I-2
I-1
I-1
I2
I1
I1
I1
I-2
I1
I2
I2
I0
I2
I2
I-2
I1
I-1
I-2
I-1
I1
I0
I2
I1
I-1
I1
I2
I2
I1
I1
I2
I2
I2
I-1
I1
I2
I1
I-1
I-1
I2
I-1
I-2
I-2
I-2
I-2
I-1
I-1
I-2
I1
I-1
I-1
I-2
I1
tp12
sS'611fe63541e6efa3.jpg'
p13
(I2
I-1
I2
I-2
I-2
I-2
I-1
I-1
I2
I1
I2
I2
I2
I-1
I0
I1
I2
I1
I0
I-1
I2
I1
I2
I1
I-2
I2
I2
I2
I2
I2
I2
I2
I1
I-2
I-1
I2
I-2
I-1
I1
I-1
I-1
I1
I2
I2
I1
I2
I-2
I1
I-2
I-2
I0
I-2
I0
I2
I1
I-2
I-1
I0
I1
I0
I2
I1
I-2
I-2
I-2
I-1
I-1
I1
I0
I1
I-1
I-1
I-2
I1
I2
I1
I2
I2
I-2
I-2
I-2
I-2
I-1
I1
I1
I-2
I-2
I-2
I-2
I1
I-2
I2
I-1
I-2
I-1
I2
I1
I2
I1
I2
I2
I-1
I1
I1
I-1
I1
I-1
I-1
I2
I2
I-1
I2
I-2
I0
I0
I-2
I2
I-2
I-1
I-1
I-2
I-2
I-1
I-2
I-1
I-2
I-2
I1
I-1
I0
I-1
I1
I1
I-2
I1
I-2
I-1
I-2
I-1
I-1
I-1
I-1
I-2
I-2
I-2
I-1
I-2
I1
I-2
I-2
I-2
I-2
I2
I1
I-2
I2
I-1
I1
I-1
I-1
I2
I-2
I-1
I1
I-2
I0
I-1
I-2
I1
I1
I2
I2
I1
I1
I2
I2
I0
I2
I-2
I1
I2
I-2
I-1
I-2
I1
I-1
I1
I2
I2
I1
I2
I1
I-1
I-1
I-1
I-1
I1
I-2
I-2
I-2
I-2
I-2
I2
I2
I2
I2
I1
I0
I2
I1
I2
I2
I-1
I-1
I-1
I1
I-1
I-2
I2
I1
I0
I1
I-1
I1
I-2
I1
I1
I1
I-2
I1
I-2
I-2
I1
I0
I2
I-1
I2
I2
I2
I0
I2
I2
I2
I2
I-2
I-1
I-1
I-2
I-1
I-2
I1
I1
I1
I1
I2
I1
I-1
I2
I2
I2
I1
I2
I0
I1
I2
I2
I2
I2
I2
I-2
I-1
I-2
I-2
I2
I1
I2
I-1
I1
I-1
I2
I-2
I2
I2
I1
I2
I2
I2
I2
I2
I2
I2
I-1
I-1
I-1
I-2
I-2
I-1
I0
I-2
I-2
I0
I-2
I1
I-2
I-1
I-2
I2
I2
I-1
I1
I-2
I-1
I-2
I-2
I1
I-2
I-2
I-1
I-1
I-2
I-2
I-1
I2
I-2
I-1
I-1
I-2
I-2
I-2
I-2
I-1
I-2
I-2
I-1
I-2
I-2
I-2
I1
I1
I-2
I1
I-1
I-2
I-2
I-2
I-1
I-2
I-1
I-2
I-2
I-1
I-2
I0
I2
I-2
I2
I-1
I-2
I1
I2
I2
I2
I1
I2
I1
I1
I2
I1
I-1
I1
I0
I1
I2
I1
I-1
I2
I-1
I2
I2
I-1
I1
I-2
I1
I0
I1
I1
I2
I-1
I-1
I-1
I-1
I1
I1
I2
I2
I1
I2
I-1
I1
I-1
I1
I-1
I1
I-2
I-2
I-2
I-2
I-2
I1
I2
I-2
I2
I-2
I-2
I-2
I-2
I2
I1
I-2
I2
I-1
I1
I-1
I-1
I2
I-1
I-1
I1
I-1
I0
I1
I-1
I-1
I0
I1
I2
I0
I1
I2
I2
I-2
I1
I-2
I-1
I1
I-2
I-1
I-2
I-1
I1
I0
I1
I1
I1
I2
I-1
I1
I0
I-1
I-1
I2
I-2
I-2
I-1
I-2
I-1
I1
I2
I2
I2
I1
I1
I1
I1
I2
I2
I-1
I-1
I-2
I1
I0
I1
I2
I1
I0
I2
I1
I1
I2
I2
I1
I-1
I-2
I-1
I-2
I1
I1
I-1
I1
I0
I2
I2
I1
I2
I2
I2
I-1
I1
I1
I-2
I1
I-1
I-1
I1
I-1
I-1
I0
I2
I-1
I1
I1
I1
I-1
I-1
I-1
I-1
I-1
I0
I-1
I1
I1
I-1
I-2
I-1
I-1
I-1
I-2
I-1
I-2
I1
I-2
I1
I-1
I1
tp14
s.