(dp0
S'9c0ac10970a121b1.jpg'
p1
(I1
I-2
I-2
I-1
I-2
I-2
I-2
I-2
I2
I-1
I-1
I2
I2
I1
I2
I2
I2
I2
I-2
I1
I-1
I1
I1
I-1
I-2
I-1
I-1
I-2
I2
I2
I1
I-2
I1
I-2
I-1
I-2
I-2
I-2
I1
I-1
I-2
I2
I2
I-2
I2
I1
I2
I2
I1
I2
I2
I2
I2
I2
I1
I-2
I-2
I-2
I-1
I0
I1
I-2
I-2
I-2
I1
I1
I1
I1
I-2
I-1
I-2
I-1
I1
I-1
I-1
I-2
I-2
I-2
I-1
I1
I-1
I1
I-2
I-2
I-2
I1
I2
I2
I2
I2
I2
I1
I2
I2
I-1
I2
I1
I-2
I-1
I2
I2
I-2
I2
I2
I1
I2
I-2
I-2
I-2
I-1
I-2
I-2
I-1
I-2
I0
I1
I1
I-1
I-1
I-2
I-2
I-1
I-1
I-1
I-2
I-2
I-2
I-1
I2
I2
I2
I2
I1
I-1
I2
I2
I1
I2
I2
I-1
I1
I2
I2
I-1
I2
I2
I-1
I-1
I2
I2
I-1
I2
I-1
I-2
I-2
I-2
I0
I-2
I0
I-2
I-2
I-2
I-2
I0
I-2
I0
I-2
I0
I2
I2
I2
I2
I2
I2
I1
I-1
I0
I1
I2
I1
I2
I1
I-2
I1
I2
I-1
I2
I2
I1
I2
I2
I2
I2
I1
I1
I-2
I-2
I-2
I-1
I-2
I-2
I1
I-2
I-2
I-2
I1
I-2
I-2
I1
I1
I1
I1
I2
I2
I2
I2
I2
I2
I-2
I0
I0
I-2
I-2
I-1
I-1
I-1
I2
I2
I-2
I2
I2
I1
I2
I2
I0
I-2
I-2
I-1
I1
I0
I-1
I1
I1
I-1
I-1
I-2
I-2
I-1
I-2
I-1
I-2
I-1
I1
I-2
I2
I2
I-1
I1
I2
I1
I-1
I2
I2
I1
I2
I2
I2
I2
I-1
I-1
I-2
I-2
I-1
I-2
I-1
I-1
I-1
I-2
I1
I1
I-1
I-1
I-1
I-1
I-2
I1
I-1
I1
I1
I0
I1
I1
I1
I-2
I1
I-1
I1
I-1
I-1
I-2
I-2
I-1
I-1
I-2
I-2
I-1
I1
I-1
I1
I-1
I1
I2
I-1
I1
I2
I2
I1
I1
I1
I-2
I-2
I-2
I-1
I-1
I-1
I-1
I-1
I-2
I2
I1
I1
I-1
I1
I0
I-2
I1
I1
I-1
I-1
I-1
I-1
I-2
I1
I1
I0
I1
I1
I-1
I-2
I1
I1
I-1
I1
I-1
I0
I-2
I1
I-2
I-1
I1
I2
I0
I-2
I1
I-2
I-1
I2
I2
I2
I1
I2
I-1
I-2
I-2
I-2
I-1
I1
I-1
I1
I2
I-1
I0
I1
I-2
I-1
I1
I1
I1
I1
I1
I-2
I1
I1
I-1
I1
I-1
I-1
I-2
I1
I1
I0
I1
I1
I1
I-1
I1
I1
I0
I2
I2
I2
I1
I2
I2
I1
I1
I-1
I-1
I-1
I-2
I-2
I-2
I-2
I-1
I2
I2
I-1
I2
I1
I2
I2
I2
I1
I-2
I-1
I2
I1
I2
I0
I1
I-2
I-2
I1
I-1
I-1
I-1
I-2
I-2
I-2
I-2
I2
I2
I2
I2
I2
I1
I2
I2
I-1
I-1
I-1
I-2
I1
I-2
I-1
I1
I-1
I-1
I-2
I-1
I-1
I-1
I1
I1
I0
I-1
I2
I1
I1
I2
I2
I-1
I-1
I2
I-2
I-1
I1
I2
I-1
I-1
I1
I-2
I-2
I-1
I-1
I-2
I-2
I-1
I-2
I-1
I1
I-2
I-1
I2
I2
I1
I2
I2
I-1
I-1
I1
I2
I-2
I1
I-1
I1
I-2
I1
I1
I-1
I2
I-1
I-1
I-2
I-2
I0
I-1
I-2
I-2
I0
I-2
I1
I1
I2
I2
I1
I1
I2
I2
I-1
I2
I1
I1
I-2
tp2
sS'b8b20537f5621769.jpg'
p3
(I-1
I-1
I-2
I1
I-2
I0
I-1
I-2
I2
I-2
I1
I-1
I-2
I2
I-1
I2
I-1
I-1
I1
I-1
I1
I1
I1
I1
I2
I1
I2
I2
I-2
I-1
I0
I1
I-2
I1
I-1
I2
I-1
I-2
I1
I1
I-2
I1
I0
I-1
I0
I0
I2
I1
I-2
I1
I-2
I1
I1
I-1
I2
I1
I-2
I2
I-2
I2
I2
I-1
I2
I1
I-1
I2
I-1
I2
I2
I0
I1
I-1
I-1
I1
I1
I2
I1
I-2
I-1
I-2
I0
I-1
I1
I-1
I-2
I1
I-2
I-1
I-2
I-1
I-2
I-2
I0
I-2
I2
I1
I-1
I2
I-2
I2
I-2
I-1
I2
I2
I2
I1
I2
I0
I-1
I0
I1
I0
I0
I-1
I-2
I0
I-1
I1
I0
I-2
I1
I-2
I-2
I1
I-2
I1
I-2
I-2
I1
I-2
I-2
I2
I-2
I1
I-2
I-2
I0
I-1
I1
I2
I-2
I-1
I-1
I-2
I2
I2
I2
I2
I2
I1
I0
I2
I-1
I0
I-2
I-2
I-2
I-2
I0
I-2
I2
I2
I-1
I2
I1
I2
I2
I1
I1
I-2
I-1
I1
I0
I-1
I-1
I-1
I-1
I-2
I0
I0
I-1
I1
I-2
I0
I-1
I-2
I2
I2
I-1
I2
I-2
I2
I1
I-2
I2
I2
I1
I2
I-1
I2
I1
I0
I2
I1
I-1
I1
I-1
I2
I1
I2
I2
I0
I2
I1
I2
I2
I2
I2
I-2
I0
I-2
I-2
I-2
I-1
I1
I-2
I2
I-2
I-1
I2
I-1
I2
I-1
I-2
I-1
I0
I1
I1
I-2
I1
I0
I0
I1
I1
I2
I1
I-2
I0
I-2
I1
I1
I-1
I2
I-1
I-2
I2
I-2
I2
I1
I-2
I2
I-1
I-2
I2
I-1
I2
I1
I-1
I0
I-1
I-2
I1
I1
I2
I0
I-1
I-2
I-2
I1
I-1
I2
I-1
I-2
I1
I-2
I-1
I-2
I-2
I-2
I-2
I-1
I-2
I2
I1
I-1
I2
I-2
I2
I-1
I1
I2
I2
I2
I1
I2
I-1
I-1
I-1
I1
I-1
I-1
I-1
I-2
I1
I-1
I1
I-1
I-2
I1
I-1
I-2
I1
I-2
I1
I-2
I-2
I2
I-1
I-2
I2
I-2
I1
I-2
I-2
I1
I0
I1
I2
I-1
I-1
I-1
I-1
I1
I2
I2
I1
I2
I1
I1
I2
I-1
I1
I-2
I-2
I-2
I-2
I1
I-2
I2
I1
I-1
I2
I1
I2
I2
I0
I-1
I-2
I-1
I1
I-1
I-1
I-1
I-2
I-1
I-2
I1
I1
I-1
I2
I-2
I1
I0
I-2
I2
I2
I-1
I2
I-2
I2
I1
I-2
I2
I2
I1
I2
I-1
I2
I2
I1
I2
I1
I-1
I1
I0
I2
I1
I1
I1
I-1
I2
I0
I2
I1
I1
I2
I-2
I-1
I-2
I-2
I-2
I-1
I1
I-2
I2
I-2
I-1
I2
I-2
I2
I-2
I-2
I0
I1
I2
I0
I-1
I1
I-1
I-1
I1
I0
I2
I0
I-2
I1
I-2
I1
I1
I-1
I2
I-1
I-2
I2
I-2
I2
I1
I-2
I2
I-2
I-2
I2
I-1
I2
I1
I-1
I-1
I-1
I-1
I1
I0
I1
I-1
I-1
I-1
I-1
I1
I0
I2
I-1
I-1
I0
I-2
I-1
I-2
I-2
I-2
I-2
I-2
I-2
I2
I2
I0
I2
I-1
I2
I1
I1
I2
I1
I1
I1
I2
I-1
I-1
I-1
I0
I-1
I-2
I1
I-1
I1
I-1
I-2
I1
I-2
I2
I-1
I-1
I2
I-2
I1
I1
I1
I2
I-1
I1
I1
I2
I1
I1
I0
I2
I-2
I-1
I-2
I2
I-1
I-1
I2
I1
I-1
I-2
I-1
tp4
sS'f8917c7e234d36ae.jpg'
p5
(I1
I1
I1
I-1
I2
I-1
I1
I2
I-2
I2
I-2
I-1
I2
I-2
I-1
I-2
I0
I-2
I1
I-1
I1
I-1
I0
I1
I1
I1
I1
I2
I-1
I-2
I-1
I1
I-1
I2
I0
I2
I2
I-2
I0
I2
I-2
I-1
I1
I1
I2
I1
I-1
I-1
I2
I-1
I2
I2
I0
I2
I-2
I1
I2
I-2
I2
I-2
I-1
I1
I-2
I0
I-1
I-2
I-2
I-2
I-1
I-1
I2
I1
I-1
I2
I1
I1
I1
I-1
I0
I-1
I1
I-1
I1
I1
I-1
I0
I-2
I-1
I-2
I-1
I-1
I-2
I-1
I-2
I1
I-2
I-2
I1
I-2
I0
I-1
I-2
I2
I2
I2
I2
I1
I-2
I-2
I-2
I-2
I-2
I-1
I0
I2
I2
I2
I-2
I1
I2
I-2
I1
I2
I-2
I2
I-2
I2
I2
I-1
I1
I-1
I-2
I0
I0
I1
I-1
I1
I-1
I-1
I0
I-1
I1
I-1
I-1
I1
I1
I2
I1
I1
I1
I1
I1
I0
I1
I0
I-1
I-1
I-1
I0
I-2
I2
I1
I-2
I1
I-2
I1
I-1
I-1
I2
I-1
I2
I2
I1
I2
I2
I2
I2
I1
I2
I-1
I2
I-2
I2
I1
I-1
I2
I-2
I-2
I0
I-2
I1
I-2
I-1
I0
I-2
I-1
I-1
I-1
I-1
I-2
I-1
I-1
I1
I1
I-1
I1
I-1
I0
I-1
I1
I1
I-1
I1
I1
I1
I-1
I2
I2
I-1
I0
I-1
I-1
I-2
I2
I1
I1
I2
I1
I-2
I2
I-1
I2
I2
I-2
I1
I-1
I1
I2
I-2
I-2
I-1
I-2
I0
I-1
I-1
I1
I2
I2
I2
I2
I1
I2
I-2
I1
I2
I-2
I1
I-2
I-1
I2
I0
I1
I0
I-1
I-1
I-2
I1
I1
I1
I1
I1
I1
I2
I2
I1
I-1
I-1
I-2
I-2
I-2
I-1
I-1
I-2
I-2
I-2
I-1
I-2
I1
I0
I-2
I-1
I-2
I-1
I-2
I-2
I0
I-2
I-1
I-2
I-2
I2
I2
I2
I2
I2
I0
I-2
I-1
I-2
I-1
I1
I-1
I2
I1
I2
I-2
I1
I2
I-2
I1
I2
I-2
I2
I-1
I2
I2
I-2
I-1
I-2
I-2
I-1
I-1
I0
I-1
I-1
I-1
I1
I1
I-2
I1
I-1
I-2
I1
I2
I2
I2
I1
I1
I0
I2
I2
I1
I1
I-1
I-2
I-1
I1
I-1
I2
I2
I-2
I2
I-1
I2
I1
I-1
I2
I-2
I1
I2
I1
I2
I2
I2
I2
I2
I1
I-1
I1
I-2
I2
I1
I-1
I2
I-2
I-2
I1
I-2
I1
I-2
I-2
I-1
I-2
I0
I-1
I-1
I-1
I-2
I-1
I-2
I1
I1
I-1
I1
I-1
I1
I-1
I2
I2
I0
I1
I1
I2
I0
I2
I2
I-2
I-1
I-2
I-2
I-2
I1
I1
I0
I1
I-1
I-2
I2
I-1
I2
I2
I-2
I1
I-1
I1
I2
I-2
I-2
I-1
I-2
I-2
I-2
I-2
I1
I2
I2
I2
I0
I0
I2
I-2
I2
I2
I-2
I1
I-2
I1
I2
I1
I1
I-1
I-1
I-1
I-1
I1
I0
I2
I1
I0
I1
I2
I2
I1
I-1
I-2
I-2
I-1
I-2
I0
I-1
I-2
I-1
I-2
I-1
I-2
I0
I-1
I-2
I-1
I-2
I0
I-2
I-2
I1
I-2
I-1
I-2
I-2
I2
I2
I2
I2
I2
I2
I0
I1
I2
I0
I2
I-1
I2
I-2
I-1
I1
I-2
I1
I-2
I-1
I-2
I-2
I-1
I0
I-1
I1
I1
I-2
I1
I2
I2
I2
I1
I1
I1
I1
I-1
I-2
I2
I2
I-2
I2
I-1
I2
I-2
I1
tp6
sS'1325ed1e2e64fa08.jpg'
p7
(I-2
I1
I-1
I2
I-1
I2
I1
I0
I1
I1
I2
I1
I2
I-1
I-2
I-1
I1
I1
I2
I2
I2
I2
I2
I-2
I-2
I0
I0
I-2
I2
I1
I2
I-1
I-1
I-1
I-1
I-1
I-2
I0
I1
I0
I1
I-1
I-2
I-1
I0
I-1
I1
I-1
I-2
I1
I-1
I1
I1
I-2
I0
I-1
I1
I1
I2
I2
I-2
I2
I-2
I-1
I-2
I-2
I0
I-2
I2
I1
I-1
I-2
I0
I0
I0
I2
I1
I-1
I-2
I0
I-2
I0
I-2
I0
I-1
I0
I2
I1
I1
I2
I-1
I2
I2
I0
I1
I2
I0
I1
I2
I2
I1
I2
I0
I-1
I-2
I-1
I1
I0
I-1
I-1
I1
I-2
I1
I-1
I-2
I1
I-2
I1
I-1
I-2
I2
I1
I2
I2
I2
I2
I-1
I2
I-2
I-2
I-2
I-2
I-1
I-2
I-1
I-2
I-1
I-1
I0
I1
I-1
I1
I-2
I-1
I1
I1
I-2
I1
I1
I-1
I1
I-1
I0
I-2
I-2
I-1
I-2
I-1
I-2
I-2
I0
I-1
I1
I2
I2
I1
I1
I1
I-2
I-1
I-2
I-1
I-1
I-1
I-1
I-2
I1
I-2
I2
I1
I-2
I2
I-2
I2
I-2
I-2
I2
I1
I2
I2
I2
I1
I1
I2
I-2
I1
I-1
I-2
I-2
I-2
I-1
I-2
I2
I2
I1
I2
I1
I2
I-1
I2
I1
I-1
I1
I-1
I-1
I-2
I1
I-2
I1
I2
I-1
I1
I-1
I2
I-1
I-1
I2
I-1
I1
I1
I0
I-1
I-1
I0
I-1
I1
I0
I-1
I0
I-1
I-2
I-2
I-1
I-2
I2
I2
I-1
I2
I-1
I2
I1
I1
I2
I-1
I2
I1
I2
I1
I2
I2
I-2
I1
I-2
I-2
I-2
I-2
I2
I0
I2
I1
I2
I2
I2
I2
I2
I2
I-2
I-1
I-2
I-2
I-2
I-1
I-1
I-2
I2
I1
I1
I2
I1
I2
I1
I0
I1
I1
I1
I-1
I1
I1
I0
I2
I0
I0
I-1
I-1
I1
I1
I-2
I-2
I-2
I-2
I2
I-1
I-1
I2
I1
I1
I1
I-2
I-1
I-2
I2
I-1
I2
I1
I-2
I2
I-2
I-2
I-2
I-2
I-2
I-2
I-1
I-2
I0
I-2
I1
I2
I-1
I1
I-1
I-1
I-2
I1
I-2
I1
I-1
I0
I1
I1
I2
I-1
I-1
I1
I-1
I2
I2
I1
I0
I0
I1
I1
I2
I2
I1
I2
I-2
I-1
I-2
I-1
I1
I1
I-1
I0
I0
I-1
I2
I-1
I-1
I0
I-2
I1
I-1
I-1
I2
I2
I2
I2
I2
I1
I1
I2
I-2
I1
I-1
I-2
I-2
I-2
I-1
I-2
I2
I1
I0
I2
I1
I1
I-2
I2
I1
I-1
I-2
I-1
I0
I-2
I1
I-2
I-1
I-2
I-2
I0
I-1
I1
I-2
I-2
I-1
I-1
I1
I1
I1
I-1
I-1
I-2
I-2
I-1
I-1
I-1
I-2
I0
I-1
I-2
I0
I-2
I1
I1
I-1
I2
I0
I2
I0
I2
I1
I-1
I2
I0
I2
I1
I2
I2
I-2
I1
I-1
I-2
I-2
I-1
I0
I-2
I2
I2
I2
I2
I2
I2
I2
I2
I-2
I-1
I-1
I-2
I-2
I-2
I-1
I-2
I2
I2
I1
I2
I0
I1
I-1
I-1
I2
I1
I1
I0
I-2
I-1
I-1
I-1
I2
I2
I2
I1
I1
I0
I-2
I-2
I2
I0
I-1
I2
I2
I-2
I-2
I1
I-2
I1
I-2
I0
I-2
I-1
I-2
I2
I-2
I2
I2
I1
I-2
I1
I-1
I-1
I-2
I2
I1
I1
I2
I0
I1
I1
I-1
I0
I0
I1
I-1
I0
tp8
sS'90d0b01599157f5f.jpg'
p9
(I-1
I1
I2
I1
I2
I1
I2
I2
I-2
I2
I2
I2
I2
I-2
I-2
I1
I2
I0
I2
I-1
I2
I2
I2
I1
I0
I2
I2
I1
I0
I1
I2
I1
I-1
I-1
I2
I-1
I-1
I-1
I-2
I-2
I-2
I-1
I-1
I2
I2
I2
I-2
I-2
I-2
I-2
I1
I-1
I-1
I-1
I-2
I-2
I-1
I-1
I1
I-2
I-2
I-2
I-2
I-2
I-2
I-1
I-2
I-2
I-2
I-1
I0
I-2
I-2
I2
I1
I-2
I2
I-1
I-2
I-2
I-2
I-1
I-2
I2
I-1
I-2
I-1
I-1
I1
I2
I-1
I2
I1
I2
I1
I1
I2
I1
I0
I1
I2
I0
I1
I2
I0
I2
I0
I-2
I1
I-1
I1
I-2
I-2
I1
I2
I1
I-1
I1
I-2
I2
I1
I2
I2
I1
I-1
I-2
I2
I1
I2
I2
I2
I1
I2
I2
I2
I2
I1
I-2
I-2
I-2
I-2
I-2
I-1
I-1
I1
I1
I-2
I2
I-2
I2
I1
I-2
I2
I-1
I-1
I2
I2
I2
I1
I1
I-2
I-2
I-2
I-2
I-2
I-1
I-2
I-1
I0
I0
I2
I1
I2
I-1
I-1
I-2
I-1
I-2
I2
I2
I2
I2
I2
I2
I1
I2
I-2
I-2
I-2
I-2
I-1
I-2
I-1
I1
I-1
I-2
I2
I1
I2
I1
I2
I2
I-2
I1
I-2
I-2
I-1
I1
I1
I1
I1
I-1
I-2
I1
I-2
I1
I1
I-1
I2
I-1
I1
I2
I-1
I2
I2
I-1
I-1
I2
I-1
I1
I1
I2
I0
I2
I1
I-2
I-1
I-1
I1
I1
I-2
I-1
I1
I-1
I2
I-1
I2
I1
I2
I2
I0
I2
I-2
I1
I-1
I-2
I2
I-2
I1
I2
I-1
I-2
I-1
I-2
I-1
I-1
I-1
I-1
I-2
I-1
I-1
I1
I1
I-1
I1
I1
I-1
I-2
I-2
I-1
I-2
I1
I0
I-2
I1
I-2
I-2
I2
I-2
I2
I0
I-2
I1
I0
I1
I2
I2
I2
I1
I2
I-2
I-1
I-2
I-2
I1
I-1
I-2
I-2
I-1
I-1
I1
I0
I2
I2
I2
I1
I2
I2
I-2
I-1
I1
I-2
I1
I-2
I-1
I1
I-2
I1
I1
I-1
I1
I-2
I-1
I-1
I1
I-1
I-1
I-1
I-1
I-1
I-1
I-2
I-1
I0
I-2
I1
I-2
I-1
I-2
I-2
I2
I0
I-2
I2
I-2
I1
I-2
I-2
I2
I-1
I2
I2
I2
I1
I1
I2
I-2
I-1
I-2
I-2
I-1
I1
I-1
I1
I-2
I-2
I1
I-2
I2
I-1
I1
I-2
I-2
I-1
I-2
I1
I2
I-1
I2
I-2
I-2
I-1
I-1
I1
I1
I-2
I0
I-2
I-2
I-1
I1
I1
I1
I0
I-1
I-2
I-1
I-1
I2
I2
I-1
I1
I-2
I1
I1
I-1
I2
I2
I-1
I2
I-1
I2
I1
I2
I2
I-1
I2
I1
I1
I1
I2
I-1
I-2
I1
I-1
I1
I-2
I2
I2
I1
I1
I1
I2
I2
I2
I-1
I1
I-1
I-1
I-1
I1
I2
I2
I-1
I1
I-2
I-2
I-1
I1
I2
I2
I-1
I2
I-2
I-2
I1
I1
I1
I-1
I-2
I-1
I-2
I-2
I-2
I1
I-1
I-2
I1
I-1
I-1
I-1
I-2
I1
I-1
I-1
I1
I1
I-1
I-1
I-2
I-2
I-2
I-1
I-1
I-2
I-1
I-2
I-2
I1
I2
I2
I-1
I-1
I-1
I1
I-1
I-1
I1
I2
I1
I-1
I1
I2
I2
I1
I1
I1
I2
I2
I-1
I2
I-1
I2
I1
I-2
I1
I2
I1
I1
I-1
I-1
I1
I1
I1
I1
I-2
I2
I2
I1
I2
I1
I2
I1
I-1
tp10
sS'cedee5f1c5d47e5f.jpg'
p11
(I2
I1
I2
I-2
I0
I-2
I-1
I-2
I0
I1
I-1
I-2
I-1
I-2
I-2
I-2
I-2
I1
I2
I1
I-1
I2
I1
I-1
I0
I2
I1
I1
I0
I-1
I1
I1
I2
I1
I1
I2
I2
I2
I-1
I2
I1
I-1
I2
I1
I1
I-1
I-2
I1
I1
I-1
I-2
I-1
I-2
I-2
I2
I2
I2
I2
I2
I-1
I0
I-1
I1
I2
I1
I-2
I2
I-2
I-2
I-1
I-1
I-2
I-2
I-2
I-1
I-2
I-2
I-2
I-1
I-1
I-1
I1
I1
I-2
I-2
I-2
I-1
I-1
I-2
I-1
I1
I-2
I-2
I-2
I-2
I-2
I-2
I-1
I-1
I-2
I-2
I-2
I-2
I-1
I1
I-2
I-1
I-1
I1
I-1
I2
I2
I1
I2
I1
I1
I1
I2
I2
I2
I2
I0
I2
I-1
I-1
I2
I2
I2
I1
I2
I2
I1
I2
I2
I2
I2
I1
I2
I2
I-2
I-1
I2
I2
I2
I2
I2
I2
I1
I-1
I2
I2
I2
I2
I2
I2
I1
I1
I2
I2
I2
I2
I2
I2
I-1
I2
I1
I1
I-1
I2
I1
I-2
I-2
I-2
I-2
I-2
I1
I-1
I0
I-2
I-2
I-2
I-1
I1
I-2
I-1
I-2
I-2
I-2
I-2
I-1
I-2
I-2
I-2
I1
I-2
I-2
I-2
I2
I1
I-1
I2
I1
I-2
I-2
I-2
I-1
I1
I1
I1
I1
I-2
I-2
I-2
I-1
I-1
I1
I1
I-1
I-2
I-2
I-1
I1
I0
I1
I1
I1
I-2
I-1
I2
I0
I-2
I1
I1
I1
I1
I2
I2
I2
I2
I1
I2
I1
I-2
I-1
I0
I1
I2
I-1
I-1
I-2
I-1
I-2
I2
I2
I1
I1
I2
I-1
I-2
I-1
I-1
I-2
I-1
I-2
I-1
I-2
I-2
I-1
I-1
I-1
I-1
I1
I-1
I-2
I-1
I1
I-1
I-1
I-1
I1
I-1
I-1
I1
I1
I1
I-1
I-1
I1
I-1
I1
I1
I1
I-1
I-1
I-2
I1
I1
I2
I2
I2
I-1
I-2
I-1
I1
I2
I2
I2
I1
I2
I1
I1
I1
I1
I-1
I-2
I2
I0
I1
I2
I2
I2
I2
I1
I2
I2
I2
I1
I2
I2
I-1
I2
I1
I1
I2
I1
I1
I1
I-2
I1
I-2
I-1
I-1
I-1
I-1
I-1
I-1
I1
I-2
I-2
I-2
I-1
I-1
I-2
I-1
I-1
I-2
I-2
I-2
I-1
I-2
I-1
I1
I1
I-2
I-2
I-2
I-2
I-2
I-1
I-2
I-2
I-2
I-2
I-2
I-2
I0
I-1
I0
I-2
I2
I1
I-1
I2
I2
I-1
I-2
I-1
I-1
I-1
I2
I2
I1
I-2
I-1
I2
I1
I1
I2
I2
I2
I-2
I1
I2
I-1
I-1
I1
I2
I0
I1
I2
I2
I1
I-1
I2
I1
I1
I2
I2
I2
I1
I-1
I1
I2
I1
I2
I2
I2
I1
I1
I2
I2
I2
I2
I2
I-1
I2
I2
I2
I1
I2
I1
I2
I0
I-2
I-2
I-2
I1
I-2
I-1
I-2
I-2
I-2
I-2
I-1
I-1
I-1
I-2
I-1
I-1
I-2
I-1
I1
I1
I-2
I-1
I1
I-2
I-2
I-2
I-1
I-2
I-1
I1
I-1
I0
I-1
I-1
I2
I1
I2
I1
I2
I-1
I-2
I-2
I-1
I-1
I1
I2
I1
I-1
I-2
I-2
I1
I1
I2
I2
I2
I-2
I-2
I-1
I1
I1
I-1
I2
I1
I-2
I1
I1
I-1
I-1
I2
I2
I2
I1
I1
I1
I1
I1
I-2
I2
I-1
I-1
I-2
I-2
I-1
I1
I-1
I-1
I1
I1
I-2
I-2
I-2
I-1
I-1
I-1
I-2
I-1
I1
I1
I-2
I-1
I-1
tp12
sS'df15a76276e75c64.jpg'
p13
(I2
I2
I2
I-2
I2
I1
I1
I2
I-2
I-2
I-2
I-1
I-2
I2
I2
I2
I1
I-1
I-2
I-1
I-1
I-2
I-1
I1
I-2
I-2
I0
I-1
I2
I2
I2
I2
I2
I-2
I-1
I-2
I1
I-1
I1
I2
I1
I-2
I-1
I1
I2
I2
I-2
I-1
I2
I-1
I1
I2
I1
I-1
I-2
I1
I-2
I-1
I-1
I1
I-1
I1
I2
I-1
I1
I1
I-2
I0
I2
I-2
I1
I2
I2
I2
I2
I2
I0
I0
I1
I0
I-2
I-2
I-1
I-2
I-2
I1
I1
I-2
I2
I1
I2
I-1
I2
I2
I-2
I-2
I-2
I-2
I-2
I-1
I-1
I-1
I1
I-1
I2
I1
I1
I-2
I-2
I-1
I2
I-2
I-2
I-1
I-1
I1
I-2
I2
I-1
I-2
I1
I1
I0
I2
I2
I1
I0
I-1
I-1
I-2
I-2
I-2
I-2
I-2
I-2
I-2
I2
I0
I2
I2
I-1
I1
I1
I-1
I0
I2
I1
I1
I2
I1
I-1
I1
I-1
I-2
I1
I-2
I0
I-2
I-2
I-2
I-2
I1
I-1
I0
I0
I-2
I-2
I2
I1
I-1
I0
I-2
I2
I-2
I-2
I-2
I-2
I-2
I2
I1
I-1
I2
I-1
I1
I-2
I0
I2
I0
I2
I1
I-1
I-2
I1
I-1
I1
I2
I-1
I1
I0
I1
I0
I-1
I2
I-1
I-1
I0
I-2
I0
I-1
I-1
I1
I1
I2
I2
I2
I1
I1
I1
I-1
I2
I2
I-2
I1
I-1
I-1
I-1
I2
I2
I2
I-1
I2
I-1
I-1
I2
I-2
I-2
I-2
I-2
I-1
I2
I-1
I-2
I-2
I-2
I2
I2
I2
I2
I2
I-1
I1
I2
I0
I-1
I-1
I-2
I-1
I-2
I-1
I-2
I1
I0
I0
I1
I-1
I1
I-1
I1
I1
I1
I-1
I1
I0
I-1
I1
I1
I1
I-1
I1
I0
I-1
I1
I1
I-1
I-1
I1
I1
I1
I1
I1
I-1
I2
I1
I1
I2
I-1
I2
I-1
I2
I2
I-2
I1
I-2
I-2
I-1
I2
I1
I1
I0
I2
I2
I-1
I2
I-1
I1
I-1
I1
I2
I-2
I1
I-1
I-1
I-2
I0
I2
I-1
I2
I1
I1
I2
I1
I2
I1
I1
I-1
I-1
I-1
I-1
I1
I1
I0
I2
I-1
I-1
I-1
I-1
I-2
I-1
I2
I-1
I1
I1
I1
I2
I2
I2
I1
I2
I-2
I-2
I2
I-2
I2
I-2
I2
I0
I-2
I1
I-2
I0
I-2
I0
I1
I2
I2
I2
I-2
I-1
I0
I-2
I2
I2
I1
I1
I-2
I-2
I-2
I-2
I-2
I-1
I-2
I-1
I1
I-1
I-1
I2
I-1
I1
I2
I-1
I-1
I0
I1
I1
I2
I2
I-1
I-1
I-2
I-2
I-2
I-2
I-2
I-2
I-2
I-2
I1
I-1
I2
I2
I2
I1
I2
I2
I-2
I-2
I0
I-2
I-2
I-2
I0
I-1
I0
I2
I2
I2
I1
I-2
I-2
I-1
I2
I1
I-2
I-1
I1
I1
I-1
I2
I1
I0
I-1
I2
I-1
I1
I1
I2
I1
I1
I1
I-2
I-2
I-1
I-2
I-1
I-1
I-2
I1
I1
I2
I2
I-1
I1
I-1
I-1
I1
I2
I-1
I1
I2
I-1
I-1
I2
I2
I-2
I2
I-2
I2
I-2
I-1
I1
I-2
I0
I-2
I-2
I-1
I-2
I-1
I1
I1
I-1
I1
I-1
I2
I-2
I-2
I-2
I-1
I-1
I-2
I2
I-2
I0
I-1
I1
I2
I-1
I-1
I1
I-2
I1
I-2
I2
I1
I1
I2
I0
I1
I1
I2
I0
I2
I-2
I1
I2
I-2
I1
I-1
I1
I1
I-1
I2
I-1
I-2
I-2
tp14
s.