(dp0
S'76926cc1e4f32ae4.jpg'
p1
(I2
I-1
I2
I-2
I-1
I-2
I1
I0
I1
I2
I1
I1
I2
I-2
I-2
I-1
I-1
I1
I2
I2
I1
I2
I-2
I-2
I-2
I-1
I-2
I-2
I2
I-2
I-2
I-1
I-1
I2
I1
I2
I2
I-1
I-1
I1
I-2
I1
I2
I2
I1
I2
I-2
I-1
I-1
I-2
I0
I-2
I-1
I-1
I0
I-1
I1
I0
I1
I-1
I-1
I1
I-2
I1
I-1
I-1
I1
I-1
I0
I-1
I-1
I-2
I1
I-1
I-2
I-1
I-2
I1
I2
I2
I2
I2
I2
I2
I2
I2
I2
I1
I-2
I-2
I0
I2
I1
I-2
I1
I-2
I-1
I0
I-2
I1
I-2
I-1
I1
I2
I2
I1
I2
I-1
I2
I2
I0
I2
I-2
I1
I1
I-2
I1
I-2
I1
I1
I1
I1
I1
I-1
I1
I0
I0
I2
I-1
I0
I1
I-1
I-1
I-1
I2
I1
I1
I1
I-2
I1
I2
I2
I1
I-2
I-1
I-2
I-2
I-2
I-2
I-1
I-2
I-2
I-2
I-1
I-1
I2
I-2
I-2
I-1
I-2
I1
I2
I-1
I2
I1
I1
I-1
I-2
I1
I-2
I-1
I-2
I-2
I0
I2
I2
I-1
I2
I-2
I-1
I0
I-2
I0
I-2
I-1
I1
I-1
I0
I1
I0
I2
I-1
I1
I1
I-2
I-2
I-2
I-2
I-1
I-2
I-2
I-1
I-1
I-1
I1
I1
I-2
I-1
I-1
I-1
I2
I2
I2
I2
I1
I2
I2
I2
I2
I1
I-1
I-1
I-2
I1
I1
I-1
I2
I1
I2
I2
I-1
I2
I1
I1
I2
I2
I1
I2
I2
I1
I2
I2
I1
I2
I-2
I1
I1
I-2
I2
I-2
I2
I1
I-1
I-1
I2
I-2
I1
I-1
I-1
I2
I-1
I2
I1
I-1
I0
I-1
I2
I1
I1
I1
I-2
I0
I0
I1
I1
I-1
I1
I-2
I-1
I0
I-1
I1
I-1
I-1
I-2
I-1
I-2
I1
I-2
I0
I-1
I-2
I1
I-1
I-2
I2
I0
I1
I-2
I-2
I-1
I-2
I0
I-2
I-2
I-1
I2
I2
I-1
I2
I-2
I-2
I1
I-2
I-1
I-2
I-1
I1
I-1
I1
I1
I1
I2
I-1
I1
I1
I-2
I-2
I-1
I-2
I-1
I-2
I-2
I-2
I-1
I-1
I-1
I1
I-1
I-1
I-1
I-1
I1
I1
I0
I1
I-1
I0
I-1
I0
I1
I1
I-1
I1
I-2
I0
I1
I0
I2
I2
I2
I2
I1
I2
I2
I2
I2
I2
I-1
I2
I1
I1
I2
I2
I1
I2
I-2
I1
I1
I-2
I2
I-2
I2
I1
I-1
I-1
I2
I-2
I0
I0
I-1
I2
I-1
I2
I1
I0
I0
I-1
I2
I-1
I2
I1
I0
I0
I-1
I2
I-1
I2
I1
I1
I0
I1
I1
I0
I2
I1
I0
I-1
I-2
I-1
I0
I2
I0
I-2
I0
I-2
I-2
I0
I-2
I0
I-2
I-2
I-2
I-1
I2
I-1
I-1
I-1
I2
I2
I-1
I2
I-2
I-2
I0
I-2
I-1
I-2
I-1
I1
I-1
I1
I1
I1
I2
I1
I1
I1
I-2
I-2
I-2
I-2
I-2
I-2
I-2
I-2
I1
I1
I0
I2
I2
I0
I1
I-2
I-2
I-2
I-2
I-2
I-2
I-1
I-2
I-2
I-1
I0
I0
I2
I-2
I-2
I0
I1
I2
I2
I1
I2
I1
I2
I2
I1
I2
I1
I-1
I2
I0
I1
I2
I2
I-2
I1
I-1
I-2
I1
I-1
I-1
I2
I-1
I-1
I-1
I2
I0
I1
I1
I2
I-1
I1
I-1
I-2
I2
I2
I2
I2
I2
I2
I0
I-2
I-2
I1
I-1
I-2
I-2
I-1
I-2
I-1
I0
I2
tp2
sS'a3dff1e19bffe291.jpg'
p3
(I1
I2
I1
I-1
I1
I2
I1
I2
I-1
I2
I1
I2
I2
I-2
I-1
I1
I-1
I-2
I1
I-2
I-1
I-2
I-2
I2
I-1
I-1
I1
I0
I1
I2
I1
I1
I2
I-2
I1
I-1
I0
I1
I-1
I-1
I1
I-2
I-2
I-2
I-2
I-2
I-1
I-1
I-1
I2
I2
I-1
I1
I2
I-2
I-2
I-1
I-2
I-2
I-2
I-1
I-2
I-2
I1
I1
I2
I-2
I1
I-2
I0
I2
I2
I1
I2
I1
I1
I2
I2
I2
I-1
I-1
I-1
I-1
I2
I2
I-1
I0
I-1
I1
I1
I1
I2
I1
I1
I-2
I0
I1
I-1
I1
I-1
I0
I-1
I-1
I-1
I-1
I-1
I-2
I2
I1
I1
I-1
I-2
I2
I-1
I2
I-1
I2
I-2
I-2
I-1
I-2
I1
I-1
I-2
I-2
I-2
I-2
I-1
I2
I2
I-1
I2
I2
I1
I2
I2
I0
I-2
I-2
I-2
I0
I1
I-1
I-2
I-2
I-2
I-2
I0
I-2
I-1
I-2
I-2
I1
I-1
I1
I2
I1
I-1
I-1
I1
I-1
I0
I1
I-1
I-1
I-2
I-1
I1
I1
I2
I1
I1
I2
I1
I2
I-1
I2
I1
I2
I2
I2
I1
I1
I2
I2
I2
I1
I2
I-1
I-1
I2
I1
I2
I-1
I1
I-2
I-1
I-2
I-1
I1
I-2
I-2
I-2
I1
I1
I1
I-2
I-2
I-2
I-2
I2
I2
I1
I2
I-1
I-1
I1
I1
I2
I1
I2
I1
I2
I1
I1
I2
I-1
I1
I-1
I-2
I2
I-1
I1
I1
I-1
I-2
I-2
I-1
I-1
I-2
I-2
I-2
I-2
I-2
I-1
I-2
I-1
I2
I2
I-2
I-1
I2
I-2
I-2
I-1
I-2
I-2
I-2
I-1
I-2
I1
I2
I2
I2
I-2
I2
I1
I1
I2
I2
I1
I2
I1
I2
I2
I2
I2
I-1
I-1
I-1
I0
I2
I2
I-1
I-1
I-1
I1
I0
I1
I2
I-1
I1
I-2
I-1
I1
I-1
I1
I-2
I-1
I-1
I-1
I1
I-1
I-1
I-1
I2
I2
I1
I1
I-1
I2
I1
I2
I-1
I2
I0
I-2
I1
I-2
I1
I-2
I-2
I-2
I-2
I-2
I0
I2
I-1
I-2
I2
I1
I1
I2
I1
I-1
I-2
I-2
I-1
I1
I2
I-1
I-2
I-2
I-2
I-2
I-1
I-2
I-1
I-2
I-2
I1
I1
I2
I2
I1
I-1
I-1
I1
I-1
I1
I1
I-1
I-1
I-2
I-1
I1
I1
I1
I1
I-1
I2
I-1
I0
I-2
I2
I1
I1
I2
I2
I2
I2
I2
I2
I2
I-1
I1
I-1
I-2
I1
I0
I2
I-2
I0
I-2
I-2
I-1
I-2
I2
I-2
I-2
I-1
I1
I1
I2
I-2
I-1
I-2
I-1
I2
I2
I1
I2
I-1
I1
I2
I1
I2
I1
I2
I1
I1
I2
I1
I2
I-1
I1
I1
I-1
I2
I1
I1
I1
I-1
I-2
I-2
I-1
I-2
I-2
I-2
I-2
I-2
I-2
I-1
I-2
I0
I2
I2
I-2
I-1
I1
I-2
I-2
I-2
I-2
I-2
I-2
I-2
I-2
I2
I2
I1
I2
I-1
I2
I2
I2
I2
I2
I-1
I1
I1
I2
I2
I1
I1
I-2
I-2
I-1
I-1
I2
I1
I-2
I-1
I-1
I-1
I1
I1
I1
I-1
I1
I-2
I-1
I1
I-1
I-1
I-2
I-1
I-1
I-1
I2
I1
I1
I1
I2
I2
I2
I2
I1
I2
I-2
I2
I-1
I2
I-2
I-2
I-1
I2
I-2
I-2
I1
I0
I-2
I-2
I-2
I0
I-2
I-1
I-1
I-1
I2
I-2
I2
I1
I2
I2
I2
I-1
I1
I-1
I-2
I0
I1
I-1
I0
tp4
sS'eb0c3de3161df24e.jpg'
p5
(I0
I-1
I1
I0
I2
I-1
I1
I2
I-2
I0
I-2
I-1
I0
I0
I-1
I-1
I0
I-2
I1
I0
I1
I-2
I0
I0
I-2
I-2
I0
I-2
I2
I2
I2
I0
I2
I-2
I1
I-2
I0
I1
I-1
I-1
I0
I1
I1
I1
I0
I0
I-1
I-1
I2
I-1
I1
I-1
I-1
I1
I-2
I1
I1
I-1
I1
I-2
I-1
I1
I0
I0
I-1
I-1
I-2
I-1
I0
I-2
I2
I2
I2
I2
I2
I2
I0
I1
I0
I0
I-2
I-2
I-2
I-2
I-1
I-2
I2
I0
I2
I2
I2
I2
I0
I1
I-2
I0
I1
I-2
I1
I-2
I-1
I1
I-1
I0
I-1
I-2
I0
I0
I1
I1
I-1
I-1
I0
I1
I2
I-1
I1
I-1
I-1
I2
I-1
I1
I1
I-1
I1
I-2
I2
I2
I-1
I0
I-2
I-1
I-2
I1
I1
I-2
I2
I0
I2
I2
I1
I2
I0
I1
I-1
I1
I-2
I-1
I-1
I-1
I-1
I-2
I2
I0
I2
I1
I1
I1
I-2
I0
I-2
I1
I2
I-1
I2
I-2
I-1
I2
I-1
I0
I-2
I-2
I0
I1
I1
I0
I2
I2
I1
I1
I2
I0
I2
I2
I2
I2
I-2
I-2
I-1
I-2
I-1
I-1
I-1
I-2
I-2
I-1
I-2
I1
I-2
I0
I-2
I-2
I2
I0
I1
I2
I1
I1
I-1
I0
I-1
I1
I-1
I-1
I-2
I-1
I-1
I-1
I2
I2
I2
I2
I2
I2
I2
I2
I0
I1
I2
I-2
I2
I0
I1
I2
I-2
I0
I-2
I-2
I0
I-2
I-2
I2
I-2
I1
I-2
I-2
I1
I-2
I1
I-2
I-1
I0
I-2
I1
I0
I-1
I-2
I-1
I-1
I-1
I2
I2
I-1
I2
I-1
I2
I2
I1
I2
I1
I1
I1
I1
I2
I2
I2
I0
I1
I-2
I-1
I0
I2
I2
I-1
I1
I-2
I0
I0
I1
I2
I-1
I2
I-2
I-1
I2
I-1
I2
I-1
I1
I2
I-2
I0
I-2
I-1
I1
I2
I2
I2
I-1
I0
I-1
I1
I1
I-2
I1
I-2
I-2
I0
I0
I1
I-2
I-1
I0
I-2
I-1
I0
I1
I-2
I-2
I0
I-1
I-1
I1
I-1
I-1
I-2
I-2
I1
I1
I1
I0
I-1
I-2
I-2
I-2
I-1
I-2
I0
I-1
I-2
I1
I1
I1
I2
I2
I1
I0
I2
I-2
I-1
I1
I-2
I1
I-2
I0
I1
I-2
I-1
I-2
I-2
I-1
I1
I2
I0
I2
I1
I0
I2
I2
I0
I2
I2
I1
I2
I0
I1
I1
I-2
I1
I-2
I-1
I1
I0
I-1
I-1
I-1
I-1
I-2
I0
I-2
I1
I0
I0
I1
I-1
I1
I-2
I-1
I1
I1
I-1
I1
I-2
I-1
I0
I-1
I2
I0
I2
I2
I2
I1
I1
I2
I-2
I0
I2
I-2
I1
I-2
I1
I1
I-1
I1
I-1
I0
I0
I-2
I-2
I-2
I-1
I-2
I-1
I-1
I2
I2
I1
I1
I-1
I2
I-2
I1
I2
I-1
I2
I-2
I2
I1
I-1
I0
I-1
I-2
I-2
I-1
I-1
I-2
I2
I2
I1
I2
I1
I2
I2
I2
I1
I0
I-1
I-1
I-1
I1
I1
I-2
I1
I-1
I2
I1
I2
I2
I-1
I1
I-2
I-1
I0
I-2
I0
I-2
I-2
I0
I-1
I0
I0
I-2
I0
I1
I-1
I-2
I2
I1
I2
I2
I2
I-2
I-2
I1
I-2
I-1
I-1
I1
I-2
I1
I-1
I2
I-2
I-1
I1
I1
I-2
I-1
I-2
I-1
I-2
I2
I1
I2
I2
I2
I-1
I2
I2
I-2
I2
I0
I0
I-2
tp6
sS'c9103b166f2ace16.jpg'
p7
(I2
I2
I2
I-2
I-2
I1
I-1
I-1
I2
I2
I2
I2
I2
I-2
I2
I1
I2
I1
I-2
I-1
I-1
I-2
I-2
I1
I0
I-2
I-2
I-1
I0
I-1
I-2
I-1
I0
I1
I-2
I-1
I1
I1
I2
I2
I2
I-2
I-1
I-2
I-2
I-2
I-2
I1
I-2
I2
I-1
I-1
I-1
I-1
I1
I-2
I-1
I1
I2
I-1
I-1
I0
I-2
I-2
I1
I-2
I-2
I-2
I-2
I-2
I-1
I2
I2
I2
I-1
I-1
I-1
I0
I2
I2
I2
I1
I2
I1
I1
I2
I1
I1
I1
I-2
I1
I-1
I1
I1
I0
I-1
I-2
I-1
I0
I-1
I-1
I-1
I-1
I-2
I0
I-1
I-1
I2
I1
I-1
I-2
I-1
I2
I1
I1
I1
I1
I-2
I-1
I1
I1
I1
I2
I-1
I1
I-1
I-1
I-2
I0
I2
I1
I-1
I-1
I-1
I-2
I-2
I2
I1
I-1
I1
I1
I-2
I-2
I1
I0
I-1
I1
I-1
I2
I-2
I1
I1
I-2
I-1
I1
I-2
I-1
I-1
I-1
I-2
I-1
I1
I1
I1
I1
I-1
I-2
I-2
I1
I1
I-1
I-2
I-2
I2
I2
I2
I2
I2
I1
I1
I1
I-2
I1
I-2
I-1
I1
I-1
I1
I1
I-1
I-2
I-2
I1
I-2
I2
I2
I2
I2
I1
I2
I-2
I2
I2
I2
I2
I-1
I2
I-2
I1
I2
I-1
I-1
I1
I-2
I1
I-2
I-1
I-2
I-1
I1
I1
I-1
I-2
I-1
I-2
I-2
I2
I2
I2
I2
I1
I1
I1
I-1
I2
I2
I-1
I-1
I-1
I-2
I2
I2
I2
I2
I-2
I1
I2
I-2
I2
I1
I1
I2
I-2
I-1
I-2
I-2
I-2
I-2
I-1
I-2
I2
I2
I2
I2
I2
I2
I2
I2
I-2
I-1
I2
I-2
I1
I-2
I0
I1
I-2
I1
I1
I-1
I-1
I-1
I-1
I2
I2
I2
I-1
I1
I1
I1
I2
I1
I2
I-1
I1
I-1
I-1
I2
I1
I-1
I1
I1
I1
I1
I-1
I-2
I-1
I-1
I1
I-1
I-2
I-1
I2
I1
I1
I1
I-1
I2
I-2
I1
I-2
I-1
I-2
I-2
I1
I-1
I2
I-2
I2
I2
I2
I2
I2
I2
I-2
I0
I1
I-2
I1
I1
I2
I2
I-1
I1
I-1
I-1
I2
I1
I2
I-1
I-2
I-2
I-2
I-2
I-2
I-1
I-2
I-2
I-1
I-1
I-1
I2
I-2
I-1
I1
I-1
I1
I1
I2
I2
I2
I-1
I-1
I-2
I2
I1
I1
I1
I2
I2
I2
I2
I2
I1
I-2
I-1
I-2
I-2
I-1
I1
I-1
I-2
I1
I-2
I-1
I1
I1
I-1
I-1
I-1
I-2
I-2
I-1
I-1
I1
I-2
I-2
I-2
I-2
I-2
I1
I-1
I-2
I-2
I-2
I-2
I1
I2
I1
I2
I1
I0
I1
I1
I2
I-1
I-2
I-1
I-1
I-1
I-1
I-2
I1
I-2
I1
I0
I-2
I-2
I-2
I-2
I-2
I-1
I-1
I-2
I-1
I2
I-2
I-2
I2
I-2
I-1
I1
I1
I2
I-1
I2
I-2
I1
I2
I1
I2
I1
I0
I-2
I2
I1
I1
I2
I2
I0
I0
I2
I1
I-1
I2
I2
I0
I0
I1
I1
I-1
I1
I2
I-1
I1
I-1
I1
I-1
I1
I2
I-1
I1
I0
I-1
I-2
I0
I2
I-2
I2
I2
I2
I2
I-2
I2
I2
I2
I1
I-2
I-2
I-2
I-2
I2
I2
I2
I2
I2
I-1
I-2
I-2
I-2
I-1
I-1
I-1
I-1
I1
I-1
I1
I1
I1
I1
I1
I-1
I-1
I0
I-1
I2
I-2
I-2
I-2
I-2
I-2
I2
I2
I2
tp8
sS'8dd1f809375773bb.jpg'
p9
(I-2
I1
I-2
I2
I2
I2
I-1
I2
I-2
I2
I-2
I1
I2
I-2
I-2
I-2
I0
I-1
I2
I2
I2
I1
I2
I-2
I-2
I-2
I-1
I-2
I2
I1
I1
I-1
I1
I-1
I-2
I-2
I-1
I-2
I2
I2
I0
I-1
I-2
I-2
I0
I-2
I2
I1
I2
I2
I2
I2
I0
I2
I-2
I-1
I2
I-2
I2
I-2
I-1
I1
I-2
I0
I-2
I-2
I-1
I-2
I-1
I0
I1
I-1
I2
I1
I1
I-1
I1
I-1
I-2
I1
I-1
I-1
I-2
I-1
I-2
I-2
I2
I1
I2
I2
I1
I-1
I-1
I1
I-1
I1
I-2
I-1
I-2
I-2
I-1
I-2
I2
I0
I2
I2
I1
I0
I-2
I-2
I0
I-2
I2
I0
I2
I2
I2
I2
I1
I2
I-2
I1
I2
I-2
I1
I-2
I1
I0
I-1
I1
I1
I-1
I2
I-1
I-1
I1
I0
I-1
I1
I-2
I-2
I-2
I-1
I-2
I1
I2
I1
I2
I-1
I2
I-1
I0
I2
I1
I2
I1
I2
I-1
I1
I2
I-1
I1
I-2
I-2
I-2
I-1
I1
I-2
I2
I-1
I2
I2
I1
I0
I-2
I-2
I1
I-1
I2
I-1
I2
I2
I2
I2
I1
I2
I-2
I-1
I1
I-2
I-1
I-2
I0
I-1
I0
I1
I2
I1
I2
I1
I-1
I2
I-1
I1
I-2
I-2
I-2
I-2
I-1
I-2
I2
I1
I1
I2
I1
I2
I1
I2
I0
I-1
I1
I-1
I2
I-1
I2
I2
I-2
I-1
I-2
I-2
I-2
I-1
I-1
I-1
I2
I-1
I2
I2
I2
I-1
I-2
I-2
I1
I-1
I1
I-1
I2
I2
I2
I2
I1
I2
I-2
I0
I-1
I-2
I-1
I-1
I-1
I-1
I1
I1
I2
I1
I2
I1
I1
I2
I-2
I1
I-2
I-2
I-2
I-2
I-1
I-1
I2
I-1
I1
I2
I2
I1
I1
I2
I-2
I-2
I1
I-2
I-1
I-2
I2
I-2
I-2
I1
I-2
I1
I-1
I2
I-2
I1
I1
I-2
I1
I-2
I1
I-1
I-2
I-1
I1
I-1
I1
I-1
I1
I1
I1
I2
I1
I1
I-2
I1
I-1
I-1
I-1
I-1
I1
I1
I1
I-1
I2
I1
I2
I1
I1
I2
I-2
I1
I-1
I-2
I-1
I-1
I0
I1
I1
I-1
I2
I1
I2
I1
I1
I2
I-2
I-2
I-2
I-2
I-2
I-2
I1
I-2
I2
I2
I2
I2
I2
I2
I-1
I2
I-1
I-1
I-2
I-2
I0
I-1
I-2
I-1
I-1
I-1
I1
I-1
I1
I1
I1
I0
I0
I2
I-1
I-1
I-1
I-1
I0
I-1
I1
I2
I-1
I-1
I1
I0
I1
I1
I2
I1
I-2
I0
I-1
I-1
I1
I1
I1
I2
I-1
I-1
I2
I-1
I2
I-1
I1
I2
I-2
I-1
I-2
I-2
I-2
I-2
I-2
I-2
I2
I1
I2
I2
I2
I2
I0
I2
I-2
I0
I-2
I-2
I1
I1
I0
I1
I-2
I-1
I1
I0
I1
I-1
I2
I-2
I-1
I1
I-2
I-1
I-1
I-2
I1
I-2
I-1
I1
I-2
I-2
I-1
I-1
I-1
I-1
I1
I-1
I-1
I-1
I1
I1
I2
I1
I-1
I1
I-2
I-1
I2
I-2
I1
I-2
I-1
I-1
I-2
I2
I-2
I-1
I-2
I-2
I-2
I-2
I2
I0
I2
I2
I2
I2
I1
I2
I-2
I-1
I-2
I-2
I1
I1
I2
I1
I1
I1
I2
I-1
I2
I-1
I1
I1
I-2
I2
I-1
I-1
I-1
I-2
I-2
I1
I1
I2
I2
I1
I-1
I1
I2
I-1
I-1
I1
I2
I-2
I1
I-1
I2
I-1
I2
I1
I2
I-2
I-1
I-2
tp10
sS'04fff86541e0025a.jpg'
p11
(I-2
I-1
I-2
I2
I0
I1
I-1
I2
I0
I1
I-1
I2
I2
I-1
I2
I1
I2
I2
I-2
I1
I1
I0
I-1
I-1
I-2
I-1
I-2
I-2
I2
I-1
I1
I1
I2
I1
I0
I2
I2
I2
I0
I2
I2
I1
I-1
I-2
I-1
I-1
I2
I1
I1
I2
I2
I1
I1
I2
I-2
I-2
I-1
I-2
I1
I-2
I1
I1
I-2
I-2
I-1
I-1
I-1
I-1
I-1
I-2
I-2
I0
I1
I1
I-1
I0
I-2
I-1
I1
I2
I-1
I1
I0
I-1
I0
I2
I2
I-1
I-2
I0
I1
I0
I2
I2
I-2
I-2
I-2
I-1
I0
I1
I2
I-1
I-2
I-2
I0
I2
I-1
I1
I-1
I1
I2
I1
I1
I-1
I2
I-1
I2
I2
I1
I1
I-2
I-1
I1
I-2
I1
I-2
I-2
I0
I-1
I1
I0
I-1
I-2
I-2
I-1
I-2
I2
I2
I1
I2
I1
I1
I1
I2
I1
I0
I0
I-1
I2
I-1
I2
I2
I-2
I-2
I-1
I-2
I1
I1
I-1
I-2
I-2
I-2
I-2
I-1
I-2
I-1
I-2
I-2
I1
I1
I2
I-1
I-1
I-2
I-2
I-2
I1
I-2
I-1
I-1
I2
I2
I1
I2
I-1
I1
I-1
I2
I2
I-1
I2
I-1
I-1
I-1
I0
I1
I-1
I-2
I-1
I-2
I-2
I1
I2
I-1
I1
I1
I2
I-1
I2
I2
I-2
I-2
I-1
I-2
I-1
I-2
I-2
I-2
I-2
I1
I1
I1
I-2
I-1
I-2
I-2
I2
I2
I1
I2
I-1
I0
I-1
I0
I2
I1
I1
I0
I1
I-1
I-2
I-2
I-2
I-2
I2
I1
I1
I2
I1
I1
I-1
I2
I-1
I1
I2
I-1
I1
I-1
I2
I2
I1
I2
I1
I-1
I2
I2
I2
I2
I-1
I-2
I2
I-2
I0
I1
I-1
I-2
I-2
I2
I1
I0
I-2
I-1
I-2
I-1
I2
I2
I0
I2
I-1
I1
I1
I2
I2
I1
I0
I1
I1
I2
I2
I2
I0
I-1
I-1
I2
I2
I2
I-1
I-1
I-1
I-1
I2
I1
I1
I1
I2
I1
I1
I2
I-2
I-2
I-2
I-2
I1
I-2
I-1
I0
I-2
I-2
I-1
I-1
I-1
I-2
I-1
I-2
I-2
I1
I1
I1
I-1
I0
I-2
I1
I2
I2
I-1
I1
I1
I-1
I2
I2
I1
I-1
I-2
I-1
I2
I1
I2
I1
I-2
I-2
I-2
I-2
I-2
I1
I-1
I-2
I-2
I-2
I2
I1
I-1
I1
I-1
I1
I2
I1
I1
I-1
I2
I-1
I1
I1
I-1
I-1
I-2
I1
I2
I-1
I1
I-2
I-2
I2
I0
I1
I0
I-1
I-2
I-2
I1
I-1
I2
I2
I1
I2
I2
I2
I1
I2
I-1
I-2
I-1
I-2
I2
I-1
I2
I-1
I-2
I-2
I-1
I-2
I-2
I0
I-2
I-2
I-1
I1
I-1
I2
I-1
I-1
I-2
I-2
I2
I1
I1
I-2
I-1
I-2
I-1
I-2
I0
I-2
I-1
I1
I2
I2
I0
I2
I-1
I2
I1
I1
I2
I0
I2
I-1
I2
I2
I-2
I-1
I-2
I-2
I-1
I-2
I-1
I0
I1
I-1
I1
I1
I2
I-1
I1
I-1
I-2
I-2
I0
I-2
I-2
I-2
I-2
I-2
I1
I2
I1
I2
I-2
I-1
I-2
I-1
I2
I2
I2
I2
I1
I1
I2
I2
I2
I1
I-1
I1
I2
I0
I-2
I-2
I2
I1
I1
I2
I2
I-2
I-2
I2
I-2
I1
I-2
I1
I1
I-1
I1
I0
I-1
I2
I-1
I-1
I1
I2
I1
I1
I-1
I2
I2
I-1
I1
I1
I1
I-2
I-1
I-1
I1
I-2
I-2
I-1
tp12
s.