(dp0
S'115e20496b1f5066.jpg'
p1
(I0
I1
I-2
I0
I-2
I1
I-2
I-2
I2
I1
I-1
I-1
I1
I-1
I1
I-1
I1
I2
I-1
I2
I-1
I2
I2
I-2
I1
I1
I2
I2
I-1
I1
I2
I2
I0
I-1
I-1
I1
I-1
I-1
I1
I-1
I1
I-1
I-1
I-2
I-2
I-2
I2
I2
I1
I2
I1
I1
I-1
I2
I2
I1
I1
I-1
I1
I-1
I2
I2
I-1
I-1
I1
I-1
I2
I1
I2
I2
I-2
I-2
I-1
I-2
I1
I-1
I2
I2
I-2
I-2
I-2
I-1
I1
I1
I1
I-1
I-2
I-2
I-1
I-1
I-2
I0
I-1
I0
I0
I1
I1
I2
I1
I1
I2
I-1
I1
I-1
I-1
I2
I-1
I2
I-1
I-1
I-1
I1
I2
I1
I1
I1
I2
I1
I2
I2
I-2
I-2
I-1
I-2
I2
I-1
I2
I2
I-2
I-2
I1
I-2
I2
I1
I-1
I-1
I-2
I-2
I-1
I-2
I-1
I-2
I-2
I1
I-2
I-1
I0
I1
I-1
I-2
I1
I-2
I1
I1
I-1
I1
I1
I1
I-2
I2
I0
I-2
I-2
I-1
I-2
I-2
I1
I-2
I1
I1
I2
I2
I1
I1
I-1
I2
I-1
I1
I-1
I-2
I1
I-2
I2
I-2
I-1
I2
I-2
I-2
I-1
I-2
I-1
I-2
I-1
I-2
I-2
I1
I2
I1
I-1
I1
I-1
I-1
I1
I2
I2
I1
I2
I-1
I-1
I2
I-1
I-1
I-1
I-2
I-2
I-2
I1
I-2
I2
I2
I2
I2
I2
I2
I-1
I2
I-2
I-1
I-2
I-2
I-2
I-2
I-1
I-2
I2
I-1
I2
I2
I-1
I1
I2
I1
I0
I1
I-1
I1
I2
I-1
I2
I-1
I-1
I2
I-2
I1
I-1
I-2
I-1
I-2
I0
I1
I2
I1
I1
I1
I0
I1
I1
I2
I1
I1
I2
I0
I2
I1
I2
I2
I-2
I-1
I-2
I-2
I-2
I-2
I-1
I-2
I2
I1
I2
I2
I2
I2
I1
I2
I-2
I1
I-2
I-2
I-2
I-2
I1
I-2
I2
I1
I2
I2
I-1
I0
I1
I1
I1
I-1
I-1
I1
I2
I-1
I2
I1
I-1
I2
I-2
I0
I-1
I-2
I1
I-2
I-1
I1
I-1
I-1
I-1
I-1
I1
I-1
I1
I1
I-2
I-2
I1
I-1
I1
I1
I0
I1
I-2
I1
I-2
I-1
I-2
I-1
I1
I1
I2
I-1
I2
I2
I2
I2
I2
I1
I-2
I-1
I-2
I-2
I-2
I-1
I-2
I-2
I2
I1
I2
I1
I-1
I-1
I-1
I-1
I2
I-1
I1
I1
I2
I1
I2
I2
I1
I1
I-2
I1
I1
I-2
I2
I-2
I-2
I-1
I-1
I-1
I-1
I-2
I-1
I-2
I-2
I-2
I-1
I0
I1
I1
I1
I-2
I-2
I-1
I-1
I-1
I-2
I-1
I-1
I-2
I-2
I-2
I-1
I-2
I1
I1
I-2
I-2
I-2
I-2
I-1
I2
I-1
I2
I-1
I-1
I-1
I1
I2
I1
I1
I0
I2
I-2
I-2
I-2
I0
I0
I1
I-1
I2
I2
I-1
I2
I2
I2
I-1
I2
I2
I1
I2
I2
I2
I1
I1
I2
I2
I-2
I1
I-1
I-2
I-2
I2
I2
I2
I-1
I1
I-2
I-2
I-2
I1
I2
I2
I-1
I-1
I-2
I-2
I-2
I2
I2
I1
I1
I-1
I-2
I-1
I2
I2
I1
I0
I1
I2
I-1
I2
I2
I-1
I-2
I-2
I1
I-1
I0
I-2
I1
I0
I-2
I-2
I-1
I-2
I-2
I-2
I1
I2
I-2
I-1
I2
I2
I2
I1
I2
I2
I2
I-1
I1
I2
I2
I2
I-1
I1
I2
I1
I1
I-1
I2
I-2
I-2
I-1
I-2
I-2
I-2
I1
I2
tp2
sS'e53f4adeaa7c1666.jpg'
p3
(I-1
I1
I1
I1
I2
I1
I1
I-1
I-2
I1
I-1
I-2
I-1
I-1
I1
I-2
I-2
I-1
I-1
I-2
I-2
I-2
I-1
I2
I1
I-1
I2
I2
I-1
I2
I1
I2
I2
I-2
I-2
I-1
I1
I1
I2
I2
I2
I-1
I-1
I1
I1
I2
I-1
I-1
I1
I-1
I-2
I1
I2
I1
I1
I2
I2
I2
I2
I2
I2
I2
I1
I2
I2
I-2
I1
I1
I1
I1
I1
I2
I1
I-1
I2
I-1
I1
I0
I1
I-2
I-1
I-2
I1
I-2
I-2
I-1
I-2
I-2
I1
I-1
I2
I-2
I-2
I0
I-2
I-1
I-2
I-2
I0
I-2
I-2
I-2
I-1
I-2
I0
I-2
I-2
I-1
I-1
I2
I-1
I-2
I-2
I-2
I-2
I-2
I-2
I-2
I-2
I-2
I-1
I-2
I-1
I2
I-1
I-2
I-1
I2
I-2
I-1
I1
I1
I1
I0
I2
I2
I-1
I-1
I2
I-1
I-1
I2
I2
I1
I0
I2
I2
I1
I1
I2
I1
I1
I1
I2
I2
I-1
I2
I-1
I0
I2
I0
I2
I2
I-2
I-2
I-2
I1
I1
I2
I2
I2
I2
I2
I1
I2
I-1
I1
I2
I2
I2
I2
I1
I2
I2
I2
I2
I2
I1
I0
I-2
I2
I1
I0
I-1
I-2
I-2
I-2
I-2
I1
I-2
I-2
I-1
I-2
I-2
I-2
I-1
I-2
I-2
I-1
I1
I-1
I-1
I1
I2
I1
I1
I2
I1
I-1
I0
I2
I-1
I2
I2
I1
I2
I-2
I-1
I-2
I-2
I-1
I-2
I-2
I-1
I-1
I-2
I1
I-1
I-1
I-1
I-2
I1
I-1
I2
I-2
I-2
I-1
I-1
I-1
I-2
I1
I-1
I-2
I0
I2
I1
I-1
I2
I1
I1
I1
I2
I2
I1
I2
I1
I1
I1
I1
I1
I-1
I-2
I2
I-1
I-1
I-2
I-1
I-2
I-2
I-2
I-2
I-2
I-2
I-2
I-1
I-1
I2
I2
I1
I-2
I-1
I2
I-2
I2
I1
I-1
I1
I-2
I1
I-2
I1
I1
I-1
I1
I-2
I1
I2
I2
I-1
I-2
I-2
I-1
I-2
I-2
I-1
I-2
I-2
I-2
I1
I-1
I-1
I1
I-1
I-2
I-1
I1
I-1
I-1
I1
I1
I1
I-1
I1
I1
I-1
I1
I2
I-1
I-1
I1
I1
I1
I2
I2
I2
I1
I1
I2
I1
I2
I2
I1
I2
I-1
I2
I1
I1
I2
I-2
I-1
I-1
I-2
I-2
I-2
I1
I1
I2
I2
I2
I2
I2
I1
I2
I-1
I2
I2
I2
I2
I2
I1
I2
I2
I2
I2
I2
I1
I1
I-2
I2
I2
I2
I2
I-1
I-1
I-1
I-2
I-1
I0
I-1
I-1
I-1
I-1
I-2
I1
I-1
I-1
I-1
I1
I-1
I-1
I-1
I1
I1
I-1
I2
I2
I-2
I-1
I2
I-1
I2
I1
I1
I-1
I-2
I-1
I-2
I-2
I-1
I-2
I-2
I-2
I-1
I-2
I1
I-2
I-2
I-2
I-2
I2
I-1
I-1
I-2
I-2
I-2
I-2
I-1
I-2
I-2
I-2
I-2
I-2
I0
I1
I-1
I-2
I-1
I-2
I-2
I1
I1
I1
I-1
I-1
I-1
I1
I1
I1
I1
I1
I2
I-1
I1
I-1
I-2
I-2
I-1
I-2
I-1
I-2
I-2
I-2
I-2
I-1
I2
I1
I-1
I-2
I-2
I2
I1
I2
I2
I1
I-1
I-1
I2
I-1
I2
I2
I1
I2
I1
I1
I2
I1
I1
I2
I2
I-1
I1
I2
I1
I1
I-1
I-1
I2
I1
I1
I1
I1
I-1
I-1
I2
I-1
I-1
I1
I2
I2
I1
I1
I2
I2
I1
I-1
I2
I-2
I-2
I-2
I-2
I-2
I1
I-1
I2
tp4
sS'b6c72733ffee750a.jpg'
p5
(I-1
I1
I-2
I1
I-2
I1
I-2
I-2
I2
I-1
I-2
I-2
I-1
I1
I1
I-1
I1
I2
I-1
I1
I-1
I2
I2
I-1
I1
I1
I2
I2
I-1
I1
I2
I2
I1
I-1
I-1
I1
I-1
I-1
I1
I-1
I-1
I-1
I-1
I-2
I-2
I-2
I2
I2
I2
I2
I-1
I2
I-1
I2
I2
I2
I1
I1
I1
I-1
I2
I2
I1
I-1
I1
I-1
I2
I1
I2
I2
I-2
I-2
I-1
I-2
I2
I1
I2
I2
I-2
I-2
I-2
I-2
I1
I-1
I-1
I1
I-2
I-2
I-1
I-1
I-2
I-1
I-1
I1
I-1
I1
I1
I2
I-1
I1
I2
I-1
I1
I1
I1
I2
I-1
I2
I-2
I-2
I-2
I-2
I2
I1
I1
I2
I2
I1
I1
I2
I-2
I-2
I-1
I-2
I2
I-2
I2
I2
I-2
I-2
I-1
I-2
I1
I-1
I-1
I-1
I-2
I-2
I1
I-1
I0
I-1
I-1
I1
I-2
I1
I1
I0
I1
I-1
I1
I-1
I-1
I1
I-2
I-1
I1
I1
I-2
I1
I-1
I-2
I-2
I-1
I-2
I-2
I0
I-2
I1
I1
I2
I2
I1
I2
I-1
I0
I-1
I0
I2
I-1
I2
I0
I2
I0
I0
I2
I-2
I-2
I1
I-2
I-1
I-2
I1
I-1
I-2
I1
I1
I1
I-1
I1
I-1
I-1
I1
I1
I1
I1
I2
I-1
I-1
I2
I-1
I-1
I-1
I-2
I-2
I-2
I1
I-2
I1
I2
I2
I2
I2
I2
I-1
I2
I-1
I0
I-2
I-2
I-2
I-2
I0
I-2
I2
I-1
I2
I2
I1
I1
I0
I0
I0
I-1
I0
I0
I2
I0
I2
I0
I-1
I2
I-2
I-1
I-1
I-2
I-2
I-2
I1
I-1
I1
I1
I1
I2
I1
I2
I1
I1
I1
I1
I2
I-1
I2
I1
I1
I2
I-2
I-1
I-2
I-2
I-2
I-1
I-1
I-2
I2
I1
I2
I2
I2
I2
I1
I2
I-2
I0
I-2
I-2
I-2
I-2
I1
I-2
I2
I-1
I2
I2
I-1
I0
I0
I-1
I2
I-1
I1
I1
I2
I1
I2
I2
I-1
I2
I-2
I-1
I-2
I-2
I-1
I-2
I-2
I-1
I1
I-1
I-1
I1
I1
I-1
I1
I1
I-1
I-1
I1
I-1
I1
I1
I1
I2
I-2
I1
I-2
I-1
I-2
I-1
I1
I-1
I2
I-1
I2
I2
I2
I2
I2
I1
I-2
I-1
I-2
I-2
I-2
I-2
I-2
I-2
I2
I1
I2
I1
I-1
I-2
I-2
I-2
I2
I-2
I1
I1
I2
I2
I2
I2
I1
I0
I-2
I2
I1
I-2
I2
I-2
I-2
I-1
I1
I-1
I-1
I-2
I1
I-2
I-2
I-2
I-1
I-1
I1
I-1
I1
I-2
I-2
I-1
I-2
I-1
I-2
I-1
I-2
I-2
I-2
I-2
I1
I-2
I2
I2
I-1
I-1
I-1
I-2
I-1
I2
I-1
I1
I-1
I-1
I-1
I-1
I2
I1
I1
I0
I1
I-2
I-2
I-2
I0
I0
I2
I-1
I2
I2
I-1
I2
I2
I2
I0
I2
I2
I1
I2
I2
I2
I1
I1
I2
I2
I-2
I1
I-1
I-2
I-2
I2
I2
I2
I-1
I1
I-2
I-2
I-2
I1
I2
I1
I-1
I-1
I-2
I-2
I-2
I2
I1
I1
I1
I-1
I-2
I-2
I1
I2
I1
I0
I1
I1
I-1
I2
I1
I1
I-1
I-1
I1
I1
I0
I-2
I0
I0
I-2
I-2
I0
I-2
I-2
I-2
I1
I2
I-2
I-1
I2
I2
I2
I1
I2
I2
I2
I-1
I1
I2
I2
I2
I-1
I1
I2
I2
I1
I-1
I2
I-1
I-2
I-1
I-2
I-1
I-1
I-1
I1
tp6
sS'f0f6d7d85c70913c.jpg'
p7
(I-1
I2
I1
I1
I-1
I2
I2
I-1
I1
I-1
I2
I-1
I-2
I1
I-1
I1
I-1
I-1
I1
I1
I-1
I-1
I-1
I-1
I1
I-2
I-2
I-1
I-1
I1
I-2
I-2
I-1
I-1
I-1
I-2
I-2
I-2
I1
I-2
I-2
I-2
I-2
I-2
I0
I-1
I-1
I-2
I-2
I2
I-2
I2
I1
I-2
I1
I1
I-1
I2
I-1
I2
I-2
I-1
I1
I1
I1
I1
I-1
I-1
I1
I-1
I1
I1
I2
I1
I-1
I1
I1
I0
I1
I2
I2
I1
I1
I1
I1
I2
I1
I2
I2
I-1
I1
I-1
I1
I2
I1
I2
I2
I-1
I1
I1
I2
I1
I2
I2
I-1
I2
I1
I0
I-2
I-2
I-1
I-2
I1
I-1
I-2
I2
I-2
I1
I-1
I-2
I2
I2
I1
I2
I1
I2
I1
I1
I1
I-1
I-1
I-1
I-1
I0
I1
I1
I1
I-1
I-1
I1
I-1
I1
I1
I2
I0
I-1
I1
I1
I2
I1
I2
I2
I-2
I-1
I-1
I-2
I2
I1
I1
I2
I-2
I-2
I-2
I-2
I-2
I-2
I-1
I-1
I-1
I-1
I2
I2
I2
I1
I-1
I-2
I-1
I-2
I2
I1
I-2
I2
I-2
I1
I-1
I-1
I2
I-1
I0
I2
I1
I1
I1
I-1
I-1
I-1
I-1
I-1
I-1
I1
I-1
I0
I-1
I-1
I-1
I1
I1
I-1
I0
I2
I-2
I-2
I-1
I-1
I1
I-1
I2
I-1
I-2
I-1
I2
I-1
I2
I2
I-2
I-1
I-2
I1
I-2
I-2
I-1
I-2
I-2
I-1
I1
I-2
I1
I-2
I-1
I1
I-1
I-2
I-2
I-2
I2
I1
I-2
I2
I-1
I1
I-2
I-2
I1
I-1
I-1
I1
I-1
I-2
I-2
I2
I1
I1
I1
I1
I1
I-1
I2
I1
I0
I0
I1
I-1
I2
I2
I1
I-1
I-2
I-2
I-2
I-2
I-2
I-2
I-2
I-2
I1
I2
I2
I2
I1
I-1
I-2
I1
I1
I2
I2
I-1
I2
I-2
I1
I1
I1
I1
I-2
I-1
I-1
I2
I-1
I-2
I1
I-1
I2
I2
I2
I2
I0
I2
I1
I2
I2
I2
I1
I0
I2
I1
I2
I2
I-2
I-2
I-2
I-2
I-2
I-2
I-2
I-2
I-1
I-1
I2
I2
I-1
I1
I-1
I2
I1
I2
I1
I1
I-2
I1
I2
I1
I2
I2
I2
I2
I2
I2
I2
I2
I-1
I-1
I1
I-2
I1
I-1
I0
I-1
I-1
I1
I-1
I-1
I-1
I-1
I-2
I-2
I-1
I-2
I1
I-1
I-1
I2
I1
I1
I-1
I-2
I-2
I-2
I2
I-1
I-1
I-2
I-2
I2
I-2
I2
I-1
I1
I-2
I-2
I2
I-2
I2
I1
I-1
I2
I2
I2
I-1
I2
I-2
I-2
I-2
I-2
I-2
I-2
I-1
I-2
I-1
I-2
I1
I2
I1
I1
I-1
I1
I-2
I0
I1
I-1
I-1
I-1
I1
I-2
I1
I1
I1
I1
I-2
I1
I-1
I-2
I-1
I-2
I2
I1
I2
I2
I-1
I1
I-2
I-2
I2
I2
I2
I1
I2
I-1
I-2
I2
I-2
I-2
I-2
I-2
I-2
I-2
I-2
I-2
I2
I1
I2
I2
I2
I2
I1
I2
I-2
I1
I-1
I-2
I-1
I-2
I0
I-2
I2
I1
I1
I1
I2
I1
I-1
I-2
I-1
I-1
I-1
I-2
I-2
I-2
I-2
I-2
I2
I2
I2
I-1
I-2
I1
I-1
I-2
I2
I2
I1
I2
I-1
I2
I2
I2
I1
I2
I-2
I2
I-2
I-2
I-2
I2
I-1
I2
I2
I2
I-2
I0
I-1
I-2
I-2
I2
I1
I2
I2
I-2
I2
I2
I1
I2
I-1
I2
I2
I1
tp8
sS'df8fe40368e2c2a3.jpg'
p9
(I-2
I1
I-2
I2
I2
I2
I1
I2
I-2
I-1
I-2
I-1
I-2
I1
I1
I1
I-1
I-1
I-1
I-2
I-2
I-1
I-2
I2
I1
I1
I-1
I1
I-1
I0
I-1
I1
I1
I0
I-1
I1
I1
I1
I1
I2
I2
I-1
I-2
I-2
I-2
I-2
I2
I-1
I2
I2
I2
I1
I1
I2
I-2
I1
I-1
I-2
I-2
I-2
I1
I0
I2
I1
I2
I2
I1
I2
I2
I2
I1
I1
I-1
I-1
I-1
I1
I1
I-2
I2
I1
I1
I1
I1
I2
I-1
I2
I-1
I-1
I-1
I-2
I1
I-2
I1
I-2
I-1
I-1
I-2
I-1
I-1
I-1
I-2
I-2
I-1
I-2
I1
I-2
I-2
I2
I-2
I-1
I1
I-2
I2
I-1
I2
I1
I2
I1
I-1
I2
I-2
I-1
I-2
I-2
I-1
I-2
I1
I-1
I0
I-2
I-1
I1
I0
I1
I1
I1
I-2
I-1
I-2
I0
I-2
I1
I1
I-2
I2
I1
I2
I2
I2
I2
I1
I2
I-2
I-1
I1
I-2
I-2
I-1
I1
I1
I2
I2
I2
I2
I-1
I2
I2
I2
I2
I2
I1
I2
I2
I-1
I-1
I-2
I1
I-1
I2
I1
I2
I2
I2
I2
I1
I2
I-2
I-1
I-1
I-2
I-1
I-2
I-1
I-2
I1
I-1
I-1
I1
I1
I-1
I-1
I-2
I-1
I-1
I-2
I-1
I-2
I-2
I-2
I-2
I2
I-1
I1
I2
I1
I0
I-2
I1
I-2
I-1
I-2
I-1
I1
I-2
I0
I-1
I-1
I-2
I-2
I-1
I1
I-1
I-1
I-1
I-2
I-2
I-1
I-1
I-1
I-1
I-2
I-2
I-1
I-1
I1
I-1
I2
I2
I2
I1
I1
I2
I-2
I1
I1
I-2
I-1
I-1
I1
I-1
I2
I1
I2
I1
I-1
I2
I1
I2
I2
I2
I0
I1
I-2
I1
I2
I-1
I2
I2
I2
I2
I2
I2
I1
I2
I-1
I0
I1
I-2
I-1
I-2
I1
I-2
I1
I1
I1
I1
I0
I1
I-1
I-1
I1
I1
I0
I-1
I-1
I1
I-1
I0
I-1
I-2
I1
I-1
I1
I0
I2
I-1
I-2
I2
I-2
I-1
I-2
I-2
I-1
I-2
I1
I-1
I1
I-1
I-1
I1
I1
I2
I-1
I1
I-2
I-2
I-2
I-1
I-2
I-2
I-1
I-2
I1
I-1
I2
I2
I2
I2
I1
I2
I-2
I-1
I-1
I-2
I-2
I-2
I1
I-1
I2
I1
I1
I2
I1
I2
I2
I2
I1
I1
I-1
I1
I1
I1
I1
I-2
I1
I-1
I2
I2
I2
I2
I2
I2
I1
I2
I-2
I-1
I-2
I-2
I-2
I-2
I0
I-2
I1
I1
I2
I2
I1
I2
I1
I2
I-1
I1
I-2
I-1
I-2
I-1
I1
I-2
I2
I-1
I2
I2
I2
I2
I-2
I1
I-2
I-1
I-2
I-2
I-2
I-2
I-2
I-2
I1
I-2
I-1
I2
I1
I0
I-2
I-1
I-2
I-1
I-1
I-2
I-1
I-1
I-2
I-2
I1
I-1
I1
I-1
I2
I2
I2
I2
I1
I2
I-2
I0
I-2
I-2
I-2
I-2
I-1
I-2
I2
I-1
I1
I2
I1
I1
I0
I0
I-2
I-1
I-2
I-1
I-2
I-1
I-1
I-2
I2
I2
I2
I2
I2
I2
I1
I2
I-1
I2
I0
I-2
I-2
I-2
I1
I-2
I2
I2
I2
I2
I2
I2
I1
I1
I1
I1
I-2
I-1
I-1
I-1
I-2
I-1
I1
I-1
I2
I1
I2
I-2
I1
I-1
I-2
I-1
I2
I0
I1
I1
I0
I0
I1
I-2
I0
I-2
I2
I-1
I2
I2
I2
I-2
I-1
I-2
I-2
I-2
I2
I-1
I1
I2
I1
I-1
I1
I-1
tp10
sS'a75fb6613d992706.jpg'
p11
(I2
I-1
I2
I-2
I1
I-2
I-1
I-1
I-1
I1
I-2
I-1
I-2
I-1
I-1
I-2
I-2
I-2
I1
I1
I-2
I-2
I-1
I-1
I-2
I-2
I-1
I-2
I2
I-1
I1
I-2
I-2
I1
I-2
I-2
I-2
I-2
I2
I1
I1
I1
I2
I2
I2
I2
I-2
I1
I2
I-2
I1
I1
I1
I2
I1
I1
I2
I-1
I-1
I1
I2
I2
I2
I2
I2
I1
I0
I2
I2
I2
I2
I2
I2
I0
I2
I2
I2
I2
I1
I1
I-1
I-2
I-2
I1
I2
I-1
I2
I2
I2
I2
I1
I2
I2
I2
I2
I2
I-1
I-1
I0
I2
I2
I2
I2
I-1
I0
I2
I1
I-2
I-1
I1
I-1
I1
I-2
I-1
I-1
I-1
I2
I-2
I1
I1
I-2
I-2
I-2
I-2
I0
I-2
I-1
I-1
I-2
I-2
I-2
I0
I-1
I-1
I-1
I-1
I-2
I-2
I-1
I1
I2
I-1
I-1
I0
I-2
I-2
I-2
I-2
I-2
I-2
I-2
I-2
I1
I-2
I-2
I2
I-1
I1
I-1
I-1
I-2
I-2
I-2
I1
I-1
I1
I1
I-2
I-2
I-2
I1
I1
I-2
I1
I2
I2
I-1
I1
I-1
I-1
I2
I-2
I1
I-2
I-2
I-1
I-1
I1
I1
I-1
I-1
I-2
I-2
I-1
I1
I1
I1
I1
I1
I-1
I0
I-1
I1
I1
I2
I-1
I1
I-1
I-1
I0
I0
I2
I-1
I-1
I-2
I-2
I-1
I-2
I2
I1
I-1
I2
I1
I2
I-1
I-2
I1
I-1
I-1
I-1
I-2
I-1
I-2
I-2
I2
I2
I2
I-1
I1
I1
I2
I2
I2
I2
I-1
I2
I2
I-2
I1
I0
I2
I2
I1
I2
I1
I-1
I1
I1
I2
I1
I1
I0
I1
I-1
I-1
I1
I1
I1
I1
I1
I2
I1
I1
I1
I1
I2
I0
I1
I-2
I-1
I-2
I-1
I2
I0
I2
I1
I1
I2
I-2
I2
I2
I1
I2
I2
I1
I2
I1
I2
I2
I2
I2
I-1
I-1
I2
I1
I-2
I0
I2
I-1
I1
I-2
I-2
I-1
I-2
I1
I-2
I-1
I-1
I-2
I-2
I-1
I-1
I-1
I-2
I-1
I-1
I-1
I-1
I-1
I1
I1
I-1
I-1
I1
I-1
I-1
I1
I-1
I2
I-1
I0
I-1
I-2
I-2
I-2
I-2
I-2
I-2
I-2
I-2
I0
I-2
I-2
I2
I-2
I-1
I-2
I-2
I-1
I-2
I-2
I2
I-1
I-1
I-1
I-2
I-2
I-1
I1
I-1
I-2
I1
I2
I2
I1
I2
I-1
I1
I2
I-2
I1
I-1
I1
I1
I1
I1
I1
I-1
I0
I1
I1
I2
I1
I1
I1
I0
I1
I1
I2
I2
I-1
I0
I2
I-1
I-1
I2
I1
I2
I1
I2
I1
I1
I-1
I2
I2
I0
I2
I2
I1
I1
I-1
I2
I1
I-2
I2
I1
I1
I1
I-2
I2
I-2
I0
I2
I2
I2
I0
I2
I-1
I1
I2
I-1
I1
I-2
I-1
I-1
I-2
I1
I-2
I-1
I1
I-1
I-1
I-1
I-1
I2
I-1
I1
I-1
I-2
I-2
I-2
I-2
I-1
I-1
I-2
I-1
I-2
I-1
I-2
I1
I1
I-2
I-1
I1
I-2
I-2
I-2
I-1
I-2
I-2
I0
I-1
I0
I-1
I-2
I2
I-2
I2
I2
I-1
I2
I2
I0
I2
I2
I2
I2
I2
I0
I-2
I-2
I2
I0
I1
I2
I2
I-1
I1
I1
I-2
I2
I-1
I-1
I1
I-2
I-1
I1
I2
I2
I1
I1
I1
I1
I2
I-1
I2
I-1
I0
I-2
I-2
I-1
I1
I-2
I-2
I1
I-2
I1
I-2
I-2
I2
I-2
I-2
I0
I2
tp12
sS'3ae9459db31de229.jpg'
p13
(I-2
I1
I-2
I2
I-2
I2
I1
I-2
I2
I2
I2
I1
I1
I-2
I-1
I-2
I-2
I1
I1
I1
I-2
I2
I1
I-1
I2
I1
I1
I1
I-2
I2
I-2
I-1
I-2
I-2
I-2
I-2
I-2
I-2
I2
I-2
I0
I-1
I-2
I-2
I-2
I-2
I2
I-1
I-2
I2
I-2
I2
I1
I-1
I2
I-1
I2
I2
I-1
I2
I2
I2
I-1
I2
I2
I1
I2
I2
I2
I2
I-1
I-2
I-1
I-2
I-1
I1
I2
I-1
I-1
I-1
I2
I1
I1
I2
I0
I2
I-1
I1
I2
I-1
I-2
I-1
I2
I-1
I2
I2
I2
I2
I2
I2
I1
I2
I2
I0
I-2
I0
I0
I2
I-2
I-1
I1
I-2
I2
I-1
I-2
I1
I-1
I2
I-1
I-2
I1
I-2
I-2
I1
I2
I0
I-2
I1
I-2
I-2
I-1
I-2
I1
I-2
I-1
I-1
I-2
I-2
I-2
I-1
I-2
I-2
I-2
I-1
I1
I0
I1
I2
I2
I1
I1
I2
I-2
I-2
I-2
I-2
I-2
I-1
I-1
I-1
I1
I-1
I0
I2
I1
I1
I1
I1
I-2
I0
I-1
I1
I1
I-1
I-2
I-2
I0
I-1
I2
I1
I0
I2
I-2
I2
I2
I0
I2
I2
I2
I2
I2
I2
I2
I2
I-1
I1
I2
I-2
I0
I-1
I-1
I0
I1
I2
I-1
I0
I1
I-1
I0
I1
I1
I-1
I1
I-1
I1
I-1
I-1
I-1
I-2
I1
I-2
I-1
I-1
I-1
I-1
I-1
I1
I-1
I-1
I1
I0
I-1
I0
I-2
I-1
I-1
I0
I0
I-2
I0
I-2
I0
I0
I-2
I1
I-2
I-2
I0
I-2
I1
I-1
I-2
I0
I-2
I1
I2
I0
I1
I-1
I1
I-2
I1
I1
I0
I1
I-1
I1
I2
I0
I0
I1
I-1
I1
I0
I1
I0
I-1
I1
I1
I-1
I0
I1
I-1
I1
I1
I1
I1
I0
I0
I-1
I1
I-1
I1
I0
I0
I0
I-2
I1
I-1
I0
I2
I2
I2
I2
I2
I0
I-1
I-2
I-1
I-2
I2
I1
I-1
I2
I-1
I1
I-1
I-2
I2
I1
I1
I1
I1
I0
I-2
I0
I-1
I-1
I0
I-1
I1
I-2
I-1
I1
I-2
I-1
I-1
I-1
I-1
I-2
I0
I1
I0
I1
I1
I1
I2
I1
I2
I2
I-1
I-1
I-1
I-2
I-1
I0
I1
I-2
I1
I1
I-2
I1
I1
I2
I-2
I1
I0
I-2
I-1
I-2
I1
I1
I-1
I-2
I-1
I-1
I2
I1
I0
I2
I-2
I2
I2
I1
I2
I2
I2
I2
I2
I2
I2
I2
I0
I1
I2
I-2
I2
I1
I2
I2
I-1
I0
I-1
I-2
I1
I1
I2
I1
I-1
I-2
I0
I-1
I1
I1
I1
I1
I-2
I-1
I-2
I-1
I-2
I-1
I0
I-1
I2
I2
I2
I2
I2
I2
I2
I1
I-1
I-1
I-2
I-1
I-2
I1
I-2
I0
I1
I-1
I1
I-2
I-2
I0
I-1
I1
I-1
I-2
I-1
I-2
I-1
I1
I2
I-1
I-2
I-1
I-2
I-2
I-1
I-2
I1
I-2
I-2
I-2
I-2
I-2
I-1
I-1
I-1
I-2
I-2
I-2
I-1
I-1
I1
I1
I0
I-2
I-2
I-2
I-1
I0
I-2
I0
I-1
I-2
I-2
I1
I1
I-2
I1
I1
I-2
I-1
I1
I-1
I-1
I2
I2
I2
I2
I-1
I-1
I-2
I1
I1
I1
I2
I-2
I2
I2
I2
I2
I2
I1
I2
I2
I-2
I0
I2
I2
I2
I0
I1
I2
I2
I2
I-1
I-1
I2
I2
I1
I1
I2
I-1
I-1
I-2
I-2
I-2
I1
I-2
I2
tp14
sS'23152040bbdacd54.jpg'
p15
(I2
I1
I1
I-2
I2
I-1
I-1
I1
I-2
I0
I-2
I-1
I-1
I0
I-1
I-1
I0
I-1
I1
I2
I1
I1
I-1
I-2
I1
I-2
I-2
I-2
I-1
I0
I-2
I-2
I-2
I0
I-2
I-2
I-2
I-2
I2
I0
I1
I-1
I1
I1
I1
I-1
I-1
I1
I2
I-1
I2
I1
I-2
I1
I-1
I1
I1
I-2
I1
I-2
I-1
I-1
I1
I0
I-1
I-1
I0
I-2
I-1
I-1
I1
I-1
I2
I0
I-1
I-1
I-1
I-2
I1
I2
I2
I1
I1
I-1
I-1
I1
I2
I2
I2
I-1
I-1
I-2
I-1
I-2
I2
I2
I0
I1
I1
I0
I-2
I-2
I2
I-1
I-1
I-2
I-2
I-1
I-1
I-2
I-1
I1
I1
I2
I2
I2
I2
I2
I2
I2
I-1
I1
I2
I-2
I0
I0
I1
I1
I1
I1
I1
I0
I0
I1
I0
I-1
I1
I1
I1
I0
I-1
I0
I-1
I2
I2
I1
I2
I1
I2
I1
I2
I2
I-1
I1
I0
I-2
I-2
I2
I2
I1
I2
I2
I2
I2
I0
I2
I2
I2
I2
I2
I0
I2
I2
I1
I-2
I1
I-1
I1
I-1
I-2
I0
I-1
I1
I-2
I0
I2
I-2
I-1
I-1
I-1
I-1
I-1
I1
I0
I-1
I0
I0
I1
I-1
I2
I1
I2
I1
I1
I-1
I1
I2
I2
I2
I2
I-2
I-2
I-2
I-2
I-1
I-2
I-1
I1
I-2
I-2
I-2
I1
I0
I1
I2
I1
I-2
I-2
I-2
I0
I1
I2
I1
I-2
I-2
I-2
I-1
I-1
I-2
I1
I2
I2
I0
I1
I-1
I0
I1
I-2
I2
I-2
I-1
I-1
I-2
I-1
I-2
I-2
I-1
I-2
I-2
I-2
I0
I-1
I-2
I1
I1
I-2
I-1
I-1
I-2
I-2
I2
I-1
I1
I-2
I-2
I-2
I-2
I1
I-1
I-1
I2
I-2
I-2
I-2
I-1
I-2
I-2
I-2
I-2
I-2
I-2
I-2
I-1
I-1
I1
I2
I-2
I-2
I-2
I-1
I2
I2
I2
I-1
I1
I0
I2
I1
I1
I1
I-1
I1
I2
I-1
I-1
I-1
I0
I1
I1
I2
I2
I1
I2
I1
I2
I2
I2
I1
I2
I-2
I-1
I0
I1
I1
I1
I2
I2
I1
I-2
I2
I2
I1
I2
I2
I2
I2
I2
I2
I2
I2
I2
I2
I2
I-2
I-1
I-1
I-1
I0
I2
I2
I1
I1
I2
I1
I2
I1
I1
I-1
I-2
I-1
I-1
I-1
I1
I1
I-1
I1
I-1
I0
I-1
I-1
I1
I-2
I0
I1
I-1
I-2
I0
I-1
I1
I-1
I0
I-1
I-2
I-1
I-2
I-1
I-1
I-1
I-1
I-2
I-1
I-2
I-2
I1
I-1
I-1
I-2
I2
I-1
I-2
I1
I1
I1
I-2
I2
I2
I-2
I1
I-1
I-1
I1
I2
I2
I2
I0
I-2
I1
I-1
I-1
I2
I2
I2
I-1
I1
I1
I2
I2
I1
I2
I2
I1
I2
I-1
I0
I1
I-2
I1
I-1
I0
I2
I-1
I0
I1
I-1
I0
I-1
I2
I2
I1
I1
I1
I0
I-1
I2
I2
I2
I2
I2
I2
I1
I2
I2
I2
I2
I-2
I-2
I-2
I-2
I1
I-2
I-1
I1
I-2
I-2
I-2
I-1
I-1
I-2
I0
I-2
I-2
I-2
I-2
I1
I0
I1
I-2
I-1
I-2
I-2
I0
I-2
I-1
I-1
I1
I1
I-2
I0
I1
I-1
I2
I-2
I-2
I-2
I-2
I1
I-2
I-2
I-2
I-1
I-1
I-2
I-2
I2
I1
I1
I-2
I1
I2
I-1
I2
I-1
I0
I-1
I-2
I-2
I2
I2
I2
I2
I1
I1
I1
I-1
tp16
s.