(dp0
S'b73f0f83939d3977.jpg'
p1
(I1
I2
I1
I-1
I2
I2
I1
I-1
I-2
I1
I-2
I-2
I-2
I-1
I1
I-2
I-2
I-1
I-1
I1
I-2
I-1
I-1
I-1
I2
I-1
I-1
I0
I-2
I1
I-2
I-2
I-1
I-1
I1
I-2
I-2
I1
I-1
I-2
I1
I-2
I-2
I-2
I-1
I-2
I-1
I-1
I2
I2
I-1
I2
I-1
I-2
I1
I2
I2
I1
I1
I0
I-1
I2
I2
I2
I2
I-1
I2
I-1
I1
I1
I1
I1
I1
I-2
I1
I-1
I-1
I1
I1
I1
I2
I-1
I1
I-1
I0
I2
I0
I2
I2
I-1
I1
I-1
I2
I2
I1
I2
I2
I-1
I2
I1
I2
I1
I-1
I-1
I-2
I-1
I-2
I1
I-2
I-2
I-2
I-2
I2
I1
I0
I2
I-1
I-1
I1
I2
I2
I1
I1
I1
I2
I2
I2
I2
I-2
I-1
I1
I-2
I1
I2
I2
I2
I-1
I1
I1
I-1
I1
I2
I2
I2
I-1
I0
I1
I-1
I2
I2
I2
I2
I-2
I-2
I-1
I-2
I1
I0
I-1
I-1
I-2
I-2
I1
I-1
I-1
I-1
I-2
I1
I-1
I1
I1
I-1
I1
I2
I1
I2
I1
I1
I2
I-1
I-2
I-2
I2
I-2
I-1
I2
I-2
I-2
I-2
I-2
I2
I-2
I1
I-2
I-2
I-2
I-2
I-2
I2
I-2
I-2
I-2
I-2
I-2
I-2
I-2
I-1
I-2
I-2
I-2
I-2
I-2
I0
I1
I-1
I-2
I-2
I-1
I-2
I1
I1
I1
I0
I-2
I-1
I2
I1
I2
I1
I0
I2
I-1
I2
I2
I-1
I-1
I-2
I-1
I1
I-1
I2
I1
I2
I-1
I-1
I1
I2
I-1
I2
I2
I-1
I-1
I-2
I-1
I1
I-2
I-2
I-2
I-2
I-2
I2
I2
I2
I2
I0
I-2
I-1
I1
I2
I2
I2
I0
I1
I-1
I1
I1
I2
I2
I2
I-1
I2
I-1
I-1
I1
I1
I1
I1
I-2
I2
I-2
I-1
I2
I-2
I-2
I1
I-2
I1
I-2
I-1
I1
I-2
I-1
I-1
I-1
I-1
I-2
I-2
I-2
I-2
I-2
I1
I1
I2
I2
I-1
I2
I2
I2
I1
I2
I2
I1
I2
I2
I2
I2
I2
I1
I1
I-2
I1
I1
I2
I2
I-1
I-1
I1
I-1
I1
I1
I1
I2
I-1
I1
I2
I-1
I1
I1
I2
I2
I-1
I1
I2
I-1
I2
I2
I2
I2
I-2
I1
I1
I-2
I1
I0
I-1
I-1
I-1
I1
I-1
I-1
I-1
I2
I-2
I1
I-2
I-1
I2
I-2
I-2
I-1
I1
I-2
I-1
I1
I-2
I-2
I-1
I-1
I1
I-1
I1
I2
I-2
I-2
I-1
I-1
I1
I-1
I1
I2
I-2
I-1
I-1
I-1
I2
I1
I2
I1
I-2
I-2
I-2
I-2
I1
I1
I-2
I-2
I-2
I-2
I0
I-1
I-1
I-2
I-2
I-2
I-2
I1
I1
I1
I1
I-2
I-1
I1
I1
I1
I-1
I-1
I1
I2
I2
I1
I2
I1
I1
I1
I1
I-1
I2
I1
I0
I2
I-1
I-1
I1
I-2
I1
I-2
I-1
I-1
I-2
I-1
I-1
I-1
I2
I-2
I-2
I-2
I-2
I-2
I-1
I-2
I-2
I-2
I-2
I-2
I-1
I2
I2
I2
I1
I-2
I-2
I-1
I2
I2
I2
I-1
I1
I-2
I-1
I2
I2
I1
I1
I-1
I2
I-2
I1
I2
I-1
I-1
I-2
I-1
I1
I-2
I-1
I-1
I-1
I0
I2
I1
I2
I-2
I1
I2
I-2
I-1
I1
I2
I2
I1
I1
I2
I2
I2
I-1
I-1
I2
I2
I2
I1
I2
I1
I1
I2
I-2
I2
I-2
I-1
I1
I-2
I1
I-2
I-1
I-1
tp2
sS'7766950a446fa80f.jpg'
p3
(I-1
I-1
I-2
I1
I2
I-1
I-2
I-1
I-2
I1
I-2
I-2
I-1
I-1
I-2
I-2
I-2
I-2
I2
I1
I1
I-2
I-1
I-1
I2
I-2
I-1
I2
I-2
I-1
I-2
I2
I2
I1
I1
I2
I2
I1
I-1
I2
I1
I1
I1
I-2
I2
I-2
I2
I2
I2
I2
I2
I2
I-1
I0
I1
I2
I2
I-2
I1
I-2
I-2
I1
I1
I2
I-1
I-1
I-2
I-2
I-1
I-2
I2
I2
I2
I2
I2
I1
I1
I2
I1
I1
I2
I-2
I2
I-1
I0
I2
I-2
I-2
I-2
I-2
I0
I-2
I-1
I0
I-2
I-2
I-2
I0
I-1
I-1
I0
I1
I-1
I-1
I1
I1
I2
I-2
I-2
I-2
I-1
I-1
I2
I1
I2
I2
I1
I2
I2
I2
I0
I2
I2
I-1
I2
I2
I2
I2
I-1
I1
I-1
I-2
I-1
I0
I1
I1
I2
I-1
I1
I1
I1
I2
I2
I2
I-2
I0
I2
I-1
I2
I1
I2
I2
I-2
I1
I1
I-2
I1
I-1
I-1
I0
I0
I0
I-1
I-1
I2
I-1
I-1
I-1
I-1
I-2
I-2
I-2
I-2
I1
I-2
I1
I1
I-2
I1
I-2
I-2
I-1
I-1
I1
I-2
I0
I-2
I-2
I0
I1
I1
I-2
I1
I2
I-2
I-1
I-2
I-1
I1
I-1
I1
I-2
I-1
I-2
I-1
I-1
I1
I1
I-2
I-2
I-2
I-2
I1
I-1
I1
I-2
I-2
I1
I-2
I1
I1
I-1
I0
I-2
I1
I-1
I0
I1
I2
I0
I1
I1
I-1
I-1
I1
I2
I-1
I-1
I-1
I-1
I-1
I-2
I-1
I-2
I2
I2
I2
I2
I2
I2
I-1
I2
I0
I-1
I1
I-2
I2
I-2
I0
I1
I-2
I-1
I-1
I-2
I-2
I-2
I-1
I-2
I2
I2
I2
I2
I1
I2
I2
I2
I2
I2
I2
I-1
I2
I1
I2
I2
I-1
I-1
I-1
I-2
I-2
I-2
I1
I1
I1
I1
I1
I2
I1
I2
I2
I2
I1
I1
I-1
I2
I2
I1
I-2
I-2
I1
I-1
I2
I1
I2
I2
I2
I2
I2
I1
I-2
I0
I2
I-2
I1
I-1
I-2
I1
I-1
I1
I-2
I-2
I-1
I-2
I-1
I-1
I2
I-2
I-1
I1
I1
I0
I0
I1
I-2
I-2
I2
I-1
I2
I-1
I-1
I1
I-2
I-1
I-2
I-2
I1
I-2
I-2
I-1
I-1
I-2
I-2
I-1
I1
I-2
I-1
I0
I-2
I-2
I-1
I-1
I-1
I-1
I-2
I-1
I-1
I0
I1
I-2
I1
I1
I-2
I0
I1
I2
I-1
I2
I2
I2
I2
I2
I2
I2
I-1
I1
I0
I-2
I0
I2
I1
I1
I1
I0
I1
I0
I1
I1
I1
I1
I-1
I1
I2
I-1
I1
I0
I1
I1
I-1
I2
I2
I-1
I2
I-1
I-1
I0
I1
I1
I1
I-2
I1
I-2
I-1
I-1
I0
I1
I-1
I-2
I-2
I1
I0
I1
I1
I-2
I0
I-1
I-2
I-1
I1
I-1
I-2
I-2
I-2
I-2
I-2
I-1
I-1
I-2
I-2
I-1
I-2
I-1
I-1
I1
I-1
I-2
I-1
I-2
I-1
I-1
I0
I1
I1
I0
I-2
I-2
I-1
I-1
I1
I-1
I1
I-2
I-2
I2
I-1
I1
I2
I-1
I1
I-2
I2
I-1
I0
I1
I2
I-1
I1
I1
I-1
I-1
I1
I2
I-1
I-1
I-1
I-1
I1
I-2
I2
I2
I2
I2
I2
I2
I2
I2
I-2
I2
I1
I1
I0
I-2
I-2
I2
I2
I2
I2
I1
I2
I2
I2
I-1
I2
I-2
I-2
I-1
I-2
I-2
I1
I1
I1
I2
I1
I1
I1
I-1
tp4
sS'8cf778e8f9507eee.jpg'
p5
(I-1
I-2
I-2
I1
I-1
I-1
I-2
I-2
I1
I0
I-1
I-2
I-2
I0
I1
I-2
I-2
I-2
I-1
I2
I-2
I-2
I1
I-2
I1
I-2
I-1
I-1
I-1
I0
I-2
I-1
I-1
I0
I-1
I-1
I-1
I-2
I1
I-1
I-2
I2
I1
I-1
I-1
I-1
I2
I2
I1
I1
I-2
I1
I-1
I-1
I2
I2
I2
I2
I-1
I1
I1
I-2
I2
I2
I2
I1
I1
I2
I-1
I2
I2
I2
I2
I-1
I2
I-2
I1
I2
I-1
I1
I2
I-2
I1
I-2
I-1
I-2
I1
I1
I1
I-1
I0
I-1
I-2
I-2
I1
I1
I1
I0
I-1
I-2
I-2
I-1
I2
I2
I1
I-1
I-1
I1
I-1
I-1
I2
I2
I1
I1
I-1
I1
I-1
I2
I2
I1
I1
I-1
I-2
I1
I-2
I2
I2
I2
I2
I1
I2
I2
I2
I2
I2
I2
I-2
I-1
I2
I-2
I2
I2
I2
I2
I-2
I1
I1
I-2
I-1
I-1
I2
I2
I2
I2
I2
I1
I1
I2
I2
I2
I2
I2
I1
I-1
I1
I2
I2
I1
I1
I1
I-1
I2
I1
I-2
I-2
I-1
I-1
I-2
I-2
I-2
I-2
I1
I-1
I-1
I-1
I-2
I-2
I-2
I-2
I1
I1
I0
I-2
I-2
I-2
I-2
I-2
I-1
I-1
I-2
I-2
I-1
I-2
I-2
I1
I1
I2
I-1
I1
I2
I-2
I-2
I-2
I-2
I1
I-2
I1
I0
I-2
I-2
I-2
I-1
I-1
I0
I-1
I-1
I-2
I-2
I-2
I1
I-1
I1
I1
I1
I-1
I-1
I1
I1
I1
I1
I1
I-1
I-2
I-2
I2
I1
I0
I1
I-2
I-1
I-2
I-2
I2
I2
I2
I2
I-1
I0
I-2
I-2
I2
I2
I1
I1
I2
I-2
I-2
I-1
I1
I-1
I2
I-2
I2
I-2
I-2
I1
I-2
I-1
I0
I-2
I-1
I-2
I-2
I-2
I0
I1
I-1
I1
I-1
I-1
I-1
I-2
I1
I-1
I-1
I1
I0
I-1
I-2
I-2
I-1
I-1
I0
I-2
I-2
I2
I1
I-1
I2
I2
I2
I2
I0
I1
I-2
I2
I2
I1
I2
I2
I2
I2
I-1
I2
I2
I1
I2
I2
I2
I1
I2
I2
I2
I2
I1
I2
I2
I-2
I2
I0
I1
I2
I-1
I2
I1
I-2
I0
I-2
I0
I-1
I2
I1
I1
I0
I-1
I0
I-1
I-1
I2
I2
I2
I1
I-1
I1
I1
I1
I2
I2
I1
I2
I2
I-2
I-2
I-1
I1
I1
I-2
I-2
I-2
I1
I-1
I1
I1
I-1
I-2
I-2
I-2
I1
I-2
I1
I0
I-1
I-1
I-2
I0
I2
I1
I2
I2
I2
I-2
I-1
I2
I-1
I2
I2
I1
I2
I-2
I0
I0
I-2
I-1
I-1
I1
I2
I1
I1
I-1
I1
I1
I2
I2
I2
I1
I-1
I-2
I-1
I0
I2
I2
I1
I-1
I-2
I0
I2
I1
I-1
I-1
I-1
I-1
I-2
I-1
I-1
I-1
I1
I-1
I-1
I-2
I-2
I1
I0
I-2
I1
I0
I-1
I-2
I-2
I1
I-2
I-2
I0
I-1
I-2
I-2
I-1
I-2
I-1
I1
I1
I2
I-2
I-1
I2
I-2
I-1
I-2
I-2
I1
I-2
I-1
I-1
I-2
I-2
I-2
I-1
I-1
I-1
I-1
I-1
I-2
I-2
I-2
I1
I-1
I-1
I-1
I-1
I-1
I-1
I1
I1
I0
I1
I1
I-1
I2
I2
I1
I1
I-2
I2
I2
I2
I2
I-1
I2
I2
I2
I1
I1
I1
I1
I2
I-1
I2
I-2
I1
I1
I-2
I0
I1
I1
I1
I0
I0
I1
I1
I-1
I0
I-1
I1
I0
I1
tp6
sS'47657d14fee54a07.jpg'
p7
(I1
I2
I1
I-1
I-1
I1
I-1
I1
I1
I-2
I1
I1
I-1
I2
I1
I2
I2
I2
I-1
I2
I2
I2
I2
I-2
I-2
I2
I2
I2
I2
I-2
I2
I2
I-1
I2
I0
I2
I1
I2
I0
I1
I2
I-2
I-1
I-1
I1
I-2
I-1
I1
I-1
I1
I1
I1
I-1
I-2
I-1
I-1
I-2
I-1
I-2
I-2
I-2
I-2
I1
I-2
I-2
I2
I2
I-1
I1
I2
I-2
I-2
I-2
I-2
I1
I-2
I1
I-1
I-2
I-2
I-2
I-1
I-1
I1
I-2
I-2
I-2
I-2
I-2
I1
I-2
I-1
I-2
I-1
I1
I-1
I-1
I2
I1
I2
I2
I0
I-2
I-2
I-1
I2
I-1
I-1
I-1
I-2
I-1
I-1
I2
I1
I2
I2
I-1
I1
I2
I2
I2
I2
I1
I1
I1
I2
I2
I1
I2
I-1
I2
I-1
I2
I1
I1
I-1
I-2
I-1
I-1
I-2
I-2
I-2
I-2
I-2
I1
I2
I1
I2
I-2
I-1
I-1
I-2
I2
I2
I-2
I2
I1
I1
I0
I-1
I1
I-2
I-2
I-1
I-2
I-1
I-2
I-2
I0
I1
I2
I1
I1
I1
I-1
I1
I-1
I-1
I1
I-2
I-2
I-1
I-1
I-2
I-1
I-1
I-2
I-2
I-1
I1
I-1
I-1
I-1
I-2
I-1
I-1
I2
I1
I-1
I0
I-2
I-2
I1
I2
I1
I1
I0
I-2
I-2
I1
I2
I1
I-1
I0
I-1
I-2
I1
I-1
I1
I0
I1
I1
I-2
I1
I-1
I-2
I1
I2
I-1
I2
I0
I1
I-2
I-2
I2
I-1
I0
I-1
I-2
I1
I2
I1
I2
I1
I1
I1
I1
I-1
I0
I1
I-1
I1
I1
I1
I0
I0
I-2
I-1
I1
I1
I2
I2
I2
I2
I1
I2
I2
I2
I2
I2
I2
I-1
I2
I2
I2
I2
I-1
I-1
I-1
I-2
I-1
I2
I2
I1
I1
I1
I-1
I1
I-2
I2
I2
I0
I2
I2
I1
I2
I-1
I2
I2
I2
I2
I2
I1
I2
I2
I-2
I-1
I-2
I1
I-2
I-1
I1
I1
I2
I1
I2
I-1
I1
I-1
I-1
I-2
I-1
I1
I-2
I-1
I0
I-1
I-2
I-2
I-1
I1
I-1
I-1
I2
I-2
I-2
I-2
I-1
I1
I-1
I1
I-1
I-2
I-2
I-2
I-1
I-1
I1
I-2
I-2
I-1
I-2
I-2
I1
I-2
I-1
I-2
I-1
I0
I-2
I-2
I2
I1
I1
I2
I-2
I-2
I-2
I-1
I2
I-2
I-1
I-2
I-2
I-2
I-1
I2
I1
I2
I2
I1
I1
I2
I2
I-1
I1
I1
I-1
I1
I1
I1
I-2
I0
I1
I1
I-1
I2
I1
I-2
I-2
I-2
I-1
I-1
I-2
I-2
I-2
I-2
I-2
I1
I1
I1
I2
I-1
I-2
I-2
I-2
I2
I2
I-1
I1
I1
I-1
I-2
I-2
I1
I-2
I-2
I-1
I-2
I-2
I-2
I-2
I2
I2
I2
I1
I1
I2
I-1
I1
I1
I-1
I1
I-2
I-1
I-1
I-1
I-1
I-2
I-1
I-2
I-1
I-1
I1
I-2
I-1
I0
I-2
I2
I2
I2
I2
I-1
I2
I-2
I-1
I2
I2
I2
I1
I1
I-2
I-1
I2
I2
I2
I1
I-1
I-1
I-1
I2
I1
I2
I2
I2
I1
I0
I2
I2
I-1
I2
I2
I-1
I0
I0
I2
I-1
I-2
I2
I-1
I0
I-1
I-1
I-1
I1
I-1
I1
I2
I1
I1
I1
I1
I0
I-2
I-1
I-2
I2
I2
I2
I2
I2
I1
I1
I1
I-2
I2
I-2
I-2
I-2
I-2
I-1
I-1
I-2
I-2
I1
I-2
I1
I1
I1
I2
I-1
I2
I1
I1
tp8
sS'7d725f6f10330659.jpg'
p9
(I-1
I-2
I-1
I1
I-1
I-2
I-1
I1
I1
I-2
I-1
I1
I1
I2
I2
I2
I2
I2
I-2
I-1
I1
I2
I2
I1
I1
I2
I2
I1
I-1
I2
I2
I1
I2
I-2
I-1
I-2
I-1
I-2
I1
I0
I-2
I2
I2
I2
I1
I1
I1
I1
I1
I-2
I2
I-2
I-2
I-1
I-1
I-1
I-2
I-2
I-1
I-2
I-2
I0
I-1
I-2
I-1
I1
I1
I-2
I1
I2
I-2
I-2
I-2
I-1
I1
I0
I1
I0
I-2
I-2
I-2
I-1
I-2
I0
I-1
I1
I-1
I-1
I2
I2
I2
I2
I2
I2
I-2
I1
I0
I-2
I-2
I0
I-1
I-1
I2
I2
I1
I1
I1
I-1
I2
I0
I2
I2
I-1
I2
I2
I0
I1
I2
I2
I2
I1
I2
I2
I-1
I2
I0
I1
I2
I0
I-1
I0
I-2
I1
I-2
I1
I1
I-2
I-1
I0
I-1
I-1
I0
I1
I-1
I0
I1
I-2
I1
I1
I1
I-1
I1
I-1
I-2
I0
I-1
I-1
I-2
I0
I1
I-2
I1
I-1
I1
I1
I1
I2
I2
I1
I-1
I-1
I1
I1
I-2
I-2
I-2
I-2
I0
I-2
I-2
I0
I2
I1
I-1
I2
I2
I-2
I-1
I2
I-1
I2
I2
I2
I-1
I-2
I-1
I0
I-2
I1
I-2
I-2
I-2
I-1
I-1
I-1
I-1
I-2
I-2
I-2
I-2
I1
I1
I2
I2
I2
I-1
I0
I-2
I-1
I0
I-1
I-2
I1
I-2
I-2
I1
I-1
I-2
I-1
I-1
I1
I-2
I-1
I-1
I-2
I-1
I-1
I-1
I-2
I2
I1
I2
I-1
I1
I0
I-2
I-2
I-2
I-1
I-2
I-2
I0
I-2
I-2
I2
I1
I-2
I-1
I1
I-1
I1
I2
I2
I2
I2
I2
I2
I2
I2
I2
I1
I-2
I1
I-1
I2
I1
I2
I0
I2
I-1
I-2
I1
I1
I-1
I2
I2
I2
I2
I2
I2
I2
I2
I-1
I1
I1
I-2
I-1
I-2
I1
I-1
I1
I2
I1
I2
I0
I1
I2
I2
I1
I2
I-1
I2
I1
I-2
I2
I-2
I-1
I0
I0
I-1
I-2
I-2
I-1
I-2
I-2
I1
I1
I-2
I1
I1
I2
I-1
I2
I2
I-2
I-2
I-1
I-2
I-1
I1
I1
I0
I-1
I-1
I-2
I1
I-1
I1
I1
I-1
I1
I-2
I2
I1
I2
I2
I1
I2
I-2
I-1
I-2
I-2
I-2
I-2
I-1
I-2
I1
I0
I2
I1
I-1
I-1
I2
I1
I2
I0
I-2
I1
I2
I-1
I1
I2
I-1
I1
I0
I2
I1
I-1
I2
I-2
I-1
I1
I-1
I-2
I-1
I-2
I0
I-2
I-2
I-2
I-2
I-1
I-1
I0
I-1
I-2
I-2
I-1
I0
I-1
I-2
I1
I-1
I-1
I-1
I1
I1
I-1
I2
I1
I2
I1
I2
I2
I-2
I1
I-1
I-2
I-1
I1
I1
I1
I2
I1
I1
I2
I2
I-2
I-2
I-2
I-2
I-2
I0
I1
I2
I2
I1
I-2
I2
I2
I-1
I1
I2
I-1
I1
I2
I1
I1
I-1
I2
I2
I-1
I1
I0
I0
I1
I2
I2
I1
I-1
I1
I-1
I0
I0
I1
I1
I-1
I-1
I2
I-1
I-1
I-2
I-1
I-2
I-1
I-2
I1
I-2
I-2
I-1
I-2
I-1
I-2
I-1
I0
I-2
I-1
I-2
I-1
I-2
I0
I-1
I-2
I2
I2
I2
I2
I-2
I-2
I-2
I-1
I-2
I-1
I0
I1
I0
I-1
I0
I1
I0
I1
I-1
I0
I1
I-1
I0
I0
I1
I2
I0
I-2
I2
I2
I2
I2
I2
I1
I1
I1
I-2
I-1
I2
I2
I1
tp10
sS'e1af77bc13313fbf.jpg'
p11
(I-2
I1
I-1
I2
I-1
I2
I2
I1
I1
I1
I2
I1
I2
I-1
I2
I0
I1
I1
I-2
I-1
I-2
I-2
I-2
I1
I0
I-1
I-1
I-1
I0
I-1
I-1
I-1
I-2
I1
I-1
I1
I-1
I-1
I1
I-1
I-1
I-1
I-2
I-2
I-2
I-2
I1
I-2
I-2
I1
I-1
I-1
I-2
I-2
I-1
I-1
I0
I1
I1
I-1
I-2
I1
I-2
I-1
I2
I-1
I-1
I-2
I0
I-1
I-1
I2
I1
I1
I1
I1
I0
I2
I2
I1
I1
I-1
I0
I-1
I2
I1
I1
I1
I-1
I0
I-1
I2
I1
I2
I2
I1
I1
I1
I-1
I2
I2
I2
I1
I1
I1
I2
I2
I2
I1
I-2
I1
I-2
I2
I2
I1
I2
I-1
I2
I-1
I-2
I2
I2
I2
I1
I2
I1
I-2
I-1
I-1
I0
I-1
I-2
I-1
I-2
I-2
I2
I1
I0
I1
I1
I2
I-2
I2
I2
I-2
I-2
I-2
I-2
I-1
I1
I0
I-1
I-1
I-1
I-2
I1
I1
I1
I1
I-1
I-2
I-2
I-2
I-1
I1
I-1
I-1
I-2
I-2
I-2
I-1
I-2
I-2
I-1
I-2
I-2
I1
I-2
I2
I1
I-1
I2
I-2
I2
I1
I0
I2
I2
I2
I2
I2
I2
I2
I2
I1
I2
I2
I-2
I2
I1
I2
I2
I-2
I-2
I-1
I-2
I-1
I-2
I-2
I-2
I-2
I0
I-1
I1
I-1
I-1
I-1
I-2
I1
I-1
I1
I1
I-1
I-1
I-2
I-2
I1
I1
I2
I1
I-1
I-1
I-2
I-2
I2
I2
I1
I-1
I-1
I-1
I-2
I-2
I1
I-1
I2
I-1
I-2
I2
I-1
I2
I2
I1
I0
I-2
I-1
I1
I1
I2
I2
I2
I-2
I-2
I2
I-1
I2
I1
I2
I1
I-2
I2
I1
I-2
I-1
I1
I-1
I1
I2
I1
I1
I1
I-1
I-1
I2
I1
I2
I2
I1
I1
I-1
I2
I1
I1
I2
I2
I1
I1
I0
I2
I1
I1
I1
I1
I0
I1
I1
I-1
I-2
I-2
I-2
I-2
I1
I-2
I-2
I2
I-1
I-1
I-2
I-2
I-1
I-2
I-1
I1
I2
I-2
I-1
I-1
I-2
I-2
I-1
I-2
I-2
I-2
I-2
I-2
I-1
I1
I1
I2
I2
I0
I1
I1
I-1
I-2
I-2
I-2
I-1
I-2
I-1
I-1
I-1
I-1
I-2
I1
I-1
I1
I1
I2
I-1
I-1
I-1
I1
I1
I2
I2
I2
I-1
I-1
I-1
I2
I2
I2
I1
I-2
I1
I-2
I2
I2
I2
I2
I1
I2
I0
I-2
I2
I1
I2
I-1
I1
I-1
I-2
I-2
I1
I2
I0
I-1
I1
I-2
I-2
I2
I2
I-1
I2
I-1
I1
I-2
I2
I2
I-1
I1
I-1
I-1
I1
I2
I1
I1
I1
I-1
I-2
I-1
I1
I-1
I0
I-2
I-2
I-2
I-2
I-1
I1
I-1
I-2
I-2
I-2
I-2
I-1
I-2
I-2
I-1
I-2
I-2
I1
I-2
I2
I0
I1
I2
I-2
I2
I1
I-1
I2
I2
I2
I2
I1
I2
I2
I2
I2
I2
I2
I-1
I2
I1
I2
I2
I-2
I-2
I-2
I-2
I-2
I-2
I-2
I-2
I-2
I-1
I1
I2
I0
I-1
I-2
I-2
I-1
I0
I1
I0
I-2
I-2
I-2
I-2
I2
I2
I2
I2
I-1
I-1
I-1
I-2
I2
I2
I1
I1
I-1
I-1
I-2
I-2
I2
I-1
I-2
I2
I-1
I1
I-2
I-1
I1
I1
I-2
I-2
I2
I-1
I1
I-2
I2
I1
I-1
I-1
I2
I2
I2
I1
I1
I2
I2
I1
I-1
I-1
I2
I1
I-1
I1
I-1
I2
I1
I1
tp12
sS'afed2c8824a422ed.jpg'
p13
(I2
I-2
I-2
I-2
I-1
I-2
I-2
I-2
I1
I-1
I-2
I-2
I-2
I1
I1
I-2
I-2
I-2
I-1
I0
I-2
I-2
I-1
I0
I-2
I-2
I-1
I0
I2
I1
I2
I2
I2
I-1
I1
I2
I2
I1
I-1
I2
I0
I2
I2
I-1
I2
I1
I2
I2
I2
I1
I0
I2
I2
I2
I2
I2
I2
I0
I2
I2
I2
I2
I2
I2
I2
I-2
I1
I1
I-1
I1
I1
I2
I2
I-1
I2
I-2
I-1
I-1
I1
I1
I-2
I-2
I1
I-2
I-2
I-2
I0
I-2
I-2
I-1
I1
I-2
I-2
I-2
I-2
I-2
I-2
I-1
I-2
I-2
I-2
I-2
I-1
I0
I2
I-1
I-1
I-2
I-2
I-1
I2
I2
I-1
I-2
I-2
I1
I1
I2
I2
I2
I-2
I-2
I-1
I-1
I-1
I2
I1
I2
I-2
I1
I2
I1
I1
I2
I2
I2
I-1
I1
I2
I-1
I0
I1
I2
I1
I1
I2
I2
I0
I1
I2
I1
I1
I2
I2
I2
I-1
I1
I1
I1
I2
I2
I2
I1
I-1
I-1
I-1
I1
I0
I2
I1
I1
I1
I1
I-2
I-2
I-1
I-2
I-1
I-2
I-2
I-2
I1
I-1
I-1
I-1
I1
I-2
I-1
I-2
I1
I1
I0
I1
I2
I-2
I-2
I-1
I-1
I2
I1
I1
I2
I-2
I-2
I-2
I-2
I-2
I-1
I1
I1
I-1
I-1
I-1
I2
I-1
I2
I2
I1
I-1
I-1
I1
I1
I1
I2
I2
I1
I-2
I-1
I-1
I-1
I-1
I1
I-1
I-1
I0
I-1
I1
I1
I0
I2
I1
I1
I-2
I-2
I1
I1
I0
I-1
I1
I-2
I-2
I-2
I-1
I-1
I-1
I-1
I1
I-2
I-2
I-2
I-2
I-1
I1
I-1
I1
I-2
I-2
I-2
I-2
I-1
I-2
I-1
I1
I-2
I-2
I-2
I-1
I-2
I-2
I-1
I-2
I-2
I-2
I-2
I-1
I-2
I-1
I2
I-1
I-1
I-1
I1
I-1
I1
I-1
I1
I-1
I1
I2
I1
I1
I0
I1
I2
I1
I2
I2
I1
I2
I2
I2
I2
I2
I-1
I-1
I2
I2
I2
I2
I2
I2
I1
I2
I2
I2
I2
I2
I2
I2
I-2
I-1
I-1
I2
I1
I2
I2
I2
I1
I2
I2
I2
I2
I2
I2
I1
I-2
I1
I0
I0
I-1
I2
I1
I-1
I-1
I1
I-1
I-1
I-1
I-1
I-2
I-2
I-1
I-1
I-2
I-2
I-2
I-1
I-1
I1
I-1
I-1
I-2
I-2
I-2
I-1
I0
I-2
I-2
I-2
I2
I-1
I1
I2
I1
I-2
I-2
I1
I1
I2
I2
I2
I1
I-2
I-2
I-2
I-2
I-1
I0
I-1
I2
I-1
I-2
I0
I1
I0
I0
I2
I1
I-2
I0
I1
I0
I-1
I2
I1
I-1
I1
I1
I2
I1
I1
I2
I0
I1
I1
I2
I1
I-1
I1
I-1
I1
I1
I2
I1
I-1
I1
I1
I1
I-1
I1
I-2
I-2
I0
I-2
I-2
I-1
I-1
I-2
I-2
I-2
I-1
I-2
I0
I1
I-1
I-2
I-2
I1
I-1
I1
I0
I1
I2
I-2
I1
I2
I-2
I-2
I-2
I-2
I-1
I-2
I-1
I1
I-1
I-1
I-2
I1
I-2
I1
I1
I2
I1
I0
I1
I1
I1
I2
I2
I2
I-1
I-1
I-1
I-1
I0
I2
I1
I0
I-1
I-1
I0
I1
I0
I2
I2
I-1
I2
I2
I2
I1
I1
I2
I2
I2
I-1
I2
I-1
I-1
I2
I-2
I1
I-2
I1
I-1
I-1
I1
I-1
I-1
I-2
I-1
I1
I-2
I-2
I-2
I-1
I-1
I-2
I-1
I-1
I1
I-1
I0
I0
I1
tp14
sS'57944fe6b50e23a4.jpg'
p15
(I0
I-2
I-2
I0
I2
I-2
I-1
I-2
I-2
I-2
I-2
I-2
I-2
I2
I1
I-2
I-1
I1
I-1
I-1
I-1
I1
I2
I1
I2
I2
I2
I2
I-2
I-1
I-1
I-1
I-2
I1
I-1
I1
I-1
I1
I1
I-1
I1
I2
I2
I1
I1
I1
I2
I1
I2
I-1
I-1
I1
I0
I-1
I2
I2
I2
I1
I2
I1
I1
I2
I2
I1
I1
I-2
I2
I-2
I-1
I1
I-2
I-1
I-2
I-2
I1
I-2
I-1
I0
I-2
I-2
I1
I-1
I-1
I-1
I-1
I1
I-2
I1
I-1
I1
I-2
I0
I1
I0
I2
I1
I1
I2
I2
I2
I2
I1
I-1
I-1
I-2
I0
I-1
I-1
I-1
I-1
I2
I2
I-1
I0
I-1
I1
I-1
I2
I2
I2
I1
I-1
I2
I1
I1
I2
I2
I2
I-2
I1
I2
I-1
I2
I2
I2
I1
I-1
I1
I1
I-2
I1
I-1
I-2
I2
I0
I1
I0
I-1
I1
I-2
I1
I2
I-1
I-1
I-2
I-1
I-1
I0
I1
I0
I0
I-2
I0
I1
I-1
I2
I1
I2
I-1
I1
I1
I2
I2
I-2
I-2
I1
I-1
I-2
I-2
I-2
I-2
I-1
I1
I-1
I-2
I-1
I-2
I-2
I-2
I-1
I-2
I-2
I-1
I-1
I-2
I-2
I1
I2
I-1
I1
I1
I1
I-1
I2
I2
I1
I2
I1
I2
I2
I-2
I-1
I0
I-2
I1
I-2
I-2
I-2
I-2
I-1
I-2
I-1
I-1
I-2
I-2
I-2
I0
I-1
I-2
I1
I1
I-2
I-2
I-2
I-2
I-2
I-1
I-2
I-2
I1
I1
I-2
I-1
I-2
I2
I2
I2
I2
I2
I1
I-1
I-1
I1
I1
I-1
I-2
I-1
I-2
I-2
I-2
I1
I-1
I-1
I1
I1
I-2
I-2
I2
I-1
I-2
I2
I-1
I0
I-2
I2
I2
I-2
I2
I2
I0
I0
I1
I2
I1
I2
I2
I2
I0
I0
I2
I1
I0
I2
I2
I2
I0
I-1
I1
I0
I1
I2
I2
I1
I1
I2
I1
I-1
I-1
I1
I1
I2
I1
I2
I1
I-1
I2
I2
I2
I1
I2
I2
I1
I1
I2
I2
I2
I2
I2
I2
I-1
I2
I2
I1
I2
I-2
I-2
I-1
I-2
I1
I-2
I1
I1
I-2
I-2
I-2
I-1
I-1
I-1
I0
I1
I-1
I-1
I-1
I1
I-1
I1
I2
I-2
I0
I0
I-1
I1
I1
I2
I-1
I2
I-1
I-2
I-1
I-2
I1
I-1
I-2
I-1
I-1
I1
I-1
I-2
I-2
I1
I1
I1
I1
I2
I-2
I-2
I-2
I-1
I-1
I1
I2
I0
I-2
I-1
I2
I1
I2
I2
I1
I1
I-2
I-1
I1
I-2
I1
I-2
I-2
I-2
I-1
I0
I-1
I-1
I1
I-2
I-2
I0
I-1
I-2
I-2
I-2
I-2
I-2
I-2
I-1
I2
I1
I2
I2
I2
I2
I2
I2
I-2
I-1
I-2
I1
I-1
I1
I-1
I1
I-1
I-2
I-1
I-1
I-1
I-1
I1
I-2
I-2
I-1
I-2
I-2
I-2
I-1
I-2
I-2
I-2
I-1
I0
I-1
I2
I2
I0
I-1
I1
I1
I-1
I2
I2
I0
I1
I1
I1
I2
I2
I2
I2
I-1
I2
I0
I1
I-1
I0
I2
I-2
I-2
I1
I-1
I-2
I-2
I1
I-2
I-1
I-1
I-1
I-2
I-2
I-2
I-2
I1
I1
I-2
I-2
I1
I2
I-1
I2
I2
I2
I1
I2
I1
I2
I1
I-2
I2
I1
I-1
I-1
I-2
I-1
I-1
I-1
I0
I1
I1
I-2
I-1
I1
I-1
I-2
I1
I2
I2
I2
I1
I2
I2
I2
I-1
I-1
I2
I2
I1
tp16
sS'1c50e5d6d2e9361d.jpg'
p17
(I-1
I-2
I-2
I1
I0
I-1
I-2
I-2
I0
I-1
I-2
I-2
I-2
I1
I-1
I-2
I-2
I1
I1
I1
I-1
I1
I2
I-1
I0
I0
I1
I0
I0
I2
I1
I0
I1
I-2
I-2
I-2
I-2
I-2
I2
I1
I-1
I2
I1
I-2
I-2
I-2
I2
I2
I2
I2
I1
I2
I-1
I2
I2
I2
I2
I-1
I1
I-2
I2
I2
I2
I2
I1
I-1
I2
I2
I2
I1
I-1
I-1
I0
I-2
I1
I1
I-1
I-2
I-2
I-1
I-1
I-1
I-1
I-2
I-2
I-2
I0
I0
I2
I1
I1
I-2
I-2
I-2
I-1
I2
I-1
I-1
I-1
I-2
I-2
I-2
I2
I1
I1
I-2
I-2
I1
I-2
I-2
I2
I2
I2
I1
I2
I2
I2
I2
I2
I2
I-2
I-2
I-2
I-2
I1
I2
I1
I1
I-2
I-2
I-1
I-1
I-2
I-1
I-1
I-2
I-1
I1
I2
I2
I-1
I1
I0
I1
I2
I2
I2
I1
I0
I1
I1
I2
I2
I2
I2
I0
I-2
I1
I2
I2
I2
I2
I2
I2
I-1
I2
I2
I2
I2
I2
I1
I2
I2
I-2
I-2
I2
I-1
I-1
I-2
I-2
I-2
I-2
I-2
I-2
I-2
I-2
I-2
I-1
I1
I2
I-1
I1
I-1
I-1
I-1
I1
I-1
I1
I-1
I1
I-1
I-1
I2
I0
I-1
I1
I1
I1
I1
I1
I-1
I-1
I-1
I-1
I1
I-1
I1
I1
I-2
I-2
I-2
I-1
I1
I0
I1
I2
I-2
I-2
I-2
I-1
I1
I-1
I1
I-1
I-2
I-2
I-1
I1
I-2
I1
I2
I0
I-2
I-2
I1
I2
I-1
I0
I-1
I-2
I-2
I-2
I2
I1
I-1
I1
I-1
I-2
I-2
I1
I1
I1
I-1
I1
I0
I-2
I2
I2
I1
I-1
I1
I0
I1
I2
I2
I2
I-1
I-1
I0
I-1
I1
I2
I1
I-1
I-1
I-1
I1
I-1
I2
I1
I-2
I-2
I-2
I-1
I-1
I-2
I-2
I-2
I-2
I-2
I1
I2
I2
I-1
I-2
I2
I2
I-1
I2
I-1
I2
I2
I2
I1
I-2
I2
I1
I2
I2
I2
I2
I2
I2
I2
I2
I2
I-1
I-2
I-2
I-2
I2
I1
I0
I-1
I-2
I-2
I-2
I-2
I-1
I-2
I-2
I-2
I-2
I-1
I-1
I1
I-2
I-2
I-1
I-2
I1
I2
I2
I2
I0
I2
I1
I-1
I2
I2
I1
I0
I-2
I1
I-1
I-1
I2
I2
I2
I2
I2
I-2
I-2
I-2
I1
I1
I1
I-1
I-2
I2
I2
I2
I2
I2
I-2
I-2
I-1
I-2
I-1
I-1
I-1
I-2
I-2
I0
I2
I1
I-1
I0
I-2
I-2
I1
I2
I2
I1
I1
I-1
I-1
I-1
I2
I1
I-2
I-1
I-1
I-2
I-1
I-1
I2
I-1
I-1
I1
I-1
I0
I1
I1
I1
I1
I-2
I1
I-1
I2
I2
I2
I1
I-2
I1
I2
I2
I-1
I-2
I1
I1
I-1
I-1
I-2
I1
I-1
I-1
I1
I-2
I-1
I-2
I1
I0
I1
I-2
I-2
I-1
I-2
I2
I2
I1
I2
I1
I1
I-1
I-1
I2
I1
I2
I-1
I1
I-1
I-1
I1
I1
I1
I0
I-1
I1
I-1
I1
I2
I1
I-1
I-2
I-1
I1
I-1
I1
I1
I-1
I-2
I-2
I-1
I1
I0
I0
I-2
I-2
I-2
I-1
I-1
I-2
I-1
I-1
I-2
I1
I2
I1
I2
I1
I1
I1
I-1
I-1
I-2
I2
I1
I1
I2
I1
I1
I1
I1
I-1
I1
I-1
I-1
I1
I-1
I1
I-2
I-1
I0
I-1
I-1
I-1
I0
I1
I1
I-2
I2
I2
I2
tp18
sS'f22058080da21c95.jpg'
p19
(I0
I-2
I-2
I0
I-2
I-2
I-2
I-2
I2
I2
I2
I-1
I-1
I-2
I-2
I-2
I-2
I-2
I2
I-1
I-1
I-2
I-1
I1
I2
I-1
I0
I2
I-2
I-1
I-2
I1
I1
I1
I0
I2
I2
I-1
I0
I2
I-1
I2
I2
I2
I2
I2
I2
I2
I-2
I-2
I-2
I1
I1
I0
I2
I1
I2
I2
I-1
I2
I2
I2
I1
I2
I1
I1
I-1
I2
I2
I1
I2
I2
I1
I1
I1
I2
I2
I2
I1
I0
I2
I-1
I2
I1
I2
I2
I-2
I-1
I-2
I-2
I-1
I-2
I-1
I-2
I-1
I-2
I-2
I1
I-2
I-1
I-2
I-2
I1
I1
I2
I-1
I-1
I-2
I-1
I1
I1
I1
I-2
I-1
I-2
I-1
I-1
I0
I1
I0
I0
I-2
I-2
I1
I1
I2
I1
I1
I-2
I-2
I-2
I-1
I-2
I0
I-1
I-1
I-1
I-2
I-1
I2
I1
I2
I2
I2
I-2
I-2
I2
I-1
I1
I1
I2
I1
I-2
I1
I1
I-1
I-2
I2
I1
I1
I2
I2
I1
I2
I0
I2
I2
I1
I2
I1
I0
I2
I1
I-1
I0
I1
I-1
I-1
I-1
I-1
I-2
I-1
I-1
I-2
I-1
I-2
I0
I-1
I0
I1
I-1
I-1
I-2
I-2
I-1
I1
I-2
I1
I-1
I-2
I-2
I-2
I1
I-2
I-1
I1
I1
I-1
I-1
I-2
I-2
I-2
I-2
I-1
I-1
I-2
I-2
I-2
I-2
I-1
I-2
I1
I-1
I-2
I-2
I-1
I-1
I-2
I-2
I1
I-2
I-2
I-1
I-1
I-1
I-1
I2
I2
I2
I1
I2
I1
I-2
I-1
I1
I1
I1
I-1
I-2
I-2
I-1
I-2
I2
I2
I2
I2
I1
I2
I1
I1
I2
I2
I1
I-1
I0
I-1
I-1
I-2
I2
I1
I2
I0
I-1
I-1
I-2
I-1
I2
I2
I2
I1
I1
I-2
I0
I2
I2
I2
I1
I-1
I1
I-1
I1
I1
I1
I1
I-2
I-1
I0
I1
I-1
I-2
I1
I-2
I0
I-1
I-2
I2
I2
I1
I2
I2
I1
I1
I-2
I-1
I-2
I2
I2
I2
I2
I-1
I1
I2
I1
I2
I2
I2
I-1
I1
I1
I-1
I-2
I2
I2
I2
I2
I2
I2
I2
I2
I2
I2
I2
I1
I0
I1
I-2
I2
I2
I2
I2
I-2
I-1
I-1
I-2
I-1
I1
I1
I-1
I-1
I1
I1
I1
I-2
I1
I-1
I-1
I2
I2
I2
I2
I2
I-2
I-2
I1
I1
I-1
I-2
I-2
I-2
I-1
I0
I-1
I-1
I-2
I-2
I-2
I-2
I0
I0
I-1
I-2
I-1
I-2
I-2
I-2
I0
I-1
I-2
I-1
I-2
I-2
I-2
I-2
I1
I1
I0
I-1
I0
I-2
I-2
I-1
I-1
I-1
I-2
I-1
I-1
I-2
I-1
I-1
I1
I-2
I0
I-1
I-2
I1
I1
I-2
I2
I-1
I1
I-1
I-1
I1
I-2
I1
I-1
I-1
I-1
I1
I-1
I-2
I-2
I1
I1
I1
I1
I-2
I-2
I-1
I-2
I2
I2
I2
I2
I2
I1
I-1
I-2
I1
I1
I0
I-2
I-2
I-2
I-2
I-2
I2
I1
I2
I2
I2
I-2
I-1
I-1
I0
I1
I0
I-2
I-1
I-2
I-2
I-1
I1
I1
I-1
I1
I-1
I-1
I-1
I0
I2
I1
I1
I1
I-1
I1
I1
I1
I1
I1
I1
I2
I2
I2
I2
I1
I2
I1
I-1
I-1
I-1
I2
I1
I2
I1
I-1
I2
I2
I2
I1
I2
I2
I1
I2
I-2
I-1
I1
I2
I1
I1
I1
I1
I1
I-1
I-1
I0
I0
I-1
I-2
I0
I-1
I-1
I-2
I1
tp20
sS'da2cb5021eec1d7d.jpg'
p21
(I-2
I1
I-1
I2
I-2
I2
I2
I2
I2
I2
I2
I2
I2
I-2
I2
I2
I1
I2
I-2
I2
I-2
I-1
I1
I-2
I1
I-2
I-2
I-1
I-1
I0
I-2
I-1
I-1
I0
I1
I-1
I-1
I2
I-1
I-2
I1
I-1
I-2
I-1
I1
I2
I1
I-2
I-2
I1
I1
I2
I2
I-1
I-2
I-2
I-2
I-1
I-2
I1
I-2
I-2
I-2
I-1
I2
I2
I2
I0
I1
I2
I-2
I1
I2
I-2
I2
I-1
I1
I1
I-1
I1
I2
I-2
I1
I-2
I-1
I-2
I1
I1
I1
I-1
I0
I-2
I-2
I0
I1
I1
I2
I0
I2
I-2
I0
I1
I-2
I-1
I-2
I-2
I-2
I-1
I-2
I1
I-1
I-1
I-2
I-2
I-1
I-1
I-2
I-1
I-1
I-2
I1
I2
I0
I2
I1
I2
I2
I2
I2
I-1
I1
I-1
I2
I2
I1
I2
I-2
I-1
I1
I-2
I1
I-1
I1
I2
I-1
I1
I2
I-1
I-1
I1
I2
I2
I2
I2
I2
I1
I2
I2
I2
I2
I0
I0
I2
I-2
I1
I1
I1
I2
I-1
I2
I-1
I-1
I1
I1
I1
I0
I-1
I-2
I1
I1
I-2
I0
I-1
I-1
I-2
I-2
I2
I-2
I-2
I1
I-1
I-2
I-2
I-2
I-2
I-1
I1
I1
I2
I-2
I-2
I1
I-2
I-1
I-1
I-2
I1
I-2
I-1
I1
I-2
I-2
I-2
I-1
I1
I-2
I0
I1
I-2
I-2
I-1
I-1
I1
I-1
I1
I1
I-2
I-1
I1
I-1
I1
I1
I1
I1
I-2
I-1
I-1
I-1
I1
I1
I1
I-2
I1
I0
I2
I2
I2
I2
I-1
I2
I2
I2
I2
I2
I2
I1
I1
I2
I2
I2
I2
I2
I2
I-1
I2
I2
I2
I2
I-1
I1
I2
I-2
I2
I-1
I0
I1
I-1
I0
I1
I-2
I1
I-2
I-2
I1
I-1
I-1
I-1
I-1
I0
I-2
I-1
I-1
I-1
I-1
I1
I0
I1
I-1
I-1
I2
I-1
I-1
I-1
I-2
I1
I-1
I-2
I-1
I2
I2
I0
I-2
I-2
I1
I1
I2
I2
I-1
I-2
I-2
I-2
I-1
I-1
I2
I-2
I-2
I-2
I-2
I1
I1
I1
I-1
I-1
I2
I-2
I0
I2
I-1
I1
I-2
I1
I2
I-1
I2
I2
I-1
I2
I1
I1
I1
I-1
I1
I1
I-2
I-1
I-1
I-1
I-1
I1
I1
I2
I1
I2
I-1
I-1
I0
I-2
I-1
I-2
I-2
I-2
I-2
I-2
I0
I-2
I-2
I-2
I-2
I-2
I0
I-2
I-2
I-2
I-2
I1
I2
I1
I2
I-1
I-1
I-1
I1
I2
I1
I2
I1
I2
I-1
I1
I2
I-2
I-1
I-1
I-2
I1
I-1
I1
I2
I-2
I-1
I1
I-1
I0
I-1
I1
I2
I-1
I1
I1
I0
I0
I1
I2
I2
I1
I1
I2
I0
I1
I2
I2
I2
I0
I2
I-1
I1
I2
I2
I2
I-2
I0
I-2
I2
I2
I1
I2
I0
I2
I0
I0
I2
I1
I1
I0
I2
I1
I0
I-1
I-1
I-1
I1
I-2
I1
I-2
I-2
I0
I-2
I-1
I1
I-1
I1
I-2
I-2
I0
I-2
I-1
I-1
I-1
I1
I-2
I-1
I1
I-2
I-2
I-2
I-1
I1
I-2
I-1
I-1
I-2
I-2
I-1
I-1
I1
I-1
I-1
I1
I-2
I-2
I-1
I-2
I1
I0
I-2
I-2
I2
I0
I-1
I2
I-1
I0
I0
I2
I1
I-1
I1
I2
I2
I1
I2
I0
I2
I2
I-2
I2
I0
I1
I2
I-2
I2
I-1
I1
I1
I-2
I0
I1
I1
I2
I0
I2
I-1
I-1
I-2
tp22
s.