(dp0
S'4a79fa463146438f.jpg'
p1
(I-2
I-2
I-2
I2
I-2
I-1
I-1
I1
I2
I-1
I1
I2
I0
I1
I1
I2
I1
I0
I-1
I1
I-1
I-1
I1
I-1
I2
I-2
I0
I-1
I-2
I2
I-2
I-2
I0
I-2
I-1
I-2
I-1
I0
I1
I-1
I1
I2
I1
I-1
I0
I-1
I2
I1
I-1
I1
I1
I1
I-1
I-1
I-1
I-2
I-2
I-1
I-2
I-2
I-2
I-2
I0
I-1
I1
I2
I-1
I1
I-2
I-2
I0
I1
I2
I1
I2
I-1
I-2
I2
I-1
I0
I2
I-2
I-1
I-2
I-1
I0
I1
I2
I2
I1
I2
I0
I1
I2
I0
I1
I1
I-2
I2
I-2
I0
I2
I0
I-1
I-2
I-2
I1
I0
I-1
I-1
I0
I0
I1
I1
I2
I1
I-1
I1
I1
I-2
I1
I2
I-1
I1
I-2
I1
I-1
I1
I2
I2
I1
I2
I-1
I1
I2
I2
I2
I2
I2
I1
I2
I2
I2
I2
I-2
I1
I0
I-2
I1
I1
I1
I1
I0
I-1
I2
I-1
I2
I1
I1
I2
I-2
I0
I2
I-2
I2
I-2
I1
I-1
I-2
I-1
I-2
I-1
I-2
I0
I-1
I0
I2
I1
I0
I-1
I-1
I0
I-2
I2
I1
I-1
I2
I1
I-1
I2
I2
I2
I2
I1
I-1
I-2
I-2
I-2
I1
I0
I-1
I1
I-2
I-2
I-1
I-2
I-1
I-2
I-1
I0
I-2
I-1
I-1
I1
I0
I-1
I1
I2
I-1
I-1
I2
I0
I2
I1
I2
I2
I-2
I-1
I1
I-2
I-2
I1
I1
I1
I1
I2
I2
I2
I2
I-2
I-2
I-2
I-2
I-2
I-1
I-1
I-2
I2
I-2
I-2
I-1
I1
I1
I-2
I0
I2
I-2
I1
I2
I0
I-1
I1
I2
I2
I2
I2
I1
I-1
I-1
I1
I1
I-2
I1
I-1
I-2
I-1
I0
I-1
I-1
I-1
I2
I-2
I-1
I-2
I-2
I-2
I-1
I-2
I0
I-2
I-2
I-2
I-2
I-1
I-2
I0
I0
I-2
I-2
I-1
I-1
I-2
I0
I-2
I-1
I2
I2
I1
I1
I1
I2
I1
I-1
I-2
I2
I0
I-1
I-1
I-1
I-2
I-2
I-2
I-2
I-2
I-2
I-2
I0
I-1
I1
I2
I-2
I-1
I1
I1
I1
I2
I2
I2
I2
I2
I2
I2
I1
I1
I2
I-2
I-1
I0
I-1
I1
I2
I2
I2
I1
I1
I0
I1
I2
I2
I2
I2
I-1
I2
I1
I2
I2
I1
I1
I-2
I-1
I0
I-1
I0
I-1
I2
I1
I-1
I1
I2
I1
I-1
I2
I2
I-2
I1
I2
I1
I1
I2
I2
I-2
I1
I2
I-1
I-2
I-2
I-1
I-2
I-1
I-1
I-1
I-2
I0
I1
I-1
I-1
I-1
I0
I-2
I1
I0
I1
I1
I-1
I0
I1
I-1
I-1
I-1
I-1
I2
I-1
I0
I2
I-2
I-2
I1
I-2
I1
I-2
I1
I-1
I-2
I0
I-1
I1
I-2
I-2
I-2
I-1
I-1
I-2
I-1
I-2
I-2
I1
I-2
I0
I-1
I-2
I2
I2
I2
I2
I2
I2
I2
I2
I-1
I1
I1
I-2
I0
I0
I-1
I1
I1
I1
I1
I0
I1
I-1
I1
I1
I0
I0
I1
I-1
I1
I0
I1
I2
I-1
I0
I2
I-1
I2
I-1
I2
I2
I-2
I-1
I-1
I-2
I-2
I-2
I0
I0
I1
I2
I2
I2
I2
I1
I0
I-1
I2
I1
I-2
I1
I-2
I2
I-2
I0
I2
I-1
I-2
I1
I1
I1
I2
I-1
I-1
I0
I-2
I1
I-1
I-1
I1
I-1
I2
I-2
I-2
I2
I-2
I2
I-2
I0
I-2
I-2
I0
I0
I-2
I0
tp2
sS'79355c5983178a98.jpg'
p3
(I2
I1
I0
I-2
I-2
I-1
I-2
I-2
I2
I2
I1
I2
I1
I-2
I1
I-1
I-1
I-1
I-1
I-1
I-2
I-2
I-2
I1
I1
I-2
I-1
I1
I-1
I2
I-2
I1
I1
I-2
I1
I-1
I-1
I0
I-1
I-1
I-1
I-1
I1
I-1
I-1
I1
I0
I2
I-1
I1
I1
I1
I2
I1
I2
I-2
I1
I-1
I-1
I1
I-1
I-2
I-1
I1
I2
I1
I0
I0
I-2
I2
I1
I2
I2
I0
I1
I-2
I2
I2
I2
I1
I2
I-1
I2
I2
I2
I-2
I-1
I-1
I1
I-2
I1
I0
I-2
I2
I-1
I1
I1
I-1
I1
I-2
I1
I-2
I0
I1
I-1
I1
I-2
I1
I-1
I2
I0
I1
I-1
I-2
I-1
I-2
I-2
I-2
I-1
I1
I-1
I1
I0
I2
I-2
I1
I2
I-1
I2
I2
I2
I2
I2
I2
I1
I2
I-2
I-2
I-2
I-2
I0
I-2
I-1
I-1
I-2
I-2
I0
I0
I-2
I-1
I-1
I-2
I1
I2
I2
I2
I2
I2
I-1
I2
I-2
I-1
I-1
I-2
I-2
I-2
I-1
I2
I2
I2
I2
I2
I2
I0
I2
I1
I1
I1
I-1
I1
I-1
I-1
I2
I1
I0
I-1
I-1
I-2
I-2
I-2
I-2
I-2
I-2
I-1
I1
I-1
I2
I2
I2
I1
I2
I2
I-2
I1
I1
I-2
I1
I0
I1
I1
I1
I1
I-2
I-1
I-2
I1
I1
I1
I2
I1
I2
I2
I2
I2
I2
I2
I-2
I1
I-2
I-2
I2
I-2
I1
I1
I-2
I-2
I-2
I-2
I-1
I-1
I-1
I-1
I-2
I-2
I-1
I0
I2
I1
I-1
I-2
I-2
I-1
I1
I2
I-1
I1
I2
I-1
I0
I-1
I1
I-2
I0
I-2
I1
I-1
I-2
I-1
I-2
I-1
I-1
I-1
I1
I-2
I-2
I-2
I-1
I-1
I-2
I-1
I0
I-2
I-2
I2
I-1
I-2
I2
I0
I2
I-2
I2
I2
I-2
I-1
I2
I-2
I1
I0
I-1
I0
I-1
I1
I-1
I-1
I-1
I2
I2
I0
I1
I2
I2
I2
I1
I0
I1
I1
I2
I2
I1
I0
I1
I-1
I-1
I2
I1
I-1
I1
I2
I2
I1
I1
I2
I-1
I2
I1
I2
I2
I-1
I0
I-1
I1
I-1
I2
I2
I2
I0
I2
I1
I-1
I1
I-2
I-2
I0
I-2
I-1
I-2
I-2
I0
I-2
I1
I1
I1
I1
I-2
I1
I-1
I0
I1
I-1
I0
I-1
I-1
I-1
I2
I1
I1
I-2
I-2
I-2
I-2
I-2
I-2
I-1
I-2
I-2
I-1
I-2
I2
I-2
I1
I-2
I-1
I1
I1
I1
I2
I2
I0
I1
I2
I-2
I-1
I-1
I-2
I-2
I-1
I2
I1
I1
I1
I2
I2
I2
I2
I2
I1
I-1
I2
I2
I-2
I2
I1
I-1
I2
I0
I-1
I0
I-2
I-1
I-2
I-1
I2
I1
I1
I1
I0
I2
I-1
I2
I1
I2
I-1
I-1
I1
I-1
I-1
I-2
I1
I-2
I-2
I2
I2
I0
I2
I1
I1
I1
I2
I1
I-1
I1
I-1
I2
I-1
I1
I2
I-2
I-2
I-2
I-2
I-1
I-2
I-2
I-1
I-1
I-2
I-1
I1
I-2
I-1
I-1
I-1
I-1
I1
I2
I2
I2
I1
I1
I2
I-2
I1
I0
I-2
I2
I-2
I1
I2
I-2
I-2
I-2
I-2
I-2
I-2
I-1
I-2
I1
I2
I-1
I2
I0
I2
I-1
I1
I0
I2
I-2
I-1
I2
I-2
I1
I-2
I2
I1
I-1
I1
I1
I1
I-2
I-1
I-1
I1
I-1
I2
I1
I2
I-2
I-1
I2
I-2
I1
I-2
I2
I-1
tp4
sS'53560429b535a6f1.jpg'
p5
(I-2
I-1
I-2
I2
I1
I1
I1
I-2
I-1
I2
I-1
I-2
I2
I-2
I-1
I-2
I1
I-2
I1
I2
I1
I-2
I-2
I-2
I-1
I-2
I-2
I-2
I1
I0
I-2
I-2
I-1
I0
I-2
I-2
I-1
I-2
I2
I1
I-1
I1
I-1
I-1
I2
I2
I2
I-1
I1
I1
I-2
I2
I2
I0
I2
I2
I2
I2
I2
I2
I2
I2
I-2
I-1
I-1
I-2
I-2
I-2
I-1
I0
I2
I2
I2
I2
I0
I1
I2
I1
I2
I2
I2
I0
I1
I2
I1
I2
I2
I2
I2
I-1
I1
I0
I1
I1
I1
I1
I-1
I-1
I-2
I0
I-1
I-1
I2
I1
I2
I2
I1
I-2
I-2
I0
I-2
I-2
I-2
I-2
I-2
I0
I-2
I-2
I-2
I-2
I0
I-2
I2
I2
I1
I0
I2
I2
I-2
I1
I-1
I-1
I1
I1
I1
I1
I0
I-2
I-2
I-1
I-1
I1
I-1
I-1
I-1
I-1
I0
I1
I1
I1
I1
I-2
I-2
I-1
I0
I-1
I-1
I-1
I-2
I-1
I-1
I1
I-2
I1
I-1
I-2
I1
I-1
I1
I-1
I1
I1
I-1
I2
I2
I-2
I0
I-2
I2
I2
I0
I2
I2
I2
I0
I0
I2
I-2
I-1
I-2
I1
I-2
I-2
I-1
I-2
I-1
I-1
I-1
I-1
I-2
I-2
I-1
I-1
I1
I-1
I1
I-1
I-1
I0
I1
I1
I-1
I1
I1
I-2
I1
I1
I2
I2
I2
I2
I2
I2
I2
I2
I2
I1
I-1
I-1
I-2
I-2
I2
I1
I-1
I1
I1
I2
I2
I1
I0
I-2
I-2
I2
I1
I2
I0
I2
I2
I0
I2
I2
I-1
I0
I2
I2
I0
I1
I2
I-1
I1
I1
I2
I1
I-1
I1
I-2
I1
I1
I1
I0
I-1
I-1
I1
I-1
I-1
I-2
I-1
I-1
I-2
I-1
I1
I-2
I-2
I-2
I-2
I-2
I-2
I-1
I-1
I-2
I-2
I-1
I-2
I-1
I-2
I1
I-1
I-2
I-1
I-2
I1
I-1
I1
I1
I-2
I-2
I-2
I-1
I1
I-2
I-1
I-2
I-2
I1
I-2
I2
I-1
I-2
I1
I1
I2
I2
I2
I2
I1
I1
I-1
I-1
I1
I-2
I-1
I-2
I-1
I2
I-1
I1
I2
I1
I-2
I-1
I2
I2
I2
I2
I2
I2
I2
I2
I2
I2
I1
I2
I2
I-2
I1
I1
I0
I1
I1
I1
I-1
I-1
I-2
I-1
I-1
I0
I2
I2
I2
I2
I2
I-1
I-2
I-2
I-2
I-2
I2
I1
I-2
I2
I-1
I1
I-1
I1
I2
I-1
I2
I1
I1
I1
I2
I2
I-1
I1
I1
I-1
I2
I1
I2
I1
I-2
I-2
I-2
I-2
I-1
I-1
I-2
I-1
I-2
I-2
I-1
I1
I-1
I-1
I0
I-2
I-2
I0
I1
I1
I1
I1
I-2
I1
I-1
I1
I-2
I-1
I1
I-2
I-1
I-2
I0
I-2
I-1
I-1
I-2
I2
I-1
I-1
I-2
I-1
I2
I1
I-1
I1
I1
I-1
I0
I-2
I-1
I-2
I-1
I-1
I1
I-1
I-2
I-1
I-2
I-2
I1
I-1
I-1
I-2
I-2
I-2
I-1
I2
I1
I1
I1
I-1
I-1
I1
I1
I0
I-1
I-1
I-2
I-2
I-1
I1
I2
I2
I2
I2
I2
I2
I2
I2
I-1
I1
I1
I-2
I-1
I2
I1
I-1
I2
I2
I1
I2
I1
I2
I1
I1
I1
I0
I1
I-1
I-2
I2
I2
I2
I2
I2
I1
I2
I1
I-2
I-1
I2
I1
I2
I1
I2
I-1
I1
I-2
I-2
I2
I-1
I-2
I-2
I-2
I-1
I-2
I-1
I-2
I1
I-2
I1
I-1
I2
tp6
sS'40869d3f32ace97a.jpg'
p7
(I2
I2
I2
I-2
I2
I1
I2
I2
I-2
I-1
I-1
I1
I1
I1
I2
I1
I2
I2
I-2
I2
I1
I1
I2
I-2
I1
I-1
I0
I1
I-1
I2
I-1
I1
I2
I-2
I2
I-2
I1
I2
I-2
I-2
I0
I-2
I-1
I1
I0
I2
I-2
I-2
I1
I-1
I1
I-1
I1
I2
I-2
I-1
I-1
I-1
I1
I-1
I2
I2
I-1
I-2
I-1
I-1
I1
I1
I2
I2
I-2
I-1
I1
I-1
I1
I1
I2
I1
I-2
I0
I1
I-1
I1
I1
I-1
I1
I-1
I-1
I1
I-1
I2
I-1
I0
I2
I-2
I-1
I2
I-2
I2
I-2
I0
I2
I-2
I0
I-2
I-2
I0
I0
I1
I2
I-2
I-1
I-2
I-1
I1
I-2
I2
I-2
I-2
I-2
I-2
I-2
I-1
I-2
I1
I-2
I-2
I-2
I-2
I-2
I-1
I-1
I1
I-2
I-2
I-2
I-2
I-2
I-1
I-1
I-2
I-2
I-2
I-1
I-1
I1
I1
I2
I1
I-2
I1
I2
I-1
I0
I2
I-1
I2
I-1
I0
I1
I-2
I0
I2
I-2
I2
I-2
I-1
I1
I-2
I0
I-2
I-2
I-1
I2
I2
I2
I1
I2
I1
I2
I2
I-2
I1
I-1
I2
I2
I2
I2
I2
I-1
I2
I1
I2
I2
I2
I2
I2
I-2
I2
I1
I1
I2
I2
I2
I2
I-2
I2
I-1
I1
I2
I1
I-1
I1
I-2
I1
I-2
I1
I1
I-2
I0
I2
I-1
I1
I-1
I-1
I1
I-1
I1
I2
I-1
I2
I-2
I0
I2
I-1
I1
I-2
I-2
I1
I-1
I1
I2
I2
I2
I-2
I-2
I-1
I-2
I2
I1
I1
I2
I-2
I-2
I-1
I-2
I0
I-1
I1
I1
I-2
I-1
I1
I0
I1
I1
I2
I2
I-2
I-1
I2
I-1
I2
I0
I2
I2
I-2
I-1
I1
I-2
I0
I0
I0
I1
I-1
I1
I2
I0
I2
I0
I1
I2
I-1
I0
I2
I-2
I2
I-2
I1
I2
I-2
I-1
I-2
I-2
I0
I-2
I-1
I0
I-1
I-1
I-2
I-1
I1
I0
I2
I-1
I-1
I1
I-2
I-1
I-1
I-2
I1
I-2
I-1
I-1
I-1
I-2
I0
I-1
I2
I-1
I-1
I1
I-2
I-2
I0
I-2
I0
I-2
I-1
I-1
I-2
I0
I0
I0
I1
I-1
I-1
I1
I-1
I-1
I2
I-1
I2
I-1
I-1
I1
I-2
I-1
I2
I-2
I2
I-2
I-1
I1
I-2
I0
I-2
I-2
I-1
I1
I1
I1
I-2
I-1
I1
I1
I2
I-1
I2
I-2
I-2
I0
I-1
I1
I1
I-2
I1
I-2
I-2
I-1
I1
I1
I2
I-1
I2
I-2
I-1
I1
I-1
I1
I1
I-2
I0
I-2
I-1
I-1
I1
I1
I1
I0
I1
I-1
I-1
I1
I-1
I1
I2
I-1
I2
I-1
I-1
I2
I-1
I1
I2
I-2
I2
I-2
I0
I2
I-1
I1
I-2
I-2
I0
I2
I2
I2
I1
I2
I1
I2
I2
I-2
I2
I-1
I2
I2
I0
I2
I2
I-2
I1
I1
I2
I2
I1
I1
I2
I-1
I2
I1
I1
I2
I-1
I1
I1
I-2
I1
I-1
I0
I1
I1
I1
I1
I-1
I1
I-1
I0
I1
I-1
I1
I2
I-1
I2
I-1
I-1
I2
I-2
I0
I2
I-2
I2
I-2
I0
I2
I-2
I0
I-2
I-2
I0
I-1
I1
I2
I-2
I-2
I-1
I-2
I1
I-2
I-2
I-1
I-1
I1
I-2
I-1
I1
I-1
I1
I-2
I0
I1
I-1
I1
I-1
I0
I1
I-1
I1
I-1
I1
I2
I-1
I2
I-2
I0
I2
I-2
I2
I-2
I0
I-2
tp8
sS'c7f100a336962d6e.jpg'
p9
(I-2
I2
I1
I2
I2
I2
I2
I2
I-2
I2
I1
I1
I2
I-2
I-2
I-2
I-1
I-2
I2
I0
I2
I-1
I-2
I0
I2
I-1
I-2
I1
I-2
I-1
I-2
I-1
I-1
I1
I1
I1
I1
I1
I-1
I-1
I0
I-2
I-2
I-1
I2
I2
I-1
I-2
I-1
I1
I-1
I2
I2
I2
I-2
I-1
I2
I1
I1
I2
I2
I2
I-2
I1
I-2
I-1
I-2
I1
I1
I-2
I2
I1
I1
I2
I-1
I2
I1
I1
I2
I2
I2
I1
I2
I2
I2
I2
I-1
I1
I-1
I-2
I0
I-1
I1
I1
I1
I-1
I1
I0
I1
I1
I1
I0
I-1
I0
I-1
I1
I-1
I-2
I-2
I1
I-2
I-2
I-2
I-2
I-2
I-1
I-1
I-2
I-2
I-2
I-2
I-2
I-1
I1
I-1
I-2
I-1
I1
I-2
I-1
I-2
I1
I-2
I-1
I1
I-1
I2
I-1
I-2
I2
I0
I2
I2
I2
I-1
I-2
I1
I0
I2
I2
I2
I2
I-2
I-1
I-1
I-2
I1
I1
I1
I1
I-1
I-1
I-1
I-1
I-1
I-1
I-1
I-1
I0
I1
I1
I1
I1
I2
I2
I-2
I-1
I-2
I2
I2
I2
I2
I2
I1
I-1
I1
I2
I1
I1
I-2
I2
I-2
I-2
I1
I-1
I-1
I-2
I-2
I-1
I-2
I-1
I-2
I1
I-2
I-2
I1
I0
I1
I-2
I-2
I-2
I-2
I-1
I0
I1
I-2
I-2
I-1
I-2
I-1
I1
I-1
I-1
I-2
I-2
I-2
I-1
I1
I-1
I1
I1
I-1
I-1
I1
I1
I-1
I-1
I-2
I0
I1
I-2
I-2
I2
I2
I2
I1
I2
I2
I1
I2
I2
I2
I-1
I2
I2
I-1
I2
I2
I2
I2
I-1
I1
I-1
I-2
I-2
I-1
I-1
I-2
I2
I2
I2
I2
I-1
I2
I1
I-1
I2
I2
I2
I1
I2
I1
I-1
I2
I1
I2
I1
I-2
I0
I-2
I1
I2
I2
I1
I2
I0
I2
I1
I2
I2
I-1
I0
I-2
I0
I0
I-2
I-2
I-1
I1
I1
I-2
I-2
I-2
I1
I-1
I1
I1
I0
I-2
I-2
I1
I1
I1
I2
I1
I1
I-2
I1
I-2
I-1
I-2
I1
I1
I-1
I2
I-1
I-1
I2
I-2
I2
I1
I0
I1
I1
I2
I2
I2
I2
I2
I2
I-2
I-1
I-1
I-2
I1
I-1
I2
I2
I-2
I-2
I0
I-1
I0
I1
I1
I-2
I-2
I0
I0
I1
I-2
I-1
I-1
I-1
I-2
I-2
I-1
I-1
I-2
I1
I-1
I-2
I-2
I-2
I0
I-1
I-1
I1
I1
I-2
I-1
I1
I-1
I-1
I-2
I-1
I-1
I-2
I-1
I-2
I1
I-1
I-2
I1
I-1
I1
I-1
I1
I0
I-2
I1
I1
I2
I1
I2
I2
I-2
I-2
I-1
I-2
I1
I-1
I-1
I-1
I-2
I-1
I-1
I-1
I-2
I-1
I-1
I-1
I2
I2
I2
I2
I2
I2
I2
I-2
I0
I-1
I2
I2
I2
I2
I2
I2
I2
I2
I2
I1
I2
I-2
I2
I-1
I-1
I2
I-1
I1
I-1
I-2
I-1
I-2
I-1
I-2
I1
I1
I-1
I1
I1
I1
I-2
I-2
I-1
I-2
I1
I-1
I0
I-2
I-2
I-2
I-2
I1
I1
I0
I1
I-2
I-2
I-1
I1
I1
I-2
I-1
I0
I-2
I-1
I1
I1
I-2
I0
I-1
I1
I0
I-2
I-1
I1
I-2
I1
I1
I1
I-2
I1
I2
I-1
I2
I-2
I1
I-1
I-2
I-2
I2
I2
I2
I2
I-1
I2
I2
I2
I1
I2
I2
I2
I2
I-2
I1
I1
I1
I1
I-1
I2
I-1
I-1
I-2
tp10
sS'1afcb7668e34c62c.jpg'
p11
(I2
I0
I2
I-2
I-1
I-2
I1
I-2
I1
I-1
I1
I-2
I-2
I1
I1
I-2
I-2
I-2
I-1
I-1
I-2
I-2
I-2
I1
I1
I-2
I-1
I0
I-1
I2
I-2
I-1
I1
I-2
I-1
I-2
I-1
I1
I1
I-1
I1
I0
I2
I2
I1
I-1
I-2
I-1
I-1
I-2
I-2
I-2
I-2
I-2
I2
I2
I2
I2
I1
I-1
I0
I-2
I2
I2
I2
I-1
I-1
I-1
I-2
I-2
I2
I2
I2
I1
I2
I-2
I-2
I-1
I2
I1
I2
I-2
I1
I-2
I-2
I2
I0
I1
I2
I-1
I1
I-2
I1
I0
I-1
I1
I1
I-1
I2
I-1
I-1
I-2
I-1
I-1
I-2
I-2
I-2
I-1
I2
I-1
I0
I2
I1
I2
I1
I1
I1
I1
I2
I-1
I2
I0
I1
I-1
I-2
I2
I-1
I2
I2
I2
I2
I2
I-1
I2
I2
I2
I2
I2
I2
I1
I2
I2
I2
I2
I1
I2
I2
I-2
I2
I2
I2
I2
I-2
I-1
I1
I-2
I0
I1
I1
I2
I0
I1
I2
I0
I-1
I1
I2
I1
I2
I2
I1
I2
I1
I0
I-1
I2
I-1
I2
I-2
I-2
I-2
I-2
I-2
I-2
I-2
I-2
I1
I1
I-2
I2
I2
I2
I2
I2
I-2
I-2
I-2
I-2
I0
I-1
I1
I0
I-2
I-2
I-2
I0
I1
I1
I0
I-1
I-2
I-2
I-1
I-2
I-1
I-1
I-2
I-1
I-2
I-1
I-1
I1
I1
I-1
I-1
I2
I-2
I-2
I-2
I-1
I-1
I-2
I1
I1
I-1
I-1
I1
I2
I2
I1
I2
I2
I0
I2
I-2
I2
I-2
I-2
I-1
I-2
I-1
I-2
I2
I-2
I1
I1
I1
I1
I-2
I-2
I-2
I-1
I-1
I-1
I-1
I-2
I-2
I-2
I0
I0
I1
I1
I-1
I-2
I-2
I-2
I1
I2
I1
I1
I1
I-2
I-1
I-1
I1
I1
I2
I-1
I2
I-2
I-1
I2
I-2
I-1
I-2
I-2
I1
I-2
I0
I0
I-1
I-2
I-1
I-1
I-1
I0
I2
I2
I2
I1
I-2
I1
I-1
I-2
I-2
I-1
I-1
I-1
I2
I2
I2
I2
I-2
I1
I1
I1
I2
I2
I2
I2
I1
I2
I2
I2
I2
I2
I2
I-1
I2
I2
I2
I2
I2
I1
I2
I-2
I1
I0
I1
I2
I1
I1
I2
I-1
I2
I-1
I1
I2
I-2
I0
I1
I-2
I0
I-2
I-1
I-1
I0
I1
I0
I-1
I-2
I-2
I1
I-1
I-1
I2
I-1
I1
I-1
I1
I-1
I-1
I2
I-1
I1
I-1
I-2
I1
I-1
I2
I-1
I1
I-1
I-2
I-2
I1
I-1
I-1
I1
I1
I-2
I-2
I0
I1
I1
I1
I1
I2
I-2
I-1
I1
I-1
I2
I1
I2
I2
I-2
I-1
I2
I-2
I1
I1
I1
I1
I-2
I1
I1
I-1
I-1
I-1
I1
I-1
I1
I2
I1
I1
I0
I1
I1
I2
I-1
I2
I-2
I-2
I-2
I-2
I-2
I-2
I-2
I-2
I1
I1
I1
I2
I1
I2
I1
I1
I-1
I-1
I-1
I-1
I1
I-1
I-1
I-1
I-1
I-1
I-1
I-1
I2
I-1
I-1
I-1
I-2
I-2
I-1
I-2
I-1
I-2
I-2
I-2
I-2
I-1
I1
I1
I1
I-2
I-1
I1
I-2
I-1
I-1
I-1
I-1
I-2
I-1
I1
I1
I0
I1
I1
I2
I1
I2
I2
I-2
I2
I-2
I-2
I-2
I2
I-1
I1
I2
I0
I-1
I1
I1
I0
I1
I1
I1
I2
I-1
I1
I1
I2
I2
I-1
I2
I2
I1
I2
I-2
I1
I-1
I1
I-1
I-1
I2
I-1
I-2
I-2
tp12
s.