(dp0
S'6db26b99d14c9629.jpg'
p1
(I2
I2
I2
I-2
I-2
I-2
I-2
I-2
I2
I0
I-1
I-2
I-1
I0
I2
I-2
I-1
I1
I-2
I-2
I-2
I-1
I-2
I2
I2
I2
I1
I1
I-2
I1
I-1
I-1
I-1
I-1
I2
I-1
I-1
I0
I-2
I-2
I-2
I-2
I2
I-1
I-2
I-2
I-2
I2
I1
I1
I-1
I-2
I-1
I-1
I2
I2
I2
I1
I1
I1
I1
I2
I1
I1
I2
I-1
I1
I0
I1
I2
I-1
I1
I-2
I-2
I-1
I-1
I2
I2
I2
I-1
I1
I1
I0
I2
I2
I2
I-1
I1
I1
I0
I1
I2
I2
I2
I1
I1
I2
I-1
I1
I2
I2
I2
I0
I2
I-1
I1
I2
I2
I2
I2
I2
I2
I2
I1
I-1
I-2
I1
I-1
I2
I-1
I1
I-1
I0
I-1
I1
I2
I-1
I-1
I-2
I-1
I1
I-1
I2
I-2
I-2
I1
I-2
I-2
I-2
I-2
I0
I-2
I-1
I-2
I-2
I-2
I-2
I0
I1
I-1
I-2
I-1
I-2
I-2
I-2
I-1
I-1
I-2
I-1
I-1
I-2
I-2
I-1
I1
I1
I-1
I-1
I0
I-2
I-2
I-1
I-2
I-1
I-2
I1
I2
I1
I0
I-2
I-2
I-2
I-2
I-2
I-2
I-2
I-2
I1
I1
I2
I2
I1
I1
I1
I1
I1
I2
I2
I-1
I2
I0
I1
I2
I-1
I1
I1
I-2
I-1
I-1
I1
I-1
I2
I2
I2
I1
I2
I2
I-1
I1
I1
I1
I1
I-2
I-1
I-2
I-1
I-2
I1
I1
I2
I1
I1
I-1
I-1
I-1
I0
I1
I-1
I-2
I-1
I-1
I2
I-1
I-2
I-1
I0
I2
I-1
I1
I0
I-1
I0
I1
I2
I-1
I0
I0
I1
I0
I1
I2
I-1
I-1
I1
I-1
I2
I1
I1
I2
I-2
I-1
I-2
I-2
I-2
I-1
I1
I1
I1
I1
I2
I2
I1
I2
I2
I2
I-1
I1
I1
I-1
I0
I2
I2
I2
I2
I1
I2
I0
I1
I2
I2
I2
I1
I1
I-1
I1
I2
I2
I1
I1
I2
I2
I1
I0
I0
I-1
I1
I1
I2
I-2
I-1
I-1
I-1
I-1
I1
I2
I-2
I-2
I-2
I-1
I1
I-1
I2
I-2
I-2
I1
I-2
I-1
I-2
I-2
I-1
I-2
I-2
I-2
I-1
I-2
I-2
I1
I1
I-1
I-2
I-2
I-2
I-2
I-2
I-1
I1
I-2
I-2
I-2
I-2
I-2
I-1
I-1
I2
I-2
I-2
I-2
I-2
I-2
I-2
I-2
I-2
I-2
I-1
I2
I-1
I-1
I-2
I-2
I-2
I-2
I-2
I-2
I-2
I-2
I2
I2
I2
I2
I2
I2
I2
I2
I2
I2
I2
I-2
I2
I1
I1
I2
I-1
I2
I1
I-2
I-1
I-1
I1
I-1
I2
I2
I2
I1
I0
I2
I0
I1
I2
I2
I2
I0
I1
I0
I1
I0
I2
I2
I2
I-1
I-1
I1
I0
I1
I2
I2
I1
I1
I1
I1
I2
I-1
I-1
I1
I1
I2
I-2
I1
I1
I-1
I1
I2
I2
I-2
I-1
I-1
I1
I1
I1
I2
I-2
I-1
I1
I-1
I2
I1
I1
I2
I-2
I-1
I-2
I-2
I-2
I-2
I1
I-2
I1
I0
I0
I2
I1
I2
I0
I1
I-1
I-1
I-1
I-1
I-1
I-1
I0
I1
I0
I0
I-1
I1
I1
I1
I2
I2
I-1
I-1
I-1
I1
I2
I1
I1
I2
I-1
I-1
I-1
I-2
I1
I-2
I-1
I-1
I-1
I1
I-2
I-1
I2
I-1
I2
I-2
I-1
I-2
I-2
I-2
I2
I0
I1
I2
I1
I-1
I0
I-1
I-1
I1
I-1
I-2
I-1
I-1
I2
I-2
I-2
I-2
tp2
sS'1e06a09baad1e3a2.jpg'
p3
(I-2
I0
I-1
I1
I-2
I1
I1
I-1
I2
I2
I2
I1
I1
I-2
I-1
I-2
I-2
I-2
I1
I-2
I-2
I-1
I1
I2
I1
I1
I2
I1
I-1
I-1
I2
I-1
I-1
I1
I0
I1
I0
I1
I0
I0
I2
I0
I-1
I-1
I-1
I-2
I1
I-1
I-2
I1
I-2
I1
I-2
I-2
I1
I-1
I2
I2
I-1
I0
I-1
I2
I-1
I2
I2
I1
I2
I-1
I2
I2
I2
I1
I-1
I-2
I2
I2
I2
I2
I-1
I-2
I-2
I-2
I-2
I1
I2
I-1
I-1
I1
I-1
I2
I-1
I2
I2
I1
I1
I0
I0
I1
I2
I2
I1
I1
I-2
I-2
I-2
I-1
I-1
I1
I-1
I-2
I1
I-1
I2
I2
I0
I2
I-1
I2
I1
I-1
I2
I1
I1
I1
I2
I2
I-1
I2
I-2
I-2
I-2
I-2
I1
I-2
I-1
I-2
I-2
I-2
I-1
I-1
I1
I-2
I-2
I-2
I-2
I-2
I-2
I-1
I-2
I-2
I-2
I-2
I1
I-2
I-2
I2
I-1
I-1
I-2
I-2
I-1
I-1
I1
I1
I-1
I-1
I-1
I-1
I-1
I1
I1
I-1
I-1
I-1
I-2
I-1
I-1
I-2
I1
I-1
I-2
I1
I-2
I1
I-1
I-1
I1
I1
I2
I2
I2
I2
I1
I1
I-2
I1
I2
I-2
I-2
I-2
I-2
I1
I2
I2
I2
I2
I1
I-1
I2
I2
I2
I2
I1
I-1
I-1
I2
I2
I1
I2
I2
I1
I1
I-1
I2
I1
I1
I2
I1
I1
I1
I1
I2
I2
I2
I1
I1
I-1
I1
I1
I1
I-1
I-1
I0
I-2
I2
I1
I-2
I1
I-1
I1
I-1
I-2
I1
I-1
I2
I1
I0
I0
I-2
I2
I-1
I2
I1
I0
I2
I-2
I2
I2
I-1
I-2
I-2
I-2
I1
I1
I2
I1
I-2
I-2
I-2
I-1
I-1
I1
I1
I-2
I-1
I-1
I-2
I1
I-1
I2
I-1
I-1
I-1
I-2
I-1
I1
I0
I0
I0
I-1
I-2
I-1
I0
I-1
I-1
I0
I-1
I-2
I1
I-1
I2
I1
I0
I2
I-2
I2
I1
I-1
I2
I2
I2
I2
I2
I2
I1
I2
I-2
I-2
I-1
I-2
I1
I-2
I-2
I-2
I-2
I-2
I-1
I-1
I-1
I-2
I-2
I-2
I-1
I-1
I-2
I1
I-2
I-2
I-1
I-2
I2
I1
I0
I2
I0
I1
I1
I-2
I1
I0
I1
I0
I-1
I1
I-2
I-1
I1
I1
I1
I-2
I0
I-1
I-2
I-1
I-1
I-2
I1
I-1
I-2
I1
I-2
I1
I-1
I-1
I1
I-1
I2
I2
I2
I1
I1
I1
I-2
I2
I2
I-2
I-2
I-2
I-2
I2
I2
I2
I2
I2
I2
I1
I2
I2
I2
I1
I-1
I-2
I-1
I1
I1
I0
I2
I-1
I-1
I1
I-2
I2
I1
I-1
I2
I2
I2
I2
I2
I2
I2
I2
I1
I0
I-2
I1
I0
I1
I-1
I-2
I0
I-2
I2
I1
I-1
I2
I1
I2
I-1
I-2
I1
I-1
I2
I-1
I-1
I-1
I-2
I2
I-1
I2
I-1
I1
I2
I-2
I2
I2
I-2
I-2
I-1
I-2
I1
I1
I1
I-2
I-2
I-1
I-2
I-1
I-1
I1
I-2
I-2
I0
I-1
I-2
I1
I-2
I-2
I-2
I-2
I1
I-2
I-1
I2
I-1
I-1
I0
I-1
I-2
I0
I1
I1
I-1
I0
I-2
I-2
I2
I1
I1
I2
I-2
I2
I2
I2
I2
I2
I-2
I-2
I-1
I-2
I1
I-2
I-1
I-1
I-1
I-2
I2
I2
I2
I2
I0
I2
I2
I1
I0
I1
I2
I0
I-1
I-1
I-1
I1
I1
I1
tp4
s.