(dp0
S'b7df4b0b2988fe6b.jpg'
p1
(I-2
I-1
I-2
I2
I-1
I2
I0
I1
I1
I-1
I1
I2
I-1
I1
I-1
I2
I-1
I-2
I1
I2
I-1
I-1
I2
I-2
I-1
I-2
I-1
I-1
I1
I-2
I1
I-1
I-2
I2
I-1
I2
I0
I-2
I1
I1
I-1
I1
I-2
I-2
I1
I-2
I2
I0
I-1
I2
I1
I2
I1
I0
I-1
I-2
I-2
I-1
I-2
I0
I-1
I-1
I1
I1
I1
I2
I-1
I2
I2
I-1
I1
I1
I2
I1
I2
I2
I0
I2
I-2
I1
I-1
I-2
I-1
I-2
I-1
I0
I1
I1
I-2
I1
I-2
I-1
I1
I-2
I2
I0
I-1
I2
I-2
I2
I0
I-1
I2
I1
I2
I2
I1
I-1
I-2
I-2
I-2
I-2
I2
I-1
I0
I2
I-1
I2
I-1
I-1
I0
I1
I-2
I1
I0
I0
I0
I-2
I1
I-2
I-2
I0
I-2
I0
I-2
I-2
I1
I0
I2
I2
I2
I1
I1
I2
I-2
I1
I1
I-2
I1
I-1
I1
I0
I0
I-1
I-2
I-1
I-2
I-1
I-1
I-2
I2
I0
I-2
I2
I-2
I1
I0
I-2
I1
I-1
I2
I2
I0
I2
I-2
I-2
I2
I-2
I2
I1
I0
I2
I0
I2
I0
I1
I1
I0
I0
I0
I-2
I1
I1
I0
I2
I2
I-1
I2
I-1
I2
I1
I-2
I2
I-1
I1
I1
I1
I2
I-1
I2
I-2
I-1
I1
I-1
I-1
I-2
I1
I1
I0
I1
I-1
I1
I-1
I1
I1
I-2
I2
I0
I-2
I1
I-2
I2
I-1
I-1
I2
I0
I2
I1
I1
I-2
I-2
I-2
I0
I-2
I2
I0
I-1
I2
I0
I2
I2
I-1
I-1
I-1
I-2
I0
I-1
I1
I-1
I-1
I0
I-1
I-2
I1
I-2
I-1
I-1
I-2
I2
I1
I2
I2
I2
I2
I2
I2
I-2
I-1
I-1
I-2
I0
I-2
I1
I-1
I-1
I-1
I-2
I0
I-2
I0
I-1
I-2
I2
I1
I-1
I2
I-1
I2
I1
I-1
I1
I-1
I1
I1
I0
I0
I-2
I-2
I-2
I-2
I2
I-2
I-1
I2
I-2
I1
I-2
I-1
I1
I1
I1
I2
I0
I1
I2
I-2
I1
I1
I-2
I0
I-1
I1
I-2
I-2
I2
I-2
I2
I1
I2
I-1
I-1
I2
I-2
I-1
I0
I-2
I-1
I-2
I1
I-1
I1
I1
I-2
I1
I-2
I2
I1
I-2
I2
I-1
I-1
I2
I-1
I2
I0
I-1
I1
I0
I1
I1
I0
I2
I-1
I-2
I2
I-2
I2
I2
I-1
I2
I1
I2
I1
I1
I1
I-2
I-1
I-1
I-2
I1
I-1
I-1
I2
I2
I1
I2
I-1
I2
I2
I1
I2
I1
I2
I1
I2
I2
I1
I2
I-2
I-1
I-2
I-2
I-2
I-2
I-2
I-2
I1
I-1
I-2
I2
I-2
I-1
I1
I-2
I2
I0
I-1
I2
I-1
I2
I1
I-1
I1
I0
I1
I1
I-1
I-2
I-2
I-2
I-2
I-2
I2
I-1
I-1
I2
I-1
I2
I-1
I-1
I-1
I1
I-2
I1
I-1
I-1
I-1
I-2
I1
I-2
I-2
I1
I-2
I1
I-1
I-2
I-1
I-1
I2
I2
I1
I0
I-1
I2
I-2
I2
I1
I-1
I1
I-2
I1
I0
I2
I-1
I-2
I-1
I-2
I-1
I-1
I-2
I2
I-1
I-1
I2
I-2
I2
I1
I-2
I1
I1
I2
I2
I0
I2
I-2
I-2
I2
I1
I1
I2
I0
I1
I1
I-1
I0
I-2
I2
I1
I0
I2
I-1
I2
I1
I2
I1
I2
I-2
I-1
I1
I-2
I-1
I0
I1
I-2
I1
I-1
I2
I-1
I-2
I1
I-2
I2
I0
I2
tp2
sS'28da3896ff4b8b2c.jpg'
p3
(I-2
I2
I-2
I2
I1
I2
I2
I1
I-1
I-2
I1
I-1
I-2
I2
I0
I2
I1
I-1
I0
I2
I1
I-1
I2
I-2
I-1
I-2
I-2
I-2
I1
I-2
I0
I-1
I-2
I2
I-1
I2
I-1
I-2
I1
I0
I-1
I-2
I-2
I-2
I-1
I-2
I2
I-2
I-1
I2
I-1
I2
I-2
I-2
I-1
I1
I-2
I1
I-2
I-1
I-1
I-1
I2
I-1
I-1
I2
I-1
I1
I1
I-1
I1
I1
I2
I1
I2
I2
I0
I2
I-2
I2
I0
I-2
I-1
I-2
I-1
I-1
I2
I1
I-2
I1
I-2
I1
I1
I-2
I2
I1
I0
I2
I-1
I2
I1
I-1
I2
I1
I1
I2
I0
I1
I-2
I-2
I-1
I-2
I2
I2
I1
I2
I0
I2
I1
I1
I2
I1
I-1
I0
I0
I1
I1
I-1
I1
I-1
I-2
I0
I-2
I2
I-1
I-1
I1
I0
I2
I2
I2
I1
I1
I2
I-2
I1
I-1
I-2
I0
I-1
I0
I-1
I1
I-1
I-2
I0
I-2
I0
I-1
I-2
I2
I-1
I-2
I2
I-2
I2
I-1
I-2
I1
I0
I2
I1
I1
I1
I-2
I-2
I2
I-2
I2
I-1
I-1
I2
I1
I2
I2
I-1
I-1
I-1
I-2
I-1
I-2
I2
I-1
I-2
I1
I1
I-2
I2
I-1
I1
I1
I-1
I1
I-1
I1
I1
I1
I1
I-1
I2
I-2
I0
I0
I-1
I-1
I-2
I1
I0
I1
I1
I-2
I1
I-2
I1
I1
I-2
I2
I1
I-1
I2
I0
I2
I0
I-1
I2
I-1
I0
I1
I-1
I-2
I-2
I-2
I-2
I-2
I2
I-2
I-2
I2
I-2
I2
I-2
I-2
I1
I1
I-1
I2
I-1
I1
I0
I-2
I2
I-1
I-1
I1
I-2
I0
I-2
I-1
I1
I1
I2
I2
I2
I0
I1
I2
I-2
I-1
I-1
I-2
I-1
I-1
I1
I-1
I0
I-1
I-2
I1
I-2
I1
I0
I-2
I2
I0
I-1
I2
I-2
I2
I0
I-1
I1
I1
I2
I2
I1
I2
I-2
I-2
I0
I-2
I2
I2
I-1
I2
I-1
I2
I-1
I1
I2
I0
I0
I1
I-2
I1
I2
I-1
I2
I2
I0
I2
I1
I2
I1
I-1
I1
I-1
I1
I-1
I2
I-1
I-2
I1
I-2
I-1
I-2
I-2
I-2
I-2
I-1
I-2
I1
I0
I-2
I2
I-2
I0
I0
I-2
I2
I0
I-2
I2
I-1
I2
I0
I-2
I1
I-1
I1
I1
I-2
I0
I-2
I-2
I1
I-2
I2
I1
I-1
I2
I2
I2
I1
I-1
I-1
I-2
I-2
I-2
I-2
I-1
I-2
I-2
I1
I-1
I1
I2
I-1
I1
I1
I0
I1
I2
I2
I1
I2
I2
I1
I2
I-1
I1
I0
I-2
I-1
I-2
I-1
I0
I2
I0
I-2
I1
I-2
I0
I1
I-2
I2
I0
I-1
I2
I-2
I2
I0
I-1
I2
I2
I2
I2
I1
I-1
I-2
I-2
I-2
I-2
I2
I-1
I1
I2
I-2
I2
I-1
I-1
I1
I2
I-1
I2
I0
I1
I1
I-1
I2
I-1
I-2
I0
I-1
I1
I-1
I-1
I0
I-1
I2
I1
I1
I0
I0
I1
I-2
I1
I0
I-1
I1
I-1
I0
I-1
I0
I-1
I-2
I-1
I-2
I-1
I-2
I-2
I2
I0
I-2
I2
I-1
I2
I0
I-2
I1
I-1
I1
I1
I-1
I2
I-2
I-2
I2
I1
I-1
I2
I1
I1
I-1
I-1
I-1
I-2
I1
I1
I0
I2
I0
I1
I0
I1
I0
I1
I-1
I0
I1
I-1
I-1
I1
I2
I-2
I1
I-2
I2
I0
I-1
I2
I-2
I2
I1
I2
tp4
sS'6a57cf69206b6e90.jpg'
p5
(I1
I0
I0
I-1
I-2
I-1
I-1
I-2
I2
I-2
I1
I0
I-2
I2
I2
I2
I1
I1
I-2
I-2
I-2
I-2
I-2
I2
I-1
I0
I-1
I1
I1
I0
I0
I2
I1
I0
I2
I2
I1
I2
I-2
I-1
I0
I0
I1
I0
I0
I0
I0
I1
I-1
I0
I-1
I0
I0
I-1
I2
I0
I-2
I1
I-2
I1
I0
I-2
I2
I-1
I2
I2
I0
I2
I0
I1
I-1
I2
I0
I0
I-1
I0
I0
I0
I2
I1
I0
I1
I2
I1
I1
I0
I-1
I-2
I-2
I-2
I-1
I-1
I-1
I-1
I-1
I-1
I1
I1
I1
I-1
I0
I0
I-2
I0
I-1
I-2
I-1
I0
I0
I0
I0
I2
I0
I0
I-1
I0
I-1
I0
I2
I-1
I1
I0
I-2
I1
I-2
I2
I1
I-2
I2
I0
I0
I2
I1
I2
I1
I0
I-1
I0
I-1
I-1
I0
I0
I-1
I-2
I0
I-1
I1
I0
I0
I0
I-2
I-2
I0
I1
I1
I0
I0
I-2
I-1
I0
I1
I0
I2
I0
I0
I-2
I-1
I0
I0
I1
I0
I-1
I-1
I0
I0
I2
I1
I-1
I-2
I-2
I-2
I-2
I-2
I-1
I-2
I-2
I1
I-1
I-2
I2
I-2
I0
I-1
I-2
I2
I-1
I0
I2
I-1
I2
I-2
I0
I0
I1
I0
I1
I-2
I0
I1
I-1
I2
I2
I2
I2
I2
I2
I1
I2
I2
I1
I2
I-2
I1
I0
I0
I0
I0
I1
I1
I-1
I0
I-1
I-1
I2
I0
I1
I0
I-2
I2
I-1
I1
I-1
I-2
I-2
I1
I2
I0
I1
I-1
I0
I0
I-1
I2
I1
I-2
I1
I-2
I1
I0
I-2
I2
I2
I0
I2
I1
I2
I-1
I1
I0
I-1
I-2
I-1
I-2
I-2
I-1
I-2
I1
I-1
I0
I2
I0
I2
I0
I-1
I-2
I0
I1
I0
I0
I-1
I-1
I0
I0
I1
I2
I0
I2
I-1
I0
I2
I-2
I-2
I-2
I-2
I-2
I1
I0
I0
I0
I1
I2
I0
I-1
I0
I-1
I0
I1
I-2
I1
I0
I-2
I1
I-2
I2
I-1
I-2
I2
I1
I2
I2
I1
I2
I-1
I2
I-1
I1
I-2
I-1
I-2
I-2
I1
I-2
I2
I0
I1
I2
I0
I2
I0
I1
I1
I1
I1
I0
I1
I1
I1
I0
I0
I0
I2
I-1
I2
I0
I-1
I1
I-2
I1
I-2
I-2
I-1
I0
I0
I0
I1
I0
I-1
I-1
I-2
I0
I-2
I0
I-1
I-2
I2
I1
I-2
I2
I-2
I2
I1
I-2
I2
I1
I2
I2
I2
I2
I1
I0
I-2
I-1
I-2
I-2
I-2
I-2
I-2
I-1
I2
I0
I-1
I2
I1
I0
I2
I2
I-1
I-1
I0
I-1
I-1
I1
I1
I1
I0
I1
I2
I1
I1
I2
I2
I2
I-1
I1
I-1
I0
I2
I-1
I0
I-1
I0
I-1
I0
I1
I-2
I1
I-1
I1
I0
I-1
I2
I-1
I-2
I1
I-2
I1
I0
I-1
I2
I-1
I2
I2
I0
I2
I2
I2
I0
I2
I0
I0
I2
I2
I2
I-2
I1
I-2
I-1
I-2
I0
I1
I-2
I0
I-2
I-1
I-2
I0
I0
I-2
I0
I1
I-1
I-2
I0
I0
I2
I0
I1
I2
I-2
I-2
I-2
I-1
I0
I0
I-1
I-2
I1
I0
I-1
I2
I-1
I1
I0
I-2
I1
I-1
I1
I-2
I-2
I1
I-1
I-2
I-2
I-1
I1
I-2
I2
I2
I2
I2
I2
I0
I0
I0
I-2
I1
I-1
I-1
I1
I-1
I0
I-2
I0
I0
tp6
sS'b7841b14e13e3a4e.jpg'
p7
(I-2
I1
I-2
I2
I0
I2
I-1
I1
I0
I2
I-1
I1
I2
I-2
I2
I-2
I-1
I2
I-2
I1
I-2
I1
I-1
I-1
I-2
I0
I-2
I-1
I2
I1
I0
I1
I1
I-1
I-2
I-1
I0
I-2
I2
I2
I1
I-1
I-2
I-2
I-2
I-2
I2
I1
I1
I2
I2
I2
I0
I2
I-1
I-1
I2
I-2
I2
I-2
I-1
I2
I-2
I1
I2
I-2
I2
I-2
I2
I2
I-2
I-1
I0
I-2
I-2
I-2
I-1
I-1
I1
I2
I0
I2
I1
I1
I1
I0
I1
I-1
I1
I-1
I1
I0
I-1
I-1
I-1
I0
I-2
I-1
I-2
I-2
I-2
I-1
I2
I-1
I2
I2
I2
I2
I-2
I-2
I-2
I-2
I2
I0
I2
I2
I2
I0
I0
I2
I-2
I1
I2
I-2
I2
I-1
I0
I2
I-2
I-2
I2
I-2
I1
I-2
I1
I2
I-2
I1
I-1
I-1
I0
I0
I2
I-1
I1
I-1
I0
I0
I-1
I2
I-1
I0
I0
I1
I2
I1
I0
I-1
I1
I1
I1
I2
I-2
I0
I1
I1
I1
I1
I1
I-2
I-1
I0
I-1
I2
I0
I1
I1
I1
I2
I0
I1
I-1
I2
I1
I1
I2
I-2
I0
I2
I-2
I2
I-1
I0
I2
I-2
I-1
I0
I-2
I2
I-2
I1
I2
I-2
I-2
I-2
I-2
I-2
I-1
I0
I-2
I1
I1
I1
I2
I1
I2
I1
I-1
I0
I-1
I-1
I-1
I1
I-1
I-2
I1
I-1
I-1
I0
I-1
I-1
I-2
I1
I-2
I-1
I1
I1
I2
I-1
I-1
I-1
I0
I1
I-1
I-1
I-1
I1
I0
I1
I1
I-1
I2
I-2
I0
I2
I-1
I2
I-2
I1
I2
I-2
I-1
I1
I-2
I1
I-2
I-2
I1
I-2
I0
I-2
I-1
I-2
I-2
I0
I-2
I2
I-1
I1
I2
I-1
I2
I0
I1
I1
I2
I2
I1
I2
I1
I2
I2
I-1
I-1
I-2
I-2
I-2
I-1
I1
I-2
I2
I1
I2
I2
I0
I-1
I-1
I-2
I2
I-1
I1
I1
I2
I2
I2
I2
I1
I2
I-2
I-2
I2
I-2
I1
I-2
I0
I1
I-2
I2
I2
I-1
I2
I-1
I0
I1
I-1
I0
I-2
I-2
I-2
I-2
I-2
I-2
I2
I0
I-1
I2
I1
I-1
I-1
I-1
I-1
I-2
I1
I-1
I2
I-1
I-1
I1
I-2
I-1
I-2
I-2
I-2
I-2
I-1
I-2
I2
I0
I2
I2
I1
I-2
I-2
I-2
I-2
I-2
I1
I-1
I2
I2
I2
I1
I1
I2
I-2
I0
I1
I-2
I1
I-1
I0
I1
I-1
I0
I2
I-1
I1
I-1
I0
I2
I-1
I2
I1
I-1
I0
I0
I2
I1
I2
I1
I1
I0
I0
I2
I1
I2
I1
I1
I2
I0
I2
I1
I2
I2
I-1
I1
I-2
I-2
I-2
I-1
I0
I-2
I2
I-1
I2
I2
I-2
I2
I-1
I0
I-1
I1
I2
I-1
I1
I0
I1
I-1
I1
I1
I-2
I0
I1
I-1
I1
I-1
I-1
I2
I-1
I0
I0
I-1
I2
I-2
I2
I1
I-2
I-2
I-2
I-2
I-2
I-1
I-2
I-1
I-1
I-1
I-1
I2
I1
I0
I1
I1
I-2
I-2
I1
I-1
I1
I0
I1
I-1
I-2
I0
I-2
I-1
I-2
I0
I-2
I-1
I2
I1
I2
I2
I2
I1
I1
I1
I-1
I-1
I1
I-1
I-1
I-1
I1
I2
I1
I2
I-2
I-2
I1
I-2
I0
I-1
I2
I0
I0
I1
I1
I-1
I0
I-1
I1
I-1
I-1
I0
I-1
I-2
I1
I2
I-2
I2
I1
I1
I-2
I-1
tp8
sS'2b9d559441218fad.jpg'
p9
(I-1
I1
I-2
I1
I1
I2
I-1
I1
I-1
I2
I-1
I0
I2
I-2
I1
I-2
I-1
I0
I-1
I-2
I-1
I-1
I-2
I2
I1
I2
I1
I-1
I-1
I-2
I0
I-1
I-2
I2
I2
I2
I1
I2
I-2
I-2
I0
I-1
I-2
I-2
I1
I-2
I2
I1
I1
I2
I1
I2
I0
I2
I-1
I0
I2
I-1
I2
I-1
I1
I2
I-2
I1
I1
I-2
I1
I-1
I0
I1
I0
I1
I-2
I-1
I-2
I-1
I1
I-2
I2
I-1
I0
I2
I-1
I2
I0
I-1
I1
I1
I-2
I1
I-2
I1
I1
I-2
I2
I-1
I2
I2
I2
I2
I-1
I2
I-2
I0
I-2
I-2
I0
I-1
I-2
I-2
I-1
I-2
I2
I0
I1
I2
I2
I2
I1
I1
I-2
I-1
I1
I-2
I1
I-1
I-1
I1
I-2
I0
I1
I-1
I1
I-2
I-1
I1
I-1
I-1
I-2
I-1
I-2
I-1
I-1
I-2
I2
I0
I-1
I2
I-1
I2
I1
I0
I1
I-1
I-2
I1
I-2
I1
I0
I-2
I2
I1
I2
I2
I2
I2
I1
I2
I-2
I0
I-2
I-2
I0
I1
I-2
I-1
I0
I-2
I2
I-1
I1
I1
I0
I2
I-1
I1
I-1
I1
I2
I0
I2
I-1
I1
I2
I-1
I1
I1
I-2
I1
I-1
I1
I1
I-1
I1
I-2
I-1
I-2
I0
I0
I-2
I2
I-1
I-1
I2
I-1
I2
I-1
I-1
I0
I0
I-2
I1
I-2
I0
I-1
I-2
I2
I-1
I2
I2
I2
I2
I0
I2
I-2
I0
I-2
I-2
I0
I0
I-2
I-2
I0
I-2
I2
I1
I1
I2
I2
I2
I1
I1
I-1
I-1
I1
I-2
I2
I-1
I-1
I2
I-2
I-1
I0
I-2
I-1
I-2
I-1
I1
I-1
I0
I-2
I1
I-2
I-1
I1
I-2
I2
I1
I0
I2
I-1
I2
I1
I0
I1
I1
I-2
I1
I-2
I1
I1
I-2
I2
I0
I2
I2
I2
I2
I0
I2
I-2
I0
I-2
I-2
I0
I0
I-2
I-1
I0
I-2
I2
I-1
I1
I1
I-1
I1
I-1
I0
I-1
I1
I2
I1
I2
I-1
I1
I2
I-2
I1
I1
I-2
I1
I-2
I1
I0
I-1
I-1
I-2
I-1
I-2
I-1
I-1
I-2
I2
I-1
I-1
I2
I-1
I2
I-1
I-1
I0
I-1
I-2
I1
I-2
I0
I-1
I-2
I2
I0
I2
I2
I2
I2
I0
I2
I-2
I0
I-2
I-2
I1
I0
I-1
I-2
I1
I-1
I2
I1
I1
I2
I1
I2
I1
I2
I0
I-1
I2
I-2
I2
I-1
I1
I2
I-2
I-1
I1
I-2
I-1
I-2
I-1
I1
I0
I1
I-2
I1
I-2
I-1
I1
I-2
I2
I1
I0
I2
I-1
I2
I0
I-1
I1
I1
I-2
I1
I-2
I1
I-1
I-2
I2
I0
I2
I2
I2
I2
I0
I2
I-2
I-1
I-2
I-2
I0
I-1
I-2
I-2
I1
I-2
I1
I-1
I1
I2
I1
I2
I-1
I0
I-2
I-1
I2
I-1
I1
I-1
I-1
I1
I-2
I1
I1
I-1
I2
I-2
I0
I1
I-1
I-1
I-2
I-2
I-2
I-2
I-1
I-2
I2
I0
I-1
I2
I-1
I2
I1
I1
I1
I1
I-2
I1
I-2
I1
I1
I-1
I2
I0
I2
I2
I2
I2
I1
I2
I-2
I0
I-2
I-2
I1
I-1
I-2
I-2
I2
I1
I1
I2
I1
I0
I1
I2
I-1
I2
I-1
I0
I2
I-2
I1
I-1
I1
I-2
I-1
I-2
I2
I-1
I-1
I2
I0
I-1
I-1
I-2
I0
I-2
I1
I-1
I2
I2
I2
I-2
I-1
I-2
tp10
sS'1ade2aaf0771bea1.jpg'
p11
(I-2
I2
I-2
I2
I1
I2
I2
I1
I-1
I-2
I1
I-1
I-2
I2
I0
I2
I1
I-1
I0
I2
I1
I-1
I2
I-2
I-2
I-2
I-2
I-2
I2
I-2
I0
I-1
I-2
I2
I-1
I2
I-1
I-2
I1
I0
I-1
I-2
I-2
I-2
I-1
I-2
I2
I-2
I-1
I2
I-1
I2
I-2
I-2
I-1
I1
I-2
I1
I-2
I-1
I-1
I-1
I2
I-1
I-1
I2
I-1
I1
I1
I-1
I1
I1
I2
I1
I2
I2
I0
I2
I-2
I2
I0
I-2
I-1
I-2
I-1
I-1
I2
I1
I-2
I1
I-2
I0
I0
I-2
I2
I1
I0
I2
I-1
I2
I1
I-1
I2
I1
I1
I2
I0
I1
I-2
I-2
I0
I-2
I2
I2
I1
I2
I1
I2
I1
I2
I2
I1
I-1
I-1
I-1
I1
I1
I-1
I1
I-1
I-2
I1
I-2
I1
I-1
I-1
I1
I0
I2
I2
I2
I1
I1
I2
I-2
I1
I0
I-2
I0
I-1
I1
I0
I1
I0
I-2
I0
I-2
I1
I0
I-2
I2
I-1
I-2
I2
I-2
I2
I-1
I-1
I1
I0
I2
I1
I1
I0
I-2
I-2
I2
I-2
I2
I-1
I-1
I2
I1
I2
I2
I-1
I-2
I-1
I-1
I-1
I-2
I2
I-1
I-1
I1
I1
I-2
I2
I-1
I1
I1
I-1
I1
I-1
I1
I1
I2
I1
I-1
I2
I-2
I-1
I-1
I-2
I-1
I-2
I0
I0
I0
I0
I-2
I1
I-2
I1
I1
I-2
I2
I1
I-1
I2
I0
I2
I1
I-1
I1
I-1
I0
I1
I-1
I-2
I-2
I-2
I-2
I-2
I2
I-2
I-2
I2
I-2
I2
I-2
I-2
I1
I1
I-1
I2
I0
I1
I0
I-2
I1
I-1
I-1
I0
I-2
I1
I-2
I0
I1
I1
I2
I2
I2
I0
I1
I2
I-2
I0
I-1
I-2
I0
I-1
I1
I0
I0
I-1
I-2
I0
I-2
I1
I0
I-2
I2
I-1
I-1
I2
I-2
I2
I0
I0
I1
I1
I2
I2
I1
I2
I-2
I-2
I1
I-2
I2
I2
I-1
I2
I-1
I2
I0
I1
I2
I0
I-1
I1
I-2
I1
I2
I-1
I2
I2
I0
I2
I2
I2
I1
I0
I0
I-1
I1
I-2
I2
I-1
I-2
I1
I-2
I-1
I-1
I-2
I-1
I-2
I-1
I-2
I0
I0
I-2
I1
I-2
I0
I-1
I-2
I2
I0
I-2
I2
I0
I2
I0
I-2
I0
I-1
I0
I0
I-2
I-1
I-2
I-2
I1
I-2
I2
I0
I-1
I2
I1
I2
I1
I-1
I-1
I-2
I-2
I-1
I-2
I-1
I-2
I-2
I1
I-1
I1
I2
I-1
I1
I1
I0
I0
I2
I2
I1
I2
I2
I1
I2
I-1
I1
I0
I-2
I-1
I-2
I-1
I0
I2
I1
I-2
I1
I-2
I0
I1
I-2
I2
I0
I0
I2
I-2
I2
I1
I-1
I2
I2
I2
I2
I1
I-1
I-2
I-2
I-2
I-2
I2
I-1
I1
I2
I-2
I1
I-1
I0
I1
I2
I-1
I2
I0
I1
I1
I-1
I2
I-1
I-2
I0
I-1
I1
I-1
I-1
I0
I-1
I2
I1
I1
I0
I0
I1
I-2
I1
I0
I-1
I1
I-1
I0
I-1
I0
I-1
I-2
I-1
I-2
I-1
I-1
I-2
I2
I-1
I-2
I2
I-2
I1
I0
I-2
I1
I-1
I2
I1
I0
I2
I-1
I-2
I2
I1
I-1
I2
I1
I0
I-1
I-1
I-1
I-2
I1
I1
I0
I2
I0
I1
I0
I1
I0
I1
I-1
I0
I1
I-1
I-1
I1
I1
I-1
I1
I-2
I2
I0
I-1
I2
I-2
I2
I0
I1
tp12
sS'bc9080a5fb42a60e.jpg'
p13
(I-2
I-1
I-2
I2
I-1
I2
I0
I1
I1
I-1
I1
I2
I-1
I1
I-1
I2
I0
I-2
I1
I2
I1
I-1
I2
I-2
I1
I-2
I1
I0
I-1
I-2
I0
I-1
I-2
I2
I-2
I1
I-1
I-2
I2
I1
I1
I1
I-2
I-2
I1
I-2
I2
I0
I-1
I2
I1
I2
I1
I-1
I-1
I-2
I-2
I-1
I-2
I1
I-2
I-1
I1
I0
I-1
I2
I-2
I1
I1
I-2
I2
I1
I2
I2
I2
I2
I1
I2
I-2
I-1
I0
I-2
I-1
I-2
I0
I1
I0
I1
I-1
I1
I-2
I1
I1
I-1
I2
I1
I-1
I2
I-1
I2
I1
I-1
I2
I-1
I1
I2
I-1
I-1
I-2
I-2
I-1
I-2
I2
I-1
I-1
I2
I-2
I2
I-1
I-2
I1
I2
I-1
I2
I1
I1
I0
I0
I1
I-1
I-2
I-1
I-2
I-1
I-1
I-2
I2
I-1
I2
I2
I2
I2
I1
I2
I-2
I0
I-1
I-2
I1
I-2
I1
I-1
I-1
I-1
I-2
I-1
I-2
I0
I-1
I-2
I1
I-1
I-2
I2
I-2
I1
I-2
I-2
I1
I1
I2
I1
I1
I1
I-2
I-2
I1
I-2
I2
I1
I-1
I2
I-1
I2
I0
I1
I2
I0
I1
I1
I0
I1
I2
I0
I0
I1
I-2
I0
I-2
I2
I0
I-2
I2
I-1
I2
I2
I2
I2
I-1
I2
I-2
I-1
I0
I-2
I-1
I-2
I1
I-1
I1
I1
I-1
I1
I-2
I1
I1
I-2
I2
I1
I-1
I2
I0
I2
I1
I-1
I2
I-1
I0
I1
I-1
I-1
I-2
I-2
I0
I-2
I2
I0
I-1
I2
I1
I2
I1
I-1
I-1
I-2
I-2
I-1
I-2
I1
I-2
I-1
I0
I0
I-2
I2
I-2
I0
I1
I-1
I2
I1
I2
I2
I2
I2
I1
I2
I-2
I-1
I-1
I-2
I-1
I-2
I-2
I-1
I1
I-1
I-2
I1
I-2
I-1
I0
I-2
I2
I-1
I-1
I2
I-2
I2
I-1
I-1
I1
I1
I2
I1
I1
I0
I-2
I-2
I-2
I-2
I2
I-1
I-1
I2
I-2
I2
I-2
I-1
I1
I1
I0
I2
I0
I0
I1
I-1
I1
I-1
I-2
I0
I-2
I1
I-1
I-2
I1
I-1
I2
I2
I1
I1
I-1
I2
I-2
I2
I1
I-1
I1
I-2
I1
I1
I1
I0
I-2
I-1
I-2
I1
I0
I-2
I2
I1
I-1
I2
I-1
I2
I1
I-1
I1
I-1
I1
I2
I-1
I2
I-2
I-2
I2
I-2
I2
I2
I0
I2
I1
I2
I1
I1
I1
I-1
I-1
I-1
I-2
I-1
I-1
I-1
I1
I1
I-1
I2
I-2
I2
I2
I-1
I2
I1
I2
I2
I2
I2
I1
I2
I-2
I-1
I-1
I-2
I0
I-2
I0
I1
I-1
I0
I-2
I0
I-2
I0
I1
I-2
I2
I-1
I-2
I2
I-2
I2
I-1
I-1
I1
I1
I2
I2
I1
I-2
I-2
I-2
I0
I-2
I2
I-1
I1
I2
I-1
I2
I1
I-1
I-1
I1
I-2
I1
I0
I2
I-1
I-1
I1
I-2
I-2
I0
I-2
I-1
I-1
I-2
I1
I-1
I2
I2
I2
I2
I0
I2
I-2
I0
I0
I-2
I1
I-2
I1
I-1
I-1
I-1
I-2
I-1
I-2
I0
I-1
I-2
I2
I1
I-2
I2
I-1
I2
I-1
I-2
I1
I-1
I1
I0
I-1
I0
I-2
I-2
I2
I-1
I-2
I2
I-2
I1
I1
I1
I2
I0
I1
I1
I-2
I0
I-2
I2
I0
I2
I2
I2
I-2
I-1
I0
I-2
I-2
I1
I1
I-2
I2
I-2
I2
I1
I0
I2
I-1
I2
I1
I1
tp14
sS'26eb6ab69b55faf5.jpg'
p15
(I-1
I0
I0
I1
I0
I0
I1
I0
I0
I-1
I1
I0
I-1
I1
I0
I1
I0
I1
I0
I-2
I0
I1
I-2
I2
I-2
I2
I1
I-2
I2
I-2
I2
I-1
I-1
I2
I2
I2
I2
I2
I-2
I0
I1
I0
I0
I0
I0
I0
I0
I-1
I-1
I0
I-1
I-1
I0
I-2
I0
I0
I-1
I1
I-1
I1
I0
I0
I1
I0
I0
I1
I1
I1
I1
I-2
I-1
I-1
I-2
I-1
I-2
I0
I-2
I-2
I2
I-1
I-2
I2
I-2
I1
I0
I-2
I2
I1
I-2
I2
I0
I2
I0
I-1
I1
I-2
I0
I0
I1
I0
I-1
I0
I-2
I-1
I-1
I-2
I-1
I0
I1
I1
I0
I-1
I0
I0
I-1
I-1
I-2
I-1
I-1
I-1
I2
I0
I-1
I2
I0
I0
I0
I2
I0
I-1
I0
I0
I-2
I0
I2
I-2
I2
I2
I-1
I2
I-2
I2
I1
I-2
I2
I0
I-2
I2
I-2
I2
I0
I-2
I2
I0
I0
I2
I-1
I2
I0
I-1
I1
I1
I2
I1
I2
I1
I0
I1
I0
I1
I-2
I-2
I-1
I0
I1
I-1
I1
I0
I1
I1
I0
I1
I0
I1
I0
I0
I1
I0
I0
I0
I1
I0
I0
I0
I-2
I-2
I-2
I-1
I-2
I-2
I-2
I-2
I2
I-1
I-2
I2
I-2
I2
I0
I-2
I2
I0
I-2
I2
I-2
I2
I-2
I-2
I2
I0
I-1
I2
I-1
I2
I0
I0
I1
I0
I2
I1
I1
I1
I2
I2
I-1
I1
I-1
I1
I1
I-1
I-1
I-1
I0
I-1
I0
I0
I0
I1
I-1
I1
I0
I-1
I0
I0
I2
I1
I0
I0
I0
I1
I0
I2
I-2
I0
I-2
I0
I1
I-1
I2
I0
I-2
I2
I-2
I2
I1
I-2
I2
I2
I-2
I2
I-2
I2
I-1
I-2
I2
I0
I-1
I2
I1
I2
I0
I2
I0
I-2
I-1
I-1
I0
I-1
I1
I0
I-2
I-1
I0
I1
I-1
I0
I-1
I-1
I0
I-1
I1
I0
I0
I1
I-1
I1
I0
I-1
I1
I0
I0
I1
I1
I1
I0
I0
I-1
I-1
I-2
I-2
I-2
I-2
I-1
I-2
I1
I-1
I-2
I2
I-2
I0
I-1
I-2
I2
I1
I-2
I2
I-2
I2
I1
I0
I2
I0
I1
I2
I2
I2
I1
I2
I-2
I-1
I-1
I-2
I-2
I-1
I1
I-2
I0
I1
I2
I2
I-1
I0
I-1
I-1
I-2
I0
I1
I0
I-1
I1
I-1
I-1
I0
I1
I1
I0
I2
I1
I0
I2
I2
I1
I0
I1
I0
I0
I-1
I2
I1
I-2
I2
I1
I-2
I1
I-2
I2
I-1
I-2
I2
I-1
I-2
I2
I-2
I2
I1
I-2
I0
I-1
I1
I2
I2
I2
I0
I0
I-2
I-1
I-2
I-2
I-2
I-1
I-2
I-2
I2
I1
I2
I1
I0
I2
I1
I1
I1
I1
I0
I0
I-2
I-1
I1
I0
I0
I1
I-1
I-2
I-2
I-1
I-1
I-1
I0
I-1
I-1
I-1
I-2
I1
I-2
I1
I0
I-2
I2
I1
I-2
I2
I-2
I2
I-1
I0
I2
I-1
I-2
I2
I-2
I2
I2
I0
I2
I0
I1
I2
I-1
I2
I2
I-2
I0
I2
I-1
I1
I-1
I2
I-1
I-2
I2
I0
I1
I0
I-1
I-1
I0
I0
I-1
I0
I1
I0
I1
I-1
I0
I-1
I-1
I-1
I1
I0
I-2
I1
I-2
I2
I1
I-2
I2
I1
I0
I-2
I-2
I-1
I-2
I0
I-2
I-2
I2
I-2
I2
I1
I0
I2
I-1
I2
I1
I1
tp16
sS'eb1226eb742a56a6.jpg'
p17
(I1
I1
I-1
I-1
I-2
I0
I-1
I-2
I2
I0
I1
I1
I1
I0
I1
I1
I1
I0
I-1
I2
I0
I-1
I2
I-2
I-2
I-2
I0
I-2
I2
I2
I2
I-1
I2
I-2
I2
I-2
I-1
I2
I-2
I-2
I-1
I-1
I0
I-1
I-1
I-1
I1
I1
I-1
I1
I-1
I1
I1
I-1
I2
I-1
I-1
I1
I0
I1
I-1
I-1
I-1
I-1
I0
I0
I-1
I-1
I-1
I0
I0
I1
I2
I1
I2
I1
I1
I2
I-2
I0
I-2
I-2
I-2
I-2
I-2
I-2
I2
I1
I2
I2
I2
I2
I0
I2
I-2
I1
I2
I-2
I2
I-2
I0
I2
I-2
I1
I-2
I-2
I-1
I1
I-1
I0
I-1
I-2
I1
I-1
I-1
I0
I-2
I0
I-2
I1
I1
I1
I1
I1
I0
I0
I2
I-1
I1
I1
I-1
I0
I1
I2
I-1
I1
I0
I-1
I2
I-1
I2
I-1
I1
I2
I-2
I2
I-2
I-2
I-2
I-1
I2
I-1
I2
I0
I2
I2
I2
I2
I2
I1
I-2
I0
I2
I-2
I2
I-1
I-1
I2
I-2
I1
I-2
I-2
I0
I1
I0
I-2
I2
I0
I2
I2
I0
I2
I2
I2
I1
I1
I-1
I-2
I-2
I-2
I-2
I-2
I-2
I-2
I1
I1
I1
I2
I2
I1
I0
I1
I-1
I-1
I1
I-2
I2
I-2
I-1
I1
I-2
I-2
I-2
I-2
I-2
I-2
I-2
I-2
I1
I-2
I1
I2
I0
I1
I0
I2
I-1
I1
I2
I0
I2
I0
I2
I2
I-2
I0
I-2
I-2
I1
I-2
I-2
I-2
I-1
I-1
I0
I-1
I2
I2
I-1
I1
I1
I-1
I-1
I2
I-1
I1
I-1
I1
I0
I-1
I2
I0
I2
I1
I1
I1
I0
I1
I-1
I1
I2
I-1
I2
I-1
I0
I2
I-1
I2
I-1
I-2
I-1
I-1
I1
I-2
I2
I0
I0
I1
I2
I2
I-1
I1
I-2
I-2
I2
I-2
I2
I-2
I-1
I2
I-2
I-1
I-2
I-2
I0
I1
I-1
I0
I1
I-1
I1
I-1
I-1
I0
I-1
I1
I-1
I-1
I1
I0
I-1
I1
I0
I1
I0
I1
I1
I0
I1
I0
I1
I0
I2
I-1
I-1
I0
I1
I-1
I2
I1
I-1
I2
I-2
I-1
I-2
I-2
I-2
I-2
I2
I-2
I2
I1
I2
I2
I2
I2
I0
I2
I-1
I1
I2
I-2
I2
I-2
I1
I2
I-2
I0
I-2
I-2
I1
I-1
I-1
I-1
I0
I-1
I1
I1
I-1
I1
I-1
I1
I1
I1
I1
I0
I0
I1
I1
I1
I1
I0
I-1
I-2
I-1
I-1
I-2
I-1
I-2
I-1
I1
I1
I2
I2
I2
I1
I1
I2
I-2
I-2
I-2
I-2
I-2
I-2
I-2
I-2
I2
I0
I2
I2
I2
I2
I0
I2
I-2
I-1
I2
I-2
I2
I-2
I-1
I2
I-2
I-1
I-2
I-2
I0
I0
I-1
I0
I-1
I-1
I1
I-1
I-1
I0
I0
I-1
I-1
I0
I-1
I-1
I1
I0
I-1
I-1
I0
I-1
I0
I2
I-1
I1
I1
I1
I1
I1
I1
I-1
I2
I-1
I1
I0
I0
I2
I-2
I2
I-2
I-1
I-2
I-2
I2
I-1
I2
I0
I2
I2
I2
I2
I1
I1
I-2
I1
I2
I-2
I2
I-2
I-2
I2
I-2
I0
I-2
I-2
I-2
I1
I1
I0
I1
I1
I1
I0
I1
I0
I0
I-1
I-1
I-1
I1
I-1
I0
I1
I0
I-1
I0
I2
I0
I2
I-2
I-2
I-2
I-2
I-2
I1
I-1
I2
I2
I0
I-1
I2
I2
I0
I2
I-2
I2
I-2
tp18
s.